Archive member included to satisfy reference by file (symbol)

C:/Program Files/Microchip/xc32/v5.00/bin/bin/../../lib/gcc/pic32c/13.2.1/../../../../pic32c/lib/thumb/v7e-m+dp/hard\libpic32c.a(data_init.o)
                              build/default/production/_ext/1171490990/startup_xc32.o (__pic32c_data_initialization)
C:/Program Files/Microchip/xc32/v5.00/bin/bin/../../lib/gcc/pic32c/13.2.1/../../../../pic32c/lib/thumb/v7e-m+dp/hard\libpic32c.a(_write.o)
                              build/default/production/_ext/783082040/board_api.o (_write)
C:/Program Files/Microchip/xc32/v5.00/bin/bin/../../lib/gcc/pic32c/13.2.1/../../../../pic32c/lib/thumb/v7e-m+dp/hard\libc-size-musl.a(memcmp.o)
                              build/default/production/_ext/534298161/bridgeif_fdb.o (memcmp)
C:/Program Files/Microchip/xc32/v5.00/bin/bin/../../lib/gcc/pic32c/13.2.1/../../../../pic32c/lib/thumb/v7e-m+dp/hard\libc-size-musl.a(memcpy.o)
                              build/default/production/_ext/60167248/plib_efc.o (memcpy)
C:/Program Files/Microchip/xc32/v5.00/bin/bin/../../lib/gcc/pic32c/13.2.1/../../../../pic32c/lib/thumb/v7e-m+dp/hard\libc-size-musl.a(memmove.o)
                              build/default/production/_ext/1422079320/embedded_cli.o (memmove)
C:/Program Files/Microchip/xc32/v5.00/bin/bin/../../lib/gcc/pic32c/13.2.1/../../../../pic32c/lib/thumb/v7e-m+dp/hard\libc-size-musl.a(memset.o)
                              build/default/production/_ext/1134253236/simple_shield.o (memset)
C:/Program Files/Microchip/xc32/v5.00/bin/bin/../../lib/gcc/pic32c/13.2.1/../../../../pic32c/lib/thumb/v7e-m+dp/hard\libc-size-musl.a(strlen.o)
                              build/default/production/_ext/1422079320/embedded_cli.o (strlen)
C:/Program Files/Microchip/xc32/v5.00/bin/bin/../../lib/gcc/pic32c/13.2.1/../../../../pic32c/lib/thumb/v7e-m+dp/hard\libc-size-musl.a(strstr.o)
                              build/default/production/_ext/1037924264/smtp.o (strstr)
C:/Program Files/Microchip/xc32/v5.00/bin/bin/../../lib/gcc/pic32c/13.2.1/../../../../pic32c/lib/thumb/v7e-m+dp/hard\libc-size-musl.a(strchr.o)
                              build/default/production/_ext/1422079320/embedded_cli.o (strchr)
C:/Program Files/Microchip/xc32/v5.00/bin/bin/../../lib/gcc/pic32c/13.2.1/../../../../pic32c/lib/thumb/v7e-m+dp/hard\libc-size-musl.a(strchrnul.o)
                              C:/Program Files/Microchip/xc32/v5.00/bin/bin/../../lib/gcc/pic32c/13.2.1/../../../../pic32c/lib/thumb/v7e-m+dp/hard\libc-size-musl.a(strchr.o) (__strchrnul)
C:/Program Files/Microchip/xc32/v5.00/bin/bin/../../lib/gcc/pic32c/13.2.1/../../../../pic32c/lib/thumb/v7e-m+dp/hard\libc-size-musl.a(strcmp.o)
                              build/default/production/_ext/1134253236/simple_shield.o (strcmp)
C:/Program Files/Microchip/xc32/v5.00/bin/bin/../../lib/gcc/pic32c/13.2.1/../../../../pic32c/lib/thumb/v7e-m+dp/hard\libc-size-musl.a(strcpy.o)
                              build/default/production/_ext/502845695/tasks.o (strcpy)
C:/Program Files/Microchip/xc32/v5.00/bin/bin/../../lib/gcc/pic32c/13.2.1/../../../../pic32c/lib/thumb/v7e-m+dp/hard\libc-size-musl.a(strncmp.o)
                              build/default/production/_ext/1037603290/httpd.o (strncmp)
C:/Program Files/Microchip/xc32/v5.00/bin/bin/../../lib/gcc/pic32c/13.2.1/../../../../pic32c/lib/thumb/v7e-m+dp/hard\libc-size-musl.a(strncpy.o)
                              build/default/production/_ext/1260377903/ring_buffer.o (strncpy)
C:/Program Files/Microchip/xc32/v5.00/bin/bin/../../lib/gcc/pic32c/13.2.1/../../../../pic32c/lib/thumb/v7e-m+dp/hard\libc-size-musl.a(stpcpy.o)
                              C:/Program Files/Microchip/xc32/v5.00/bin/bin/../../lib/gcc/pic32c/13.2.1/../../../../pic32c/lib/thumb/v7e-m+dp/hard\libc-size-musl.a(strcpy.o) (__stpcpy)
C:/Program Files/Microchip/xc32/v5.00/bin/bin/../../lib/gcc/pic32c/13.2.1/../../../../pic32c/lib/thumb/v7e-m+dp/hard\libc-size-musl.a(stpncpy.o)
                              C:/Program Files/Microchip/xc32/v5.00/bin/bin/../../lib/gcc/pic32c/13.2.1/../../../../pic32c/lib/thumb/v7e-m+dp/hard\libc-size-musl.a(strncpy.o) (__stpncpy)
C:/Program Files/Microchip/xc32/v5.00/bin/bin/../../lib/gcc/pic32c/13.2.1/../../../../pic32c/lib/thumb/v7e-m+dp/hard\libc-musl.a(isxdigit.o)
                              build/default/production/_ext/1349076522/ip4_addr.o (isxdigit)
C:/Program Files/Microchip/xc32/v5.00/bin/bin/../../lib/gcc/pic32c/13.2.1/../../../../pic32c/lib/thumb/v7e-m+dp/hard\libc-musl.a(toupper.o)
                              build/default/production/_ext/581206725/netbiosns.o (toupper)
C:/Program Files/Microchip/xc32/v5.00/bin/bin/../../lib/gcc/pic32c/13.2.1/../../../../pic32c/lib/thumb/v7e-m+dp/hard\libc-musl.a(__libc_start_main.o)
                              build/default/production/_ext/1171490990/startup_xc32.o (__libc_init_array)
C:/Program Files/Microchip/xc32/v5.00/bin/bin/../../lib/gcc/pic32c/13.2.1/../../../../pic32c/lib/thumb/v7e-m+dp/hard\libc-musl.a(libc.o)
                              C:/Program Files/Microchip/xc32/v5.00/bin/bin/../../lib/gcc/pic32c/13.2.1/../../../../pic32c/lib/thumb/v7e-m+dp/hard\libc-musl.a(__libc_start_main.o) (__progname_full)
C:/Program Files/Microchip/xc32/v5.00/bin/bin/../../lib/gcc/pic32c/13.2.1/../../../../pic32c/lib/thumb/v7e-m+dp/hard\libc-musl.a(vsnprintf.o)
                              build/default/production/_ext/751336192/xlog.o (vsnprintf)
C:/Program Files/Microchip/xc32/v5.00/bin/bin/../../lib/gcc/pic32c/13.2.1/../../../../pic32c/lib/thumb/v7e-m+dp/hard\libc-musl.a(snprintf.o)
                              (snprintf)
C:/Program Files/Microchip/xc32/v5.00/bin/bin/../../lib/gcc/pic32c/13.2.1/../../../../pic32c/lib/thumb/v7e-m+dp/hard\libc-musl.a(sprintf.o)
                              (sprintf)
C:/Program Files/Microchip/xc32/v5.00/bin/bin/../../lib/gcc/pic32c/13.2.1/../../../../pic32c/lib/thumb/v7e-m+dp/hard\libc-musl.a(vsprintf.o)
                              C:/Program Files/Microchip/xc32/v5.00/bin/bin/../../lib/gcc/pic32c/13.2.1/../../../../pic32c/lib/thumb/v7e-m+dp/hard\libc-musl.a(sprintf.o) (vsprintf)
C:/Program Files/Microchip/xc32/v5.00/bin/bin/../../lib/gcc/pic32c/13.2.1/../../../../pic32c/lib/thumb/v7e-m+dp/hard\libc-musl.a(atoi.o)
                              build/default/production/_ext/667517761/cli_command.o (atoi)
C:/Program Files/Microchip/xc32/v5.00/bin/bin/../../lib/gcc/pic32c/13.2.1/../../../../pic32c/lib/thumb/v7e-m+dp/hard\libc-musl.a(strtol.o)
                              build/default/production/_ext/667517761/cli_command.o (strtoul)
C:/Program Files/Microchip/xc32/v5.00/bin/bin/../../lib/gcc/pic32c/13.2.1/../../../../pic32c/lib/thumb/v7e-m+dp/hard\libc-musl.a(__environ.o)
                              C:/Program Files/Microchip/xc32/v5.00/bin/bin/../../lib/gcc/pic32c/13.2.1/../../../../pic32c/lib/thumb/v7e-m+dp/hard\libc-musl.a(__libc_start_main.o) (__environ)
C:/Program Files/Microchip/xc32/v5.00/bin/bin/../../lib/gcc/pic32c/13.2.1/../../../../pic32c/lib/thumb/v7e-m+dp/hard\libc-musl.a(__errno_location.o)
                              C:/Program Files/Microchip/xc32/v5.00/bin/bin/../../lib/gcc/pic32c/13.2.1/../../../../pic32c/lib/thumb/v7e-m+dp/hard\libc-musl.a(vsnprintf.o) (__errno_val)
C:/Program Files/Microchip/xc32/v5.00/bin/bin/../../lib/gcc/pic32c/13.2.1/../../../../pic32c/lib/thumb/v7e-m+dp/hard\libc-musl.a(intscan.o)
                              C:/Program Files/Microchip/xc32/v5.00/bin/bin/../../lib/gcc/pic32c/13.2.1/../../../../pic32c/lib/thumb/v7e-m+dp/hard\libc-musl.a(strtol.o) (__intscan)
C:/Program Files/Microchip/xc32/v5.00/bin/bin/../../lib/gcc/pic32c/13.2.1/../../../../pic32c/lib/thumb/v7e-m+dp/hard\libc-musl.a(shgetc.o)
                              C:/Program Files/Microchip/xc32/v5.00/bin/bin/../../lib/gcc/pic32c/13.2.1/../../../../pic32c/lib/thumb/v7e-m+dp/hard\libc-musl.a(strtol.o) (__shlim)
C:/Program Files/Microchip/xc32/v5.00/bin/bin/../../lib/gcc/pic32c/13.2.1/../../../../pic32c/lib/thumb/v7e-m+dp/hard\libc-musl.a(__uflow.o)
                              C:/Program Files/Microchip/xc32/v5.00/bin/bin/../../lib/gcc/pic32c/13.2.1/../../../../pic32c/lib/thumb/v7e-m+dp/hard\libc-musl.a(shgetc.o) (__uflow)
C:/Program Files/Microchip/xc32/v5.00/bin/bin/../../lib/gcc/pic32c/13.2.1/../../../../pic32c/lib/thumb/v7e-m+dp/hard\libc-musl.a(vfprintf.o)
                              C:/Program Files/Microchip/xc32/v5.00/bin/bin/../../lib/gcc/pic32c/13.2.1/../../../../pic32c/lib/thumb/v7e-m+dp/hard\libc-musl.a(vsnprintf.o) (vfprintf)
C:/Program Files/Microchip/xc32/v5.00/bin/bin/../../lib/gcc/pic32c/13.2.1/../../../../pic32c/lib/thumb/v7e-m+dp/hard\libc-musl.a(__toread.o)
                              C:/Program Files/Microchip/xc32/v5.00/bin/bin/../../lib/gcc/pic32c/13.2.1/../../../../pic32c/lib/thumb/v7e-m+dp/hard\libc-musl.a(__uflow.o) (__toread)
C:/Program Files/Microchip/xc32/v5.00/bin/bin/../../lib/gcc/pic32c/13.2.1/../../../../pic32c/lib/thumb/v7e-m+dp/hard\libc-musl.a(__io_fmt_needed.o)
                              C:/Program Files/Microchip/xc32/v5.00/bin/bin/../../lib/gcc/pic32c/13.2.1/../../../../pic32c/lib/thumb/v7e-m+dp/hard\libc-musl.a(vfprintf.o) (__io_fmt_needed)
C:/Program Files/Microchip/xc32/v5.00/bin/bin/../../lib/gcc/pic32c/13.2.1/../../../../pic32c/lib/thumb/v7e-m+dp/hard\libc-musl.a(__pop_float.o)
                              C:/Program Files/Microchip/xc32/v5.00/bin/bin/../../lib/gcc/pic32c/13.2.1/../../../../pic32c/lib/thumb/v7e-m+dp/hard\libc-musl.a(__io_fmt_needed.o) (__pop_float_needed)
C:/Program Files/Microchip/xc32/v5.00/bin/bin/../../lib/gcc/pic32c/13.2.1/../../../../pic32c/lib/thumb/v7e-m+dp/hard\libc-musl.a(__pop_int.o)
                              C:/Program Files/Microchip/xc32/v5.00/bin/bin/../../lib/gcc/pic32c/13.2.1/../../../../pic32c/lib/thumb/v7e-m+dp/hard\libc-musl.a(__io_fmt_needed.o) (__pop_int_needed)
C:/Program Files/Microchip/xc32/v5.00/bin/bin/../../lib/gcc/pic32c/13.2.1/../../../../pic32c/lib/thumb/v7e-m+dp/hard\libc-musl.a(__pop_ptr.o)
                              C:/Program Files/Microchip/xc32/v5.00/bin/bin/../../lib/gcc/pic32c/13.2.1/../../../../pic32c/lib/thumb/v7e-m+dp/hard\libc-musl.a(__io_fmt_needed.o) (__pop_ptr_needed)
C:/Program Files/Microchip/xc32/v5.00/bin/bin/../../lib/gcc/pic32c/13.2.1/../../../../pic32c/lib/thumb/v7e-m+dp/hard\libc-musl.a(__printf_core.o)
                              C:/Program Files/Microchip/xc32/v5.00/bin/bin/../../lib/gcc/pic32c/13.2.1/../../../../pic32c/lib/thumb/v7e-m+dp/hard\libc-musl.a(vfprintf.o) (__printf_core)
C:/Program Files/Microchip/xc32/v5.00/bin/bin/../../lib/gcc/pic32c/13.2.1/../../../../pic32c/lib/thumb/v7e-m+dp/hard\libc-musl.a(__stdio_exit.o)
                              C:/Program Files/Microchip/xc32/v5.00/bin/bin/../../lib/gcc/pic32c/13.2.1/../../../../pic32c/lib/thumb/v7e-m+dp/hard\libc-musl.a(__toread.o) (__stdio_exit_needed)
C:/Program Files/Microchip/xc32/v5.00/bin/bin/../../lib/gcc/pic32c/13.2.1/../../../../pic32c/lib/thumb/v7e-m+dp/hard\libc-musl.a(tolower.o)
                              C:/Program Files/Microchip/xc32/v5.00/bin/bin/../../lib/gcc/pic32c/13.2.1/../../../../pic32c/lib/thumb/v7e-m+dp/hard\libc-musl.a(__printf_core.o) (tolower)
C:/Program Files/Microchip/xc32/v5.00/bin/bin/../../lib/gcc/pic32c/13.2.1/../../../../pic32c/lib/thumb/v7e-m+dp/hard\libc-musl.a(__fmt_a.o)
                              C:/Program Files/Microchip/xc32/v5.00/bin/bin/../../lib/gcc/pic32c/13.2.1/../../../../pic32c/lib/thumb/v7e-m+dp/hard\libc-musl.a(__io_fmt_needed.o) (__fmt_a_needed)
C:/Program Files/Microchip/xc32/v5.00/bin/bin/../../lib/gcc/pic32c/13.2.1/../../../../pic32c/lib/thumb/v7e-m+dp/hard\libc-musl.a(__fmt_d.o)
                              C:/Program Files/Microchip/xc32/v5.00/bin/bin/../../lib/gcc/pic32c/13.2.1/../../../../pic32c/lib/thumb/v7e-m+dp/hard\libc-musl.a(__io_fmt_needed.o) (__fmt_d_needed)
C:/Program Files/Microchip/xc32/v5.00/bin/bin/../../lib/gcc/pic32c/13.2.1/../../../../pic32c/lib/thumb/v7e-m+dp/hard\libc-musl.a(__fmt_fp.o)
                              C:/Program Files/Microchip/xc32/v5.00/bin/bin/../../lib/gcc/pic32c/13.2.1/../../../../pic32c/lib/thumb/v7e-m+dp/hard\libc-musl.a(__io_fmt_needed.o) (__fmt_f_needed)
C:/Program Files/Microchip/xc32/v5.00/bin/bin/../../lib/gcc/pic32c/13.2.1/../../../../pic32c/lib/thumb/v7e-m+dp/hard\libc-musl.a(__fmt_o.o)
                              C:/Program Files/Microchip/xc32/v5.00/bin/bin/../../lib/gcc/pic32c/13.2.1/../../../../pic32c/lib/thumb/v7e-m+dp/hard\libc-musl.a(__io_fmt_needed.o) (__fmt_o_needed)
C:/Program Files/Microchip/xc32/v5.00/bin/bin/../../lib/gcc/pic32c/13.2.1/../../../../pic32c/lib/thumb/v7e-m+dp/hard\libc-musl.a(__fmt_s.o)
                              C:/Program Files/Microchip/xc32/v5.00/bin/bin/../../lib/gcc/pic32c/13.2.1/../../../../pic32c/lib/thumb/v7e-m+dp/hard\libc-musl.a(__io_fmt_needed.o) (__fmt_s_needed)
C:/Program Files/Microchip/xc32/v5.00/bin/bin/../../lib/gcc/pic32c/13.2.1/../../../../pic32c/lib/thumb/v7e-m+dp/hard\libc-musl.a(__fmt_u.o)
                              C:/Program Files/Microchip/xc32/v5.00/bin/bin/../../lib/gcc/pic32c/13.2.1/../../../../pic32c/lib/thumb/v7e-m+dp/hard\libc-musl.a(__io_fmt_needed.o) (__fmt_u_needed)
C:/Program Files/Microchip/xc32/v5.00/bin/bin/../../lib/gcc/pic32c/13.2.1/../../../../pic32c/lib/thumb/v7e-m+dp/hard\libc-musl.a(__fmt_x.o)
                              C:/Program Files/Microchip/xc32/v5.00/bin/bin/../../lib/gcc/pic32c/13.2.1/../../../../pic32c/lib/thumb/v7e-m+dp/hard\libc-musl.a(__io_fmt_needed.o) (__fmt_x_needed)
C:/Program Files/Microchip/xc32/v5.00/bin/bin/../../lib/gcc/pic32c/13.2.1/../../../../pic32c/lib/thumb/v7e-m+dp/hard\libc-musl.a(__cvt_u.o)
                              C:/Program Files/Microchip/xc32/v5.00/bin/bin/../../lib/gcc/pic32c/13.2.1/../../../../pic32c/lib/thumb/v7e-m+dp/hard\libc-musl.a(__fmt_d.o) (__cvt_u)
C:/Program Files/Microchip/xc32/v5.00/bin/bin/../../lib/gcc/pic32c/13.2.1/../../../../pic32c/lib/thumb/v7e-m+dp/hard\libm-fast-emfloat.a(floor.o)
                              C:/Program Files/Microchip/xc32/v5.00/bin/bin/../../lib/gcc/pic32c/13.2.1/../../../../pic32c/lib/thumb/v7e-m+dp/hard\libc-musl.a(__fmt_a.o) (floor)
C:/Program Files/Microchip/xc32/v5.00/bin/bin/../../lib/gcc/pic32c/13.2.1/thumb/v7e-m+dp/hard\libgcc.a(_aeabi_uldivmod.o)
                              build/default/production/_ext/1778509306/os.o (__aeabi_uldivmod)
C:/Program Files/Microchip/xc32/v5.00/bin/bin/../../lib/gcc/pic32c/13.2.1/thumb/v7e-m+dp/hard\libgcc.a(_udivmoddi4.o)
                              C:/Program Files/Microchip/xc32/v5.00/bin/bin/../../lib/gcc/pic32c/13.2.1/thumb/v7e-m+dp/hard\libgcc.a(_aeabi_uldivmod.o) (__udivmoddi4)
C:/Program Files/Microchip/xc32/v5.00/bin/bin/../../lib/gcc/pic32c/13.2.1/thumb/v7e-m+dp/hard\libgcc.a(_dvmd_tls.o)
                              C:/Program Files/Microchip/xc32/v5.00/bin/bin/../../lib/gcc/pic32c/13.2.1/thumb/v7e-m+dp/hard\libgcc.a(_aeabi_uldivmod.o) (__aeabi_ldiv0)
C:/Program Files/Microchip/xc32/v5.00/bin/bin/../../lib/gcc/pic32c/13.2.1/../../../../pic32c/lib/thumb/v7e-m+dp/hard\libpic32c.a(pic32_data_init_clear.o)
                              (__dinit_clear_needed)
C:/Program Files/Microchip/xc32/v5.00/bin/bin/../../lib/gcc/pic32c/13.2.1/../../../../pic32c/lib/thumb/v7e-m+dp/hard\libpic32c.a(pic32_data_init_copy.o)
                              (__dinit_copy_needed)

Microchip PIC32 Memory-Usage Report

ROM Program-Memory Usage
section                    address  length [bytes]      (dec)  Description
-------                 ----------  -------------------------  -----------
.vectors                  0x400000          0x168         360   
.text                     0x400168           0x20          32  App's exec code 
.ARM.exidx                0x400188            0x8           8   
.text.tcp_receive         0x400190          0xda8        3496   
.dinit                    0x400f38          0x860        2144   
.text.tcp_input           0x401798          0x7c0        1984   
.text.tcp_process         0x401f58          0x74c        1868   
.rodata                   0x4026a4          0x609        1545  Read-only const 
.text.dcd_event_handler   0x402cb0          0x5c4        1476   
.text.process_control_r   0x403274          0x5c0        1472   
.text.tcp_slowtmr         0x403834          0x558        1368   
.text.tcp_write           0x403d8c          0x554        1364   
.text.dcd_ep_handler      0x4042e0          0x4a4        1188   
.text.tud_task_ext        0x404784          0x404        1028   
.text.CMD_Dev             0x404b88          0x3fc        1020   
.text.__intscan           0x404f84          0x3d4         980   
.text.__fmt_a             0x405358          0x3cc         972   
.rodata.uxTopUsedPriori   0x405724            0x4           4   
.text.__fmt_fp            0x405728          0x3b0         944   
.text.CMD_Help            0x405ad8          0x39c         924   
.text.tcp_output          0x405e74          0x38c         908   
.text.ip4_input           0x406200          0x334         820   
.text.__printf_core       0x406534          0x330         816   
.text.ip4_reass           0x406864          0x32c         812   
.text.Shield_ReceiveCha   0x406b90          0x30c         780   
.text.tu_fifo_write_n_a   0x406e9c          0x2b0         688   
.text.udp_input           0x40714c          0x2a4         676   
.text                     0x4073f0          0x2a0         672  App's exec code 
.text.icmp_input          0x407690          0x29c         668   
.text.pvPortMalloc        0x40792c          0x27c         636   
.text.CMD_RtcGet          0x407ba8          0x278         632   
.rodata                   0x407e20          0x26b         619  Read-only const 
.text.xTaskGenericNotif   0x40808c          0x268         616   
.text.ip4_frag            0x4082f4          0x25c         604   
.text.parseCommand        0x408550          0x254         596   
.text.process_set_confi   0x4087a4          0x250         592   
.text.ip_reass_chain_fr   0x4089f4          0x248         584   
.text.dcd_int_handler     0x408c3c          0x244         580   
.text.CMD_OsStat          0x408e80          0x240         576   
.text.xTaskIncrementTic   0x4090c0          0x234         564   
.text.CMD_RtcSet          0x4092f4          0x228         552   
.text.ip4_output_if_src   0x40951c          0x224         548   
.text.tcp_split_unsent_   0x409740          0x224         548   
.text.etharp_query        0x409964          0x220         544   
.text.xTaskResumeAll      0x409b84          0x214         532   
.text.etharp_find_entry   0x409d98          0x214         532   
.text.xQueueGenericSend   0x409fac          0x20c         524   
.text.xQueueSemaphoreTa   0x40a1b8          0x208         520   
.text.tud_rhport_init     0x40a3c0          0x208         520   
.text.mem_malloc          0x40a5c8          0x1f4         500   
.text.netd_open           0x40a7bc          0x1f4         500   
.text.Dmesg_GetLatestN    0x40a9b0          0x1f0         496   
.text.tcp_listen_input    0x40aba0          0x1f0         496   
.text.mem_trim            0x40ad90          0x1e4         484   
.text.dcd_edpt_xfer       0x40af74          0x1e4         484   
.text.xQueueReceive       0x40b158          0x1cc         460   
.text.dcd_edpt_open       0x40b324          0x1cc         460   
.text.prvProcessReceive   0x40b4f0          0x1c8         456   
.text.xTaskRemoveFromEv   0x40b6b8          0x1b4         436   
.text.process_get_descr   0x40b86c          0x1b4         436   
.text.PIO_Initialize      0x40ba20          0x1b0         432   
.text.xPortStartSchedul   0x40bbd0          0x198         408   
.text.etharp_output       0x40bd68          0x190         400   
.text.tcp_close_shutdow   0x40bef8          0x188         392   
.text.tcp_output_segmen   0x40c080          0x184         388   
.text.recv_validate_dat   0x40c204          0x184         388   
.rodata                   0x40c388          0x181         385  Read-only const 
.text.vTaskPriorityDisi   0x40c50c          0x17c         380   
.text.getAutocompletedC   0x40c688          0x17a         378   
.text.xQueueGenericSend   0x40c802          0x178         376   
.text.pbuf_alloc          0x40c97a          0x176         374   
.rodata                   0x40caf0          0x16d         365  Read-only const 
.text.write_entry_inter   0x40cc60          0x16c         364   
.text.notification_xmit   0x40cdcc          0x16c         364   
.text.etharp_update_arp   0x40cf38          0x168         360   
.text.usbd_control_xfer   0x40d0a0          0x168         360   
.text.ethernet_input      0x40d208          0x164         356   
.text.tcp_alloc           0x40d36c          0x15c         348   
.text.xStreamBufferRece   0x40d4c8          0x158         344   
.text.etharp_tmr          0x40d620          0x158         344   
.text.xTaskPriorityDisi   0x40d778          0x154         340   
.text.tcp_enqueue_flags   0x40d8cc          0x150         336   
.text.tu_fifo_read_n_ac   0x40da1c          0x14c         332   
.text.xStreamBufferGene   0x40db68          0x148         328   
.text.vTaskDelete         0x40dcb0          0x148         328   
.text.tcp_abandon         0x40ddf8          0x148         328   
.text.xTaskPriorityInhe   0x40df40          0x140         320   
.text.mem_free            0x40e080          0x138         312   
.text.tcp_zero_window_p   0x40e1b8          0x134         308   
.text.prvAddNewTaskToRe   0x40e2ec          0x130         304   
.text.xTaskGenericNotif   0x40e41c          0x130         304   
.text.onControlInput      0x40e54c          0x128         296   
.text.xQueueGenericRese   0x40e674          0x128         296   
.text.Utils_SoftTime_Up   0x40e79c          0x128         296   
.text.tud_descriptor_st   0x40e8c4          0x128         296   
.text.etharp_input        0x40e9ec          0x128         296   
.text.tcp_listen_with_b   0x40eb14          0x128         296   
.text.onAutocompleteReq   0x40ec3c          0x124         292   
.text.prvInitialiseNewT   0x40ed60          0x124         292   
.text.__fmt_x             0x40ee84          0x122         290   
.text.embeddedCliProces   0x40efa6          0x120         288   
.text.embeddedCliNew      0x40f0c6          0x11e         286   
.text.uxTaskGetSystemSt   0x40f1e4          0x11c         284   
.text.tu_bind_driver_to   0x40f300          0x11c         284   
.text.SystemCLI_Init      0x40f41c          0x118         280   
.text.pbuf_copy           0x40f534          0x118         280   
.text.eTaskGetState       0x40f64c          0x110         272   
.text.vTaskGetInfo        0x40f75c          0x110         272   
.text.EpochToDateTime     0x40f86c          0x110         272   
.text.osThreadNew_WithM   0x40f97c          0x10c         268   
.rodata                   0x40fa88          0x10a         266  Read-only const 
.text.Dummy_Handler       0x40fb92            0x2           2   
.text.vTaskSwitchContex   0x40fb94          0x108         264   
.text.prvAddCurrentTask   0x40fc9c          0x104         260   
.text.etharp_output_to_   0x40fda0          0x104         260   
.text.tcp_bind            0x40fea4          0x104         260   
.text.recv_transfer_dat   0x40ffa8          0x104         260   
.text.dcd_dma_handler     0x4100ac          0x104         260   
.text.tcp_server_recv     0x4101b0          0x100         256   
.text.netd_control_xfer   0x4102b0          0x100         256   
.text.tcp_create_segmen   0x4103b0           0xfc         252   
.text.prvInsertBlockInt   0x4104ac           0xf8         248   
.text.vPortFree           0x4105a4           0xf4         244   
.text.read_entry_at_off   0x410698           0xf4         244   
.text.usbd_edpt_xfer      0x41078c           0xf4         244   
.text.CMD_RtcSetEpoch     0x410880           0xf0         240   
.text.tcp_oos_insert_se   0x410970           0xf0         240   
.text.xmit_setup_next_g   0x410a60           0xec         236   
.text.embeddedCliTokeni   0x410b4c           0xe8         232   
.text.navigateHistory     0x410c34           0xe8         232   
.text.Dmesg_GetLogs       0x410d1c           0xe4         228   
.text.raw_input           0x410e00           0xe4         228   
.text.prvReadBytesFromB   0x410ee4           0xe0         224   
.text.tcp_server_accept   0x410fc4           0xe0         224   
.text.etharp_raw          0x4110a4           0xe0         224   
.text.tcp_process_refus   0x411184           0xe0         224   
.text.tud_control_xfer    0x411264           0xe0         224   
.text.inet_cksum_pseudo   0x411344           0xde         222   
.text.Dummy_App_Func      0x411422            0x2           2   
.rodata.cliStaticBindin   0x411424           0xd8         216   
.text.icmp_send_respons   0x4114fc           0xd8         216   
.text.configuration_res   0x4115d4           0xd8         216   
.text.prvCopyDataToQueu   0x4116ac           0xd4         212   
.text.xTaskCheckForTime   0x411780           0xd4         212   
.text.tcp_timewait_inpu   0x411854           0xd4         212   
.text.prvCreateIdleTask   0x411928           0xd0         208   
.text.usbd_open_edpt_pa   0x4119f8           0xd0         208   
.text.plug_holes          0x411ac8           0xcc         204   
.text.tcp_parseopt        0x411b94           0xcc         204   
.text.historyPut          0x411c60           0xc8         200   
.text.xQueueGenericCrea   0x411d28           0xc8         200   
.text.prvCreateStaticTa   0x411df0           0xc8         200   
.text.tcp_fasttmr         0x411eb8           0xc8         200   
.text.data_stage_xact     0x411f80           0xc8         200   
.rodata                   0x412048           0xc7         199  Read-only const 
.text.printLiveAutocomp   0x412110           0xc4         196   
.text.ip_reass_remove_o   0x4121d4           0xc4         196   
.text.netif_add           0x412298           0xc4         196   
.text.dcd_transmit_pack   0x41235c           0xc4         196   
.text.__pop_int           0x412420           0xc4         196   
.text.tcp_rexmit_rto_pr   0x4124e4           0xc0         192   
.text.pbuf_realloc        0x4125a4           0xbe         190   
.text.tcp_output_alloc_   0x412662           0xbe         190   
.text.ff_push_n           0x412720           0xbe         190   
.text.ff_pull_n           0x4127de           0xbe         190   
.text.Shield_Process      0x41289c           0xbc         188   
.text.onEscapedInput      0x412958           0xbc         188   
.text.ip_reass_free_com   0x412a14           0xbc         188   
.text.sys_timeout_abs     0x412ad0           0xbc         188   
.rodata.ipaddr            0x412b8c            0x4           4   
.text.floor               0x412b90           0xbc         188   
.text.historyRemove       0x412c4c           0xba         186   
.text.lwip_standard_chk   0x412d06           0xba         186   
.text.tu_fifo_peek_n_ac   0x412dc0           0xba         186   
.text.__dummy_init_tls    0x412e7a            0x2           2   
.text.DateTimeToEpoch     0x412e7c           0xb8         184   
.text.pbuf_copy_partial   0x412f34           0xb8         184   
.text.tcp_rexmit          0x412fec           0xb8         184   
.text.tud_network_xmit    0x4130a4           0xb8         184   
.text.netd_xfer_cb        0x41315c           0xb8         184   
.text.prvHeapInit         0x413214           0xb4         180   
.text.evict_oldest_entr   0x4132c8           0xb4         180   
.text.pbuf_add_header_i   0x41337c           0xb4         180   
.text.tcp_write_checks    0x413430           0xb4         180   
.rodata.desc_ms_os_20     0x4134e4           0xb2         178   
.text.pbuf_free           0x413596           0xb2         178   
.text.pbuf_take           0x413648           0xb2         178   
.text.tcp_close_shutdow   0x4136fa           0xb2         178   
.text.UART_RX_Callback    0x4137ac           0xac         172   
.text.App_NetworkTask     0x413858           0xac         172   
.text.tcp_free_acked_se   0x413904           0xac         172   
.text.xQueueGenericCrea   0x4139b0           0xa8         168   
.text.board_usb_get_ser   0x413a58           0xa8         168   
.text.tcp_output_contro   0x413b00           0xa8         168   
.text.onCharInput         0x413ba8           0xa4         164   
.text.prvUnlockQueue      0x413c4c           0xa4         164   
.text.tcp_pbuf_prealloc   0x413cf0           0xa4         164   
.text.tcp_rexmit_fast     0x413d94           0xa4         164   
.text.__fmt_d             0x413e38           0xa4         164   
.text.tcp_send_empty_ac   0x413edc           0xa2         162   
.text.__dummy             0x413f7e            0x2           2   
.text.vQueueAddToRegist   0x413f80           0xa0         160   
.text.tcp_pcb_remove      0x414020           0x9e         158   
.text.CLK_MainClockInit   0x4140c0           0x9c         156   
.text.embeddedCliPrint    0x41415c           0x9c         156   
.text.prvProcessTimerOr   0x4141f8           0x9c         156   
.text.AppRoot_GrowUp      0x414294           0x9c         156   
.text.tcp_kill_prio       0x414330           0x9c         156   
.text.inet_chksum_pbuf    0x4143cc           0x9a         154   
.text.udp_input_local_m   0x414468           0x98         152   
.text.xmit_start_if_pos   0x414500           0x98         152   
.text.UART2_ISR_TX_Hand   0x414598           0x94         148   
.text.Shield_Init         0x41462c           0x94         148   
.text.UART_Driver_Init    0x4146c0           0x94         148   
.text.xTimerCreateTimer   0x414754           0x94         148   
.text.netif_set_addr      0x4147e8           0x94         148   
.text.recv_try_to_start   0x41487c           0x94         148   
.text.osThreadNew         0x414910           0x92         146   
.text.UART2_ISR_RX_Hand   0x4149a4           0x90         144   
.text.vTaskStartSchedul   0x414a34           0x90         144   
.text.vTaskPlaceOnEvent   0x414ac4           0x90         144   
.text.mem_init            0x414b54           0x90         144   
.text.CMD_Dmesg           0x414be4           0x8c         140   
.text.RingBuffer_Put      0x414c70           0x8c         140   
.text.init_lwip           0x414cfc           0x8c         140   
.text.tcp_new_port        0x414d88           0x8c         140   
.text.xmit_insert_requi   0x414e14           0x8c         140   
.text.UART2_InterruptHa   0x414ea0           0x88         136   
.text.vPortValidateInte   0x414f28           0x88         136   
.text.usbd_edpt_open      0x414fb0           0x88         136   
.text.UART_Driver_Write   0x415038           0x86         134   
.text.Reset_Handler       0x4150c0           0x84         132   
.text.osMonitorTask       0x415144           0x84         132   
.text.prvInsertTimerInA   0x4151c8           0x84         132   
.text.ip_reass_enqueue_   0x41524c           0x84         132   
.text.tcp_pcb_purge       0x4152d0           0x84         132   
.text.netd_init           0x415354           0x84         132   
.text.RingBuffer_Get      0x4153d8           0x82         130   
.text.NVIC_Initialize     0x41545c           0x80         128   
.text.TCM_Configure       0x4154dc           0x80         128   
.text.prvCreateTask       0x41555c           0x80         128   
.text.prvInitialiseTask   0x4155dc           0x80         128   
.text.prvCheckForValidL   0x41565c           0x80         128   
.text.tcp_server_init     0x4156dc           0x80         128   
.text.tcp_send_fin        0x41575c           0x80         128   
.text.dcd_connect         0x4157dc           0x80         128   
.text.tusb_rhport_init    0x41585c           0x80         128   
.text.ip4_addr_isbroadc   0x4158dc           0x7e         126   
.text.getTokenPosition    0x41595a           0x7c         124   
.text.Dmesg_Init          0x4159d8           0x7c         124   
.text.tcp_update_rcv_an   0x415a54           0x7c         124   
.text.tcp_netif_ip_addr   0x415ad0           0x7c         124   
.text.ethernet_output     0x415b4c           0x7c         124   
.text.usbd_edpt_stall     0x415bc8           0x7c         124   
.text.usbd_edpt_clear_s   0x415c44           0x7c         124   
.text.__pad               0x415cc0           0x7c         124   
.text.prvReadMessageFro   0x415d3c           0x7a         122   
.text.linkoutput_fn       0x415db6           0x7a         122   
.text.xTaskGenericNotif   0x415e30           0x78         120   
.text.mem_link_valid      0x415ea8           0x78         120   
.text.__cvt_u             0x415f20           0x78         120   
.text.UART2_RX_Thread     0x415f98           0x74         116   
.text.Dmesg_Write         0x41600c           0x74         116   
.text.do_memp_malloc_po   0x416080           0x74         116   
.text.pbuf_remove_heade   0x4160f4           0x74         116   
.text.raw_input_local_m   0x416168           0x74         116   
.text.sys_check_timeout   0x4161dc           0x74         116   
.text.vListInsert         0x416250           0x72         114   
.text.__fmt_o             0x4162c2           0x72         114   
.text.UART2_Initialize    0x416334           0x70         112   
.text.xQueueTakeMutexRe   0x4163a4           0x70         112   
.text.tud_vendor_contro   0x416414           0x70         112   
.text.inet_chksum_pseud   0x416484           0x70         112   
.text.ip4_route           0x4164f4           0x70         112   
.text.tcp_kill_state      0x416564           0x70         112   
.text.__pop_ptr           0x4165d4           0x70         112   
.text.CLK_MasterClockIn   0x416644           0x6c         108   
.text.PMC_EnablePeriphe   0x4166b0           0x6c         108   
.rodata                   0x41671c           0x6c         108  Read-only const 
.text.moveCursor          0x416788           0x6c         108   
.text.xQueueGiveMutexRe   0x4167f4           0x6c         108   
.text.prvInitialiseNewS   0x416860           0x6c         108   
.text.vTaskDelay          0x4168cc           0x6c         108   
.text.tcp_recved          0x416938           0x6c         108   
.text.tcp_get_next_optb   0x4169a4           0x6c         108   
.text.sys_mutex_new       0x416a10           0x6c         108   
.text.clearCurrentLine    0x416a7c           0x6a         106   
.text.prvListTasksWithi   0x416ae6           0x6a         106   
.text.tcp_rst             0x416b50           0x6a         106   
.text.pxPortInitialiseS   0x416bbc           0x68         104   
.text.vPortEnterCritica   0x416c24           0x68         104   
.rodata.netmask           0x416c8c            0x4           4   
.text.PendSV_Handler      0x416c90           0x68         104   
.text.vQueueWaitForMess   0x416cf8           0x68         104   
.text.EX_TC3_CH0_Handle   0x416d60           0x68         104   
.text.memp_init_pool      0x416dc8           0x68         104   
.text.pbuf_alloced_cust   0x416e30           0x68         104   
.text.RingBuffer_Create   0x416e98           0x66         102   
.text.etharp_free_entry   0x416f00           0x64         100   
.text.lwip_cyclic_timer   0x416f64           0x64         100   
.text.embeddedCliRequir   0x416fc8           0x62          98   
.text.prvDeleteTCB        0x41702a           0x62          98   
.rodata                   0x41708c           0x61          97  Read-only const 
.text.prvTaskExitError    0x4170f0           0x60          96   
.text.prvProcessExpired   0x417150           0x60          96   
.text.isLeapYear          0x4171b0           0x60          96   
.text.raw_netif_ip_addr   0x417210           0x60          96   
.text.tcp_kill_timewait   0x417270           0x60          96   
.text.tcp_input_delayed   0x4172d0           0x60          96   
.text.tcp_keepalive       0x417330           0x60          96   
.text.udp_netif_ip_addr   0x417390           0x60          96   
.text.tud_network_can_x   0x4173f0           0x60          96   
.text.__strchrnul         0x417450           0x60          96   
.text.vsnprintf           0x4174b0           0x60          96   
.rodata.ncm_configurati   0x417510           0x5e          94   
.text.osKernelStart       0x417570           0x5c          92   
.text.prvCheckTasksWait   0x4175cc           0x5c          92   
.text.tud_network_recv_   0x417628           0x5c          92   
.text.tcpip_try_callbac   0x417684           0x5c          92   
.text.netif_issue_repor   0x4176e0           0x5c          92   
.text.xmit_get_free_ntb   0x41773c           0x5c          92   
.text.usbd_edpt_busy      0x417798           0x5c          92   
.text.usbd_edpt_stalled   0x4177f4           0x5c          92   
.text.dcd_edpt0_status_   0x417850           0x5c          92   
.text.__libc_start_init   0x4178ac           0x5c          92   
.text.embeddedCliGetTok   0x417908           0x5a          90   
.text.UART_Driver_Start   0x417962           0x5a          90   
.text.netif_do_set_ipad   0x4179bc           0x5a          90   
.text.pbuf_cat            0x417a16           0x5a          90   
.text.tcp_output_alloc_   0x417a70           0x5a          90   
.text.osThreadFeed        0x417acc           0x58          88   
.text.vPortExitCritical   0x417b24           0x58          88   
.text.Utils_GetWorkingT   0x417b7c           0x58          88   
.text.ip_reass_tmr        0x417bd4           0x58          88   
.text.tcp_eff_send_mss_   0x417c2c           0x58          88   
.text.xmit_requested_da   0x417c84           0x58          88   
.text.__shgetc            0x417cdc           0x58          88   
.text.__fmt_s             0x417d34           0x58          88   
.text.__fmt_u             0x417d8c           0x56          86   
.text.__NVIC_SetPriorit   0x417de4           0x54          84   
.text.embeddedCliDefaul   0x417e38           0x54          84   
.text.fifoBufPush         0x417e8c           0x54          84   
.text.uxListRemove        0x417ee0           0x54          84   
.text.Utils_SoftTime_In   0x417f34           0x54          84   
.text.CLI_Handle_Thread   0x417f88           0x54          84   
.text.App_LogTask         0x417fdc           0x54          84   
.text.usbnet_netif_link   0x418030           0x54          84   
.text.pbuf_pool_is_empt   0x418084           0x54          84   
.text.pbuf_init_alloced   0x4180d8           0x54          84   
.text.xmit_put_ntb_into   0x41812c           0x54          84   
.text.recv_get_free_ntb   0x418180           0x54          84   
.text.tud_network_recv_   0x4181d4           0x54          84   
.rodata                   0x418228           0x53          83  Read-only const 
.text.UART_TX_Callback    0x41827c           0x52          82   
.text.ip4_output_if       0x4182ce           0x52          82   
.text.strtox              0x418320           0x52          82   
.text.CLK_UTMIPLLInitia   0x418374           0x50          80   
.text.BootManager_Syste   0x4183c4           0x50          80   
.text.vApplicationStack   0x418414           0x50          80   
.text.fifoBufPop          0x418464           0x50          80   
.text.App_AliveTask       0x4184b4           0x50          80   
.text.ip4_input_accept    0x418504           0x50          80   
.text.memp_init           0x418554           0x50          80   
.text.tcp_recv_null       0x4185a4           0x50          80   
.text.tud_network_link_   0x4185f4           0x50          80   
.text.printAlignedColum   0x418644           0x4c          76   
.text.UART_Driver_Write   0x418690           0x4c          76   
.text.prvCopyDataFromQu   0x4186dc           0x4c          76   
.text.vTaskPlaceOnEvent   0x418728           0x4c          76   
.text.prvSwitchTimerLis   0x418774           0x4c          76   
.text.netif_init_cb       0x4187c0           0x4c          76   
.text.netif_set_link_up   0x41880c           0x4c          76   
.text.pbuf_free_ooseq     0x418858           0x4c          76   
.text.tcp_handle_closep   0x4188a4           0x4c          76   
.text.advance_index       0x4188f0           0x4c          76   
.text.dcd_edpt_stall      0x41893c           0x4c          76   
.text.dcd_edpt_clear_st   0x418988           0x4c          76   
.text.__toread            0x4189d4           0x4a          74   
.text.__NVIC_SetPriorit   0x418a20           0x48          72   
.text.BootManager_Syste   0x418a68           0x48          72   
.text.fnv1a32             0x418ab0           0x48          72   
.text.findCategoryIndex   0x418af8           0x48          72   
.text.UART_Driver_Get     0x418b40           0x48          72   
.text.SysTick_Handler     0x418b88           0x48          72   
.text.vListInsertEnd      0x418bd0           0x48          72   
.text.xTaskCreateStatic   0x418c18           0x48          72   
.text.prvGetNextExpireT   0x418c60           0x48          72   
.text.xlog_Init           0x418ca8           0x48          72   
.text.tcpip_tcp_timer     0x418cf0           0x48          72   
.text.recv_put_ntb_into   0x418d38           0x48          72   
.text.__NVIC_DisableIRQ   0x418d80           0x48          72   
.text.atoi                0x418dc8           0x48          72   
.text.embeddedCliReceiv   0x418e10           0x46          70   
.text.prvInitialiseNewQ   0x418e56           0x46          70   
.text.xTaskCreate         0x418e9c           0x46          70   
.text.SYS_Initialize      0x418ee4           0x44          68   
.text.onUnknownCommand    0x418f28           0x44          68   
.text.tcp_server_err      0x418f6c           0x44          68   
.text.netif_get_by_inde   0x418fb0           0x44          68   
.text.tcp_netif_ip_addr   0x418ff4           0x44          68   
.text.sys_timeouts_init   0x419038           0x44          68   
.text.xmit_put_ntb_into   0x41907c           0x44          68   
.text.recv_put_ntb_into   0x4190c0           0x44          68   
.text.sys_mbox_trypost    0x419104           0x44          68   
.text.writeToOutput       0x419148           0x42          66   
.text.fifoBufAvailable    0x41918a           0x42          66   
.text.UART_Driver_ReadB   0x4191cc           0x42          66   
.text.prvReloadTimer      0x41920e           0x42          66   
.text.pbuf_alloc_refere   0x419250           0x42          66   
.text.pbuf_header_impl    0x419292           0x42          66   
.text                     0x4192d4           0x40          64  App's exec code 
.text.SYSTICK_TimerInit   0x419314           0x40          64   
.text.TC3_CH0_Interrupt   0x419354           0x40          64   
.text.hash_equal          0x419394           0x40          64   
.text.printBindingHelp    0x4193d4           0x40          64   
.text.isControlChar       0x419414           0x40          64   
.text.vListInitialise     0x419454           0x40          64   
.text.uxQueueMessagesWa   0x419494           0x40          64   
.text.prvBytesInBuffer    0x4194d4           0x40          64   
.text.prvSampleTimeNow    0x419514           0x40          64   
.text.Utils_SetEpoch      0x419554           0x40          64   
.text.get_available_spa   0x419594           0x40          64   
.text.etharp_request_ds   0x4195d4           0x40          64   
.text.do_memp_free_pool   0x419614           0x40          64   
.text.pbuf_clone          0x419654           0x40          64   
.text.tcp_timer_needed    0x419694           0x40          64   
.text.correct_read_inde   0x4196d4           0x40          64   
.text.tud_control_statu   0x419714           0x40          64   
.text.dcd_set_address     0x419754           0x40          64   
.text.memmove             0x419794           0x40          64   
.text.stpncpy             0x4197d4           0x40          64   
.text.netif_do_set_netm   0x419814           0x3e          62   
.text.netif_do_set_gw     0x419852           0x3e          62   
.text.CLK_ProgrammableC   0x419890           0x3c          60   
.text.CLOCK_Initialize    0x4198cc           0x3c          60   
.text.__NVIC_EnableIRQ    0x419908           0x3c          60   
.text.xTaskGetScheduler   0x419944           0x3c          60   
.text.getMaxDays          0x419980           0x3c          60   
.text.ip_reass_dequeue_   0x4199bc           0x3c          60   
.text.tcp_listen_closed   0x4199f8           0x3c          60   
.text.tcp_close           0x419a34           0x3c          60   
.text.status_stage_xact   0x419a70           0x3c          60   
.text.__NVIC_EnableIRQ    0x419aac           0x3c          60   
.text.tcp_remove_listen   0x419ae8           0x3a          58   
.text.historyGet          0x419b22           0x38          56   
.text.vPortSetupTimerIn   0x419b5c           0x38          56   
.text.prvResetNextTaskU   0x419b94           0x38          56   
.text.App_USBTask         0x419bcc           0x38          56   
.text.memp_free           0x419c04           0x38          56   
.text.tcp_seg_copy        0x419c3c           0x38          56   
.text.tcp_route           0x419c74           0x38          56   
.text.__fmt_state         0x419cac           0x38          56   
.text.embeddedCliGetTok   0x419ce4           0x36          54   
.text.embeddedCliGetTok   0x419d1a           0x36          54   
.text.xQueueCreateMutex   0x419d50           0x36          54   
.text.prvTaskCheckFreeS   0x419d86           0x36          54   
.text.TC3_CH0_TimerInit   0x419dbc           0x34          52   
.text.CMD_ClearCLI        0x419df0           0x34          52   
.text.prvInitialiseMute   0x419e24           0x34          52   
.text.vApplicationGetId   0x419e58           0x34          52   
.text.vApplicationGetTi   0x419e8c           0x34          52   
.text.board_get_unique_   0x419ec0           0x34          52   
.text.memp_malloc         0x419ef4           0x34          52   
.text.usbd_control_set_   0x419f28           0x34          52   
.text.get_speed           0x419f5c           0x34          52   
.text.__pic32c_data_ini   0x419f90           0x34          52   
.text.lwip_htonl          0x419fc4           0x32          50   
.text.lwip_init           0x419ff6           0x32          50   
.text.tcp_output_fill_o   0x41a028           0x32          50   
.text.TCM_Disable         0x41a05c           0x30          48   
.text.vApplicationMallo   0x41a08c           0x30          48   
.text.UART_Driver_SendS   0x41a0bc           0x30          48   
.text.xQueueCreateMutex   0x41a0ec           0x30          48   
.text.prvGetDisinheritP   0x41a11c           0x30          48   
.text.prvIsQueueFull      0x41a14c           0x30          48   
.text.prvIdleTask         0x41a17c           0x30          48   
.text.pvTaskIncrementMu   0x41a1ac           0x30          48   
.rodata.memp_pools        0x41a1dc           0x30          48   
.text.tcp_seg_free        0x41a20c           0x30          48   
.text.tcp_next_iss        0x41a23c           0x30          48   
.text.tcp_rexmit_rto_co   0x41a26c           0x30          48   
.text                     0x41a29c           0x30          48  App's exec code 
.text.Shield_WriteStrin   0x41a2cc           0x2e          46   
.text.isDisplayableChar   0x41a2fa           0x2e          46   
.text.pbuf_clen           0x41a328           0x2e          46   
.text.pbuf_ref            0x41a356           0x2e          46   
.text.tcp_accept          0x41a384           0x2e          46   
.text.invoke_class_cont   0x41a3b2           0x2e          46   
.text.CLK_PLLAInitializ   0x41a3e0           0x2c          44   
.text.verify_password     0x41a40c           0x2c          44   
.text.__NVIC_SystemRese   0x41a438           0x2c          44   
.text.writeCharToCli_Ne   0x41a464           0x2c          44   
.text.prvPortStartFirst   0x41a490           0x2c          44   
.text.prvIsQueueEmpty     0x41a4bc           0x2c          44   
.text.vTaskInternalSetT   0x41a4e8           0x2c          44   
.text.Utils_GetRTC        0x41a514           0x2c          44   
.text.Utils_SetRTC        0x41a540           0x2c          44   
.text.App_CLITask         0x41a56c           0x2c          44   
.text.Network_CLI_Tx_Wr   0x41a598           0x2c          44   
.text.lwip_htons          0x41a5c4           0x2c          44   
.text.ip_chksum_pseudo    0x41a5f0           0x2c          44   
.text.ipfrag_free_pbuf_   0x41a61c           0x2c          44   
.text.tcp_tmr             0x41a648           0x2c          44   
.text.tcp_poll            0x41a674           0x2c          44   
.text.tud_network_xmit_   0x41a6a0           0x2a          42   
.text.netif_do_ip_addr_   0x41a6ca           0x2a          42   
.text.tcp_segs_free       0x41a6f4           0x2a          42   
.text.sys_timeout         0x41a71e           0x2a          42   
.text.__pop_float         0x41a748           0x2a          42   
.text.SYSTICK_TimerCall   0x41a774           0x28          40   
.text.TC3_CH0_TimerCall   0x41a79c           0x28          40   
.text.UART2_WriteCallba   0x41a7c4           0x28          40   
.text.UART2_ReadCallbac   0x41a7ec           0x28          40   
.text.FPU_Enable          0x41a814           0x28          40   
.text.osRootTask          0x41a83c           0x28          40   
.text.verify_user_passw   0x41a864           0x28          40   
.text.writeCharToCli_UA   0x41a88c           0x28          40   
.rodata.daysInMonth.0     0x41a8b4            0xc          12   
.text.SVCall_Handler      0x41a8c0           0x28          40   
.text.is_buffer_corrupt   0x41a8e8           0x28          40   
.text.tud_descriptor_co   0x41a910           0x28          40   
.text.tcp_free_ooseq      0x41a938           0x28          40   
.text.xmit_get_next_rea   0x41a960           0x28          40   
.text.recv_get_next_rea   0x41a988           0x28          40   
.text.__uflow             0x41a9b0           0x28          40   
.text.__string_out        0x41a9d8           0x28          40   
.text.SYSTICK_TimerStar   0x41aa00           0x24          36   
.text.Shield_ResetTimer   0x41aa24           0x24          36   
.text.prvTimerTask        0x41aa48           0x24          36   
.text.writeChar_auth_UA   0x41aa6c           0x24          36   
.text.inet_chksum         0x41aa90           0x24          36   
.text.etharp_request      0x41aab4           0x24          36   
.text.ptr_to_mem          0x41aad8           0x24          36   
.text.mem_to_ptr          0x41aafc           0x24          36   
.text.pbuf_header_force   0x41ab20           0x24          36   
.text.tcp_recv            0x41ab44           0x24          36   
.text.tcp_err             0x41ab68           0x24          36   
.text.tcp_output_segmen   0x41ab8c           0x24          36   
.rodata._usbd_driver      0x41abb0           0x24          36   
.text.tud_suspended       0x41abd4           0x24          36   
.text.netif_set_link_ca   0x41abf8           0x22          34   
.text.tcp_listen_with_b   0x41ac1a           0x22          34   
.text.tcp_arg             0x41ac3c           0x22          34   
.text.tcp_rexmit_rto      0x41ac5e           0x22          34   
.text.memcmp              0x41ac80           0x22          34   
.rodata                   0x41aca4           0x21          33  Read-only const 
.rodata.desc_bos          0x41acc8           0x21          33   
.text.CLK_USBClockIniti   0x41acec           0x20          32   
.text.osRegisterRootIni   0x41ad0c           0x20          32   
.text.Cli_Net_Register_   0x41ad2c           0x20          32   
.text.xTaskGetTickCount   0x41ad4c           0x20          32   
.text.xTaskGetCurrentTa   0x41ad6c           0x20          32   
.text.ip4_output_fn       0x41ad8c           0x20          32   
.text.icmp_dest_unreach   0x41adac           0x20          32   
.text.icmp_time_exceede   0x41adcc           0x20          32   
.text.netif_set_default   0x41adec           0x20          32   
.text.tcp_accept_null     0x41ae0c           0x20          32   
.text.tcp_trigger_input   0x41ae2c           0x20          32   
.text.tud_network_recv_   0x41ae4c           0x20          32   
.text.tud_mounted         0x41ae6c           0x20          32   
.text.tud_inited          0x41ae8c           0x20          32   
.text.usbd_control_set_   0x41aeac           0x20          32   
.text.sys_mutex_lock      0x41aecc           0x20          32   
.rodata.str1.1            0x41aeec           0x1f          31   
.text.pbuf_add_header     0x41af0c           0x1e          30   
.text.usbd_reset          0x41af2a           0x1e          30   
.text.dcd_init            0x41af48           0x1e          30   
.text.__dinit_copy        0x41af66           0x1e          30   
.rodata                   0x41af84           0x1d          29  Read-only const 
.text.EFC_Initialize      0x41afa4           0x1c          28   
.text.vTaskSuspendAll     0x41afc0           0x1c          28   
.text.Utils_GetEpoch      0x41afdc           0x1c          28   
.text.TickTimer_IRQHand   0x41aff8           0x1c          28   
.text.netif_null_output   0x41b014           0x1c          28   
.rodata.ntb_parameters    0x41b030           0x1c          28   
.text.tud_event_hook_cb   0x41b04c           0x1c          28   
.text.usbd_app_driver_g   0x41b068           0x1c          28   
.text.dcd_sof_enable      0x41b084           0x1c          28   
.text.sys_mutex_unlock    0x41b0a0           0x1c          28   
.text.vfprintf            0x41b0bc           0x1c          28   
.text.Shield_GetState     0x41b0d8           0x1a          26   
.text.vListInitialiseIt   0x41b0f2           0x1a          26   
.text.snprintf            0x41b10c           0x1a          26   
.text.sprintf             0x41b126           0x1a          26   
.text.TC3_CH0_TimerStar   0x41b140           0x18          24   
.text.get_UART2_CliPoin   0x41b158           0x18          24   
.text.get_Net_CliPointe   0x41b170           0x18          24   
.text.vPortEnableVFP      0x41b188           0x18          24   
.text.uxTaskGetNumberOf   0x41b1a0           0x18          24   
.text.vTaskMissedYield    0x41b1b8           0x18          24   
.text.Utils_GetTick       0x41b1d0           0x18          24   
.text.App_Start           0x41b1e8           0x18          24   
.text.ip_frag_free_pbuf   0x41b200           0x18          24   
.text.tcp_free            0x41b218           0x18          24   
.text.tcp_free_listen     0x41b230           0x18          24   
.text.tcp_abort           0x41b248           0x18          24   
.rodata.lwip_cyclic_tim   0x41b260           0x18          24   
.text.tud_descriptor_ot   0x41b278           0x18          24   
.text.tud_speed_get       0x41b290           0x18          24   
.text.usbd_control_rese   0x41b2a8           0x18          24   
.text.dcd_int_enable      0x41b2c0           0x18          24   
.text.dcd_int_disable     0x41b2d8           0x18          24   
.text.memcpy              0x41b2f0           0x18          24   
.text.strlen              0x41b308           0x18          24   
.text.__shlim             0x41b320           0x18          24   
.rodata                   0x41b338           0x17          23  Read-only const 
.text.osDelay             0x41b350           0x16          22   
.text.netd_reset          0x41b366           0x16          22   
.text.tud_suspend_cb      0x41b37c           0x16          22   
.text.dcd_edpt_close_al   0x41b392           0x16          22   
.text.strcmp              0x41b3a8           0x16          22   
.rodata                   0x41b3be           0x16          22  Read-only const 
.rodata                   0x41b3d4           0x15          21  Read-only const 
.text.getCliStaticBindi   0x41b3ec           0x14          20   
.text.EX_Systick_Handle   0x41b400           0x14          20   
.text.EX_SysTick_Handle   0x41b414           0x14          20   
.text.EX_TC3_CH0_Handle   0x41b428           0x14          20   
.text.main                0x41b43c           0x14          20   
.rodata.cli_attr          0x41b450           0x14          20   
.rodata.alive_attr        0x41b464           0x14          20   
.rodata.log_attr          0x41b478           0x14          20   
.rodata.network_attr      0x41b48c           0x14          20   
.rodata.usb_attr          0x41b4a0           0x14          20   
.text.tud_descriptor_de   0x41b4b4           0x14          20   
.text.tud_descriptor_bo   0x41b4c8           0x14          20   
.text.pbuf_free_ooseq_c   0x41b4dc           0x14          20   
.text.tud_sof_cb          0x41b4f0           0x14          20   
.text.sys_arch_unprotec   0x41b504           0x14          20   
.rodata                   0x41b518           0x14          20  Read-only const 
.text.memset              0x41b52c           0x14          20   
.text.strchr              0x41b540           0x14          20   
.text.stpcpy              0x41b554           0x14          20   
.text.strtoul             0x41b568           0x14          20   
.rodata.desc_device       0x41b57c           0x12          18   
.text.__dinit_clear       0x41b58e           0x12          18   
.text.CMD_Reset           0x41b5a0           0x10          16   
.text.getCliStaticBindi   0x41b5b0           0x10          16   
.text.ip_frag_alloc_pbu   0x41b5c0           0x10          16   
.rodata.memp_RAW_PCB      0x41b5d0           0x10          16   
.rodata.memp_UDP_PCB      0x41b5e0           0x10          16   
.rodata.memp_TCP_PCB      0x41b5f0           0x10          16   
.rodata.memp_TCP_PCB_LI   0x41b600           0x10          16   
.rodata.memp_TCP_SEG      0x41b610           0x10          16   
.rodata.memp_REASSDATA    0x41b620           0x10          16   
.rodata.memp_FRAG_PBUF    0x41b630           0x10          16   
.rodata.memp_TCPIP_MSG_   0x41b640           0x10          16   
.rodata.memp_TCPIP_MSG_   0x41b650           0x10          16   
.rodata.memp_SYS_TIMEOU   0x41b660           0x10          16   
.rodata.memp_PBUF         0x41b670           0x10          16   
.rodata.memp_PBUF_POOL    0x41b680           0x10          16   
.rodata.tcp_pcb_lists     0x41b690           0x10          16   
.text.tcp_new             0x41b6a0           0x10          16   
.text.netd_deinit         0x41b6b0           0x10          16   
.text.tud_descriptor_de   0x41b6c0           0x10          16   
.rodata                   0x41b6d0            0xf          15  Read-only const 
.text.USBHS_Handler       0x41b6e0            0xe          14   
.text.AliveTimeoutCallb   0x41b6ee            0xe          14   
.text.CLITimeoutCallbac   0x41b6fc            0xe          14   
.rodata                   0x41b70c            0xe          14  Read-only const 
.text.netif_init          0x41b71a            0xe          14   
.text.stats_init          0x41b728            0xe          14   
.text.tcp_init            0x41b736            0xe          14   
.text.udp_init            0x41b744            0xe          14   
.text.tud_mount_cb        0x41b752            0xe          14   
.text.tud_umount_cb       0x41b760            0xe          14   
.text.tud_resume_cb       0x41b76e            0xe          14   
.text.sys_init            0x41b77c            0xe          14   
.text.sys_now             0x41b78a            0xe          14   
.text.sys_arch_protect    0x41b798            0xe          14   
.text.toupper             0x41b7a6            0xe          14   
.text.tolower             0x41b7b4            0xe          14   
.rodata                   0x41b7c4            0xd          13  Read-only const 
.rodata.tcp_backoff       0x41b7d4            0xd          13   
.text.strcpy              0x41b7e2            0xc          12   
.text.strncpy             0x41b7ee            0xc          12   
.text.vsprintf            0x41b7fa            0xc          12   
.rodata                   0x41b808            0xb          11  Read-only const 
.rodata                   0x41b814            0x9           9  Read-only const 
.rodata                   0x41b820            0x8           8  Read-only const 
.rodata.tcp_persist_bac   0x41b828            0x7           7   
.rodata.ep0_desc          0x41b830            0x7           7   
.text.NonMaskableInt_Ha   0x41b838            0x6           6   
.text.HardFault_Handler   0x41b83e            0x6           6   
.text.DebugMonitor_Hand   0x41b844            0x6           6   
.text.MemoryManagement_   0x41b84a            0x6           6   
.text.BusFault_Handler    0x41b850            0x6           6   
.text.UsageFault_Handle   0x41b856            0x6           6   
.rodata.ethbroadcast      0x41b85c            0x6           6   
.rodata.ethzero           0x41b864            0x6           6   
.rodata.gateway           0x41b86c            0x4           4   
.rodata.ip_addr_any       0x41b870            0x4           4   
.text.__dummy_decompres   0x41b874            0x4           4   
.text                     0x41b878            0x4           4  App's exec code 
.rodata.__compound_lite   0x41b87c            0x2           2   
      Total ROM used  :     0x1b828      112680  5.4% of 0x200000
        --------------------------------------------------------------------------
         Total Program Memory used  :     0x1b828      112680  5.4% of 0x200000
        --------------------------------------------------------------------------


RAM Data-Memory Usage
section                    address  length [bytes]      (dec)  Description
-------                 ----------  -------------------------  -----------
.bss.ucHeap             0x20400000        0x32000      204800   
.bss.memp_memory_PBUF_P 0x20432000         0xbf83       49027   
.bss.monitor_count      0x2043df83            0x1           1   
.bss.ncm_epbuf          0x2043df84         0x17a8        6056   
.bss.ucLogStorage       0x2043f72c         0x1000        4096   
.bss.uart2_cliStaticBuf 0x2044072c          0xc00        3072   
.bss.net_cliStaticBuffe 0x2044132c          0xc00        3072   
.bss.root_stack         0x20441f2c          0x800        2048   
.bss.ram_heap           0x2044272c          0x653        1619   
.bss.cliIsReady         0x20442d7f            0x1           1   
.bss.monitor_stack      0x20442d80          0x400        1024   
.bss.uart2_rx_data      0x20443180          0x400        1024   
.bss.uart2_tx_data      0x20443580          0x400        1024   
.bss.uxTimerTaskStack.0 0x20443980          0x400        1024   
.bss.uxIdleTaskStack.2  0x20443d80          0x200         512   
.bss.memp_memory_FRAG_P 0x20443f80          0x16b         363   
.bss.ucMaxSysCallPriori 0x204440eb            0x1           1   
.bss.memp_memory_TCP_PC 0x204440ec          0x13b         315   
.bss.toggleState        0x20444227            0x1           1   
.bss.memp_memory_TCP_SE 0x20444228          0x103         259   
.bss.counter.0          0x2044432b            0x1           1   
.bss.memp_memory_PBUF_b 0x2044432c          0x103         259   
.bss.initialized        0x2044442f            0x1           1   
.bss.monitor_list       0x20444430          0x100         256   
.bss.dmesg_buffer       0x20444530          0x100         256   
.bss.lwip_stats         0x20444630           0xf8         248   
.bss.arp_table          0x20444728           0xf0         240   
.bss._usbd_qdef_buf     0x20444818           0xc0         192   
.bss.memp_memory_REASSD 0x204448d8           0xa3         163   
.bss.etharp_cached_entr 0x2044497b            0x1           1   
.bss.xfer_status        0x2044497c           0xa0         160   
.bss.memp_memory_UDP_PC 0x20444a1c           0x83         131   
.bss.netif_num          0x20444a9f            0x1           1   
.bss.memp_memory_TCPIP_ 0x20444aa0           0x83         131   
.bss.pbuf_free_ooseq_pe 0x20444b23            0x1           1   
.bss.memp_memory_TCPIP_ 0x20444b24           0x83         131   
.bss.tcp_active_pcbs_ch 0x20444ba7            0x1           1   
.bss.memp_memory_RAW_PC 0x20444ba8           0x73         115   
.bss.tcp_timer          0x20444c1b            0x1           1   
.bss.pxReadyTasksLists  0x20444c1c           0x64         100   
.bss.root_tcb           0x20444c80           0x5c          92   
.bss.monitor_tcb        0x20444cdc           0x5c          92   
.bss.xIdleTaskTCB.3     0x20444d38           0x5c          92   
.bss.xTimerTaskTCB.1    0x20444d94           0x5c          92   
.bss.auth_uart          0x20444df0           0x5c          92   
.bss.auth_net           0x20444e4c           0x5c          92   
.bss.ucStaticTimerQueue 0x20444ea8           0x50          80   
.bss.xStaticTimerQueue. 0x20444ef8           0x50          80   
.bss._ubsd_mutexdef     0x20444f48           0x50          80   
.bss                    0x20444f98           0x50          80  Uninitialized data 
.bss._desc_str          0x20444fe8           0x42          66   
.bss.ip_id              0x2044502a            0x2           2   
.bss.xQueueRegistry     0x2044502c           0x40          64   
.bss._ctrl_epbuf        0x2044506c           0x40          64   
.bss._usbd_dev          0x204450ac           0x3f          63   
.bss.tcp_timer_ctr      0x204450eb            0x1           1   
.bss.ncm_interface      0x204450ec           0x38          56   
.bss.memp_memory_SYS_TI 0x20445124           0x33          51   
.bss.flags              0x20445157            0x1           1   
.bss.uart2Obj           0x20445158           0x30          48   
.bss.netif_data         0x20445188           0x30          48   
.bss.xStreamBufferStruc 0x204451b8           0x28          40   
.bss.memp_memory_TCP_PC 0x204451e0           0x1f          31   
.bss.recv_flags         0x204451ff            0x1           1   
.bss                    0x20445200           0x1c          28  Uninitialized data 
.bss.defaultConfig      0x2044521c           0x1c          28   
.bss.ip_data            0x20445238           0x18          24   
.bss.xDelayedTaskList1  0x20445250           0x14          20   
.bss.xDelayedTaskList2  0x20445264           0x14          20   
.bss.xPendingReadyList  0x20445278           0x14          20   
.bss.xTasksWaitingTermi 0x2044528c           0x14          20   
.bss.xSuspendedTaskList 0x204452a0           0x14          20   
.bss.xActiveTimerList1  0x204452b4           0x14          20   
.bss.xActiveTimerList2  0x204452c8           0x14          20   
.bss._ctrl_xfer         0x204452dc           0x14          20   
.bss.inseg              0x204452f0           0x10          16   
.bss.systick            0x20445300            0xc          12   
.bss.memp_stats_RAW_PCB 0x2044530c            0xa          10   
.bss.ip_reass_pbufcount 0x20445316            0x2           2   
.bss.memp_stats_UDP_PCB 0x20445318            0xa          10   
.bss.tcphdr_optlen      0x20445322            0x2           2   
.bss.memp_stats_TCP_PCB 0x20445324            0xa          10   
.bss.tcphdr_opt1len     0x2044532e            0x2           2   
.bss.memp_stats_TCP_PCB 0x20445330            0xa          10   
.bss.tcp_optidx         0x2044533a            0x2           2   
.bss.memp_stats_TCP_SEG 0x2044533c            0xa          10   
.bss.recv_acked         0x20445346            0x2           2   
.bss.memp_stats_REASSDA 0x20445348            0xa          10   
.bss.tcplen             0x20445352            0x2           2   
.bss.memp_stats_FRAG_PB 0x20445354            0xa          10   
.bss._usbd_queued_setup 0x2044535e            0x1           1   
.bss._app_driver_count  0x2044535f            0x1           1   
.bss.memp_stats_TCPIP_M 0x20445360            0xa          10   
.bss.ctrl_dir.0         0x2044536a            0x1           1   
.data._usbd_rhport      0x2044536b            0x1           1   
.bss.memp_stats_TCPIP_M 0x2044536c            0xa          10   
.data.tcp_port          0x20445376            0x2           2   
.bss.memp_stats_SYS_TIM 0x20445378            0xa          10   
.bss.memp_stats_PBUF    0x20445384            0xa          10   
.bss.memp_stats_PBUF_PO 0x20445390            0xa          10   
.bss.TC3_CH0_CallbackOb 0x2044539c            0x8           8   
.bss.xStart             0x204453a4            0x8           8   
.bss.s_WorkingTimeClock 0x204453ac            0x8           8   
.bss.gpnvmReg.0         0x204453b4            0x4           4   
.bss.cmd.1              0x204453b8            0x4           4   
.bss.i.1                0x204453bc            0x4           4   
.bss.g_root_init_callba 0x204453c0            0x4           4   
.bss.pf_Net_WriteChar   0x204453c4            0x4           4   
.bss.cli_uart2          0x204453c8            0x4           4   
.bss.cli_net            0x204453cc            0x4           4   
.bss.ulMaxPRIGROUPValue 0x204453d0            0x4           4   
.bss.pxEnd              0x204453d4            0x4           4   
.bss.xFreeBytesRemainin 0x204453d8            0x4           4   
.bss.xMinimumEverFreeBy 0x204453dc            0x4           4   
.bss.xNumberOfSuccessfu 0x204453e0            0x4           4   
.bss.xNumberOfSuccessfu 0x204453e4            0x4           4   
.bss.pxCurrentTCB       0x204453e8            0x4           4   
.bss.pxDelayedTaskList  0x204453ec            0x4           4   
.bss.pxOverflowDelayedT 0x204453f0            0x4           4   
.bss.uxDeletedTasksWait 0x204453f4            0x4           4   
.bss.uxCurrentNumberOfT 0x204453f8            0x4           4   
.bss.xTickCount         0x204453fc            0x4           4   
.bss.uxTopReadyPriority 0x20445400            0x4           4   
.bss.xSchedulerRunning  0x20445404            0x4           4   
.bss.xPendedTicks       0x20445408            0x4           4   
.bss.xYieldPendings     0x2044540c            0x4           4   
.bss.xNumOfOverflows    0x20445410            0x4           4   
.bss.uxTaskNumber       0x20445414            0x4           4   
.bss.xNextTaskUnblockTi 0x20445418            0x4           4   
.bss.xIdleTaskHandles   0x2044541c            0x4           4   
.bss.uxSchedulerSuspend 0x20445420            0x4           4   
.bss.pxCurrentTimerList 0x20445424            0x4           4   
.bss.pxOverflowTimerLis 0x20445428            0x4           4   
.bss.xTimerQueue        0x2044542c            0x4           4   
.bss.xTimerTaskHandle   0x20445430            0x4           4   
.bss.xLastTime.2        0x20445434            0x4           4   
.bss.LL_Tick            0x20445438            0x4           4   
.bss.tick               0x2044543c            0x4           4   
.bss.write_offset       0x20445440            0x4           4   
.bss.read_offset        0x20445444            0x4           4   
.bss.log_count          0x20445448            0x4           4   
.bss.total_writes       0x2044544c            0x4           4   
.bss.dropped_messages   0x20445450            0x4           4   
.bss.max_entries_reache 0x20445454            0x4           4   
.bss.xLogMutex          0x20445458            0x4           4   
.bss.xLogStreamBuffer   0x2044545c            0x4           4   
.bss.current_cli_pcb    0x20445460            0x4           4   
.bss.tcpip_mbox         0x20445464            0x4           4   
.bss.reassdatagrams     0x20445468            0x4           4   
.bss.ram                0x2044546c            0x4           4   
.bss.ram_end            0x20445470            0x4           4   
.bss.mem_mutex          0x20445474            0x4           4   
.bss.lfree              0x20445478            0x4           4   
.bss.memp_tab_RAW_PCB   0x2044547c            0x4           4   
.bss.memp_tab_UDP_PCB   0x20445480            0x4           4   
.bss.memp_tab_TCP_PCB   0x20445484            0x4           4   
.bss.memp_tab_TCP_PCB_L 0x20445488            0x4           4   
.bss.memp_tab_TCP_SEG   0x2044548c            0x4           4   
.bss.memp_tab_REASSDATA 0x20445490            0x4           4   
.bss.memp_tab_FRAG_PBUF 0x20445494            0x4           4   
.bss.memp_tab_TCPIP_MSG 0x20445498            0x4           4   
.bss.memp_tab_TCPIP_MSG 0x2044549c            0x4           4   
.bss.memp_tab_SYS_TIMEO 0x204454a0            0x4           4   
.bss.memp_tab_PBUF      0x204454a4            0x4           4   
.bss.memp_tab_PBUF_POOL 0x204454a8            0x4           4   
.bss.netif_default      0x204454ac            0x4           4   
.bss.raw_pcbs           0x204454b0            0x4           4   
.bss.tcp_ticks          0x204454b4            0x4           4   
.bss.tcp_bound_pcbs     0x204454b8            0x4           4   
.bss.tcp_listen_pcbs    0x204454bc            0x4           4   
.bss.tcp_active_pcbs    0x204454c0            0x4           4   
.bss.tcp_tw_pcbs        0x204454c4            0x4           4   
.bss.tcphdr             0x204454c8            0x4           4   
.bss.tcphdr_opt2        0x204454cc            0x4           4   
.bss.seqno              0x204454d0            0x4           4   
.bss.ackno              0x204454d4            0x4           4   
.bss.recv_data          0x204454d8            0x4           4   
.bss.tcp_input_pcb      0x204454dc            0x4           4   
.bss.next_timeout       0x204454e0            0x4           4   
.bss.current_timeout_du 0x204454e4            0x4           4   
.bss.tcpip_tcp_timer_ac 0x204454e8            0x4           4   
.bss.udp_pcbs           0x204454ec            0x4           4   
.bss._app_driver        0x204454f0            0x4           4   
.bss._usbd_spin         0x204454f4            0x4           4   
.bss._usbd_q            0x204454f8            0x4           4   
.bss._usbd_mutex        0x204454fc            0x4           4   
.bss                    0x20445500            0x4           4  Uninitialized data 
.bss                    0x20445504            0x4           4  Uninitialized data 
.bss                    0x20445508            0x4           4  Uninitialized data 
.bss._tusb_rhport_role  0x2044550c            0x2           2   
.data.uart_drivers      0x20445510           0x80         128   
.data._usbd_qdef        0x20445590           0x5c          92   
.data.string_desc_arr   0x204455ec           0x18          24   
.data.s_RealTimeClock_c 0x20445604            0x6           6   
.data.tud_network_mac_a 0x2044560c            0x6           6   
.data.m.0               0x20445614            0x4           4   
.data.lineBreak         0x20445618            0x4           4   
.data.escSeqCursorRight 0x2044561c            0x4           4   
.data.escSeqCursorLeft  0x20445620            0x4           4   
.data.escSeqCursorSave  0x20445624            0x4           4   
.data.escSeqCursorResto 0x20445628            0x4           4   
.data.escSeqInsertChar  0x2044562c            0x4           4   
.data.escSeqDeleteChar  0x20445630            0x4           4   
.data.uxCriticalNesting 0x20445634            0x4           4   
.data.dmesg_magic       0x20445638            0x4           4   
.data.iss.0             0x2044563c            0x4           4   
         Total RAM used  :     0x45634      284212  72.3% of 0x60000
        --------------------------------------------------------------------------
            Total Data Memory used  :     0x45634      284212  72.3% of 0x60000
        --------------------------------------------------------------------------


Dynamic Data-Memory Reservation
section                    address  length [bytes]      (dec)  Description
-------                 ----------  -------------------------  -----------
heap                    0x20445648          0x200         512  Reserved for heap 
stack                   0x20445860        0x1a798      108440  Reserved for stack 

        --------------------------------------------------------------------------

Microchip PIC32 Memory-Usage Report By Module

        text        data         bss         dec         hex    basename                   filename
--------------------------------------------------------------------------------
        1308           0      204828      206136       32538    heap_4.o               build/default/production/_ext/1562497596/heap_4.o
         712           0       51144       51856        ca90    memp.o                 build/default/production/_ext/1264479574/memp.o
        8255           0        1980       10235        27fb    tasks.o                build/default/production/_ext/502845695/tasks.o
        3938           0        6112       10050        2742    ncm_device.o           build/default/production/_ext/1439055959/ncm_device.o
        8923           0          52        8975        230f    tcp_in.o               build/default/production/_ext/1264479574/tcp_in.o
        7187          93         353        7633        1dd1    usbd.o                 build/default/production/_ext/781065747/usbd.o
        7529          28          28        7585        1da1    embedded_cli.o         build/default/production/_ext/1422079320/embedded_cli.o
         473           0        6157        6630        19e6    cli_setup.o            build/default/production/_ext/818259185/cli_setup.o
        6152           0           0        6152        1808    tcp_out.o              build/default/production/_ext/1264479574/tcp_out.o
        5912           6          23        5941        1735    tcp.o                  build/default/production/_ext/1264479574/tcp.o
        1056           0        3517        4573        11dd    os.o                   build/default/production/_ext/1778509306/os.o
          72           0        4144        4216        1078    xlog.o                 build/default/production/_ext/751336192/xlog.o
        3923           0         161        4084         ff4    dcd_samx7x.o           build/default/production/_ext/2093936272/dcd_samx7x.o
        4049           0           0        4049         fd1    cli_command.o          build/default/production/_ext/667517761/cli_command.o
        3908           0          64        3972         f84    queue.o                build/default/production/_ext/502845695/queue.o
        1836           0        1635        3471         d8f    mem.o                  build/default/production/_ext/1264479574/mem.o
        3160           0         241        3401         d49    etharp.o               build/default/production/_ext/1349076522/etharp.o
         909         128        2048        3085         c0d    uart_irq.o             build/default/production/_ext/216470852/uart_irq.o
        2748           0           6        2754         ac2    ip4_frag.o             build/default/production/_ext/1349076522/ip4_frag.o
        2492           0           1        2493         9bd    pbuf.o                 build/default/production/_ext/1264479574/pbuf.o
        2055           4         281        2340         924    dmesg.o                build/default/production/_ext/1798135708/dmesg.o
        2144           0           0        2144         860    data_init              data_init
        2063           0           0        2063         80f    simple_shield.o        build/default/production/_ext/1134253236/simple_shield.o
        1897           6         144        2047         7ff    app_network.o          build/default/production/_ext/1389938436/app_network.o
        1726           0           0        1726         6be    tusb_fifo.o            build/default/production/_ext/761407912/tusb_fifo.o
        1443           0         220        1663         67f    timers.o               build/default/production/_ext/502845695/timers.o
        1642           0           2        1644         66c    ip4.o                  build/default/production/_ext/1349076522/ip4.o
        1272           6           8        1286         506    date_time.o            build/default/production/_ext/697864676/date_time.o
        1276           4           5        1285         505    port.o                 build/default/production/_ext/1908456078/port.o
        1246           0           0        1246         4de    intscan.o              libc-musl.a
        1190           0           0        1190         4a6    stream_buffer.o        build/default/production/_ext/502845695/stream_buffer.o
        1078          24          66        1168         490    usb_descriptors.o      build/default/production/_ext/783082040/usb_descriptors.o
        1016           0          84        1100         44c    usbd_control.o         build/default/production/_ext/781065747/usbd_control.o
        1089           0           0        1089         441    __printf_core.o        libc-musl.a
         972           0           0         972         3cc    __fmt_a.o              libc-musl.a
         944           0           5         949         3b5    netif.o                build/default/production/_ext/1264479574/netif.o
         948           0           0         948         3b4    icmp.o                 build/default/production/_ext/1349076522/icmp.o
         944           0           0         944         3b0    __fmt_fp.o             libc-musl.a
         938           0           4         942         3ae    udp.o                  build/default/production/_ext/1264479574/udp.o
         754           0           0         754         2f2    inet_chksum.o          build/default/production/_ext/1264479574/inet_chksum.o
         674           0          12         686         2ae    timeouts.o             build/default/production/_ext/1264479574/timeouts.o
         680           0           0         680         2a8    _udivmoddi4.o          libgcc.a
         620           0          48         668         29c    plib_uart2.o           build/default/production/_ext/1865657120/plib_uart2.o
         648           0           0         648         288    plib_clk.o             build/default/production/_ext/60165520/plib_clk.o
         492           0           0         492         1ec    ethernet.o             build/default/production/_ext/534298161/ethernet.o
         440           0           4         444         1bc    raw.o                  build/default/production/_ext/1264479574/raw.o
         432           0           0         432         1b0    plib_pio.o             build/default/production/_ext/60177924/plib_pio.o
         412           0           2         414         19e    tusb.o                 build/default/production/_ext/1119931634/tusb.o
         308           0          92         400         190    app_cli.o              build/default/production/_ext/30620426/app_cli.o
         372           0           0         372         174    ring_buffer.o          build/default/production/_ext/1260377903/ring_buffer.o
         362           0           0         362         16a    interrupts.o           build/default/production/_ext/1171490990/interrupts.o
         360           0           0         360         168    list.o                 build/default/production/_ext/502845695/list.o
         350           0           8         358         166    startup_xc32.o         build/default/production/_ext/1171490990/startup_xc32.o
         344           0           0         344         158    plib_nvic.o            build/default/production/_ext/1865468468/plib_nvic.o
         298           0           0         298         12a    sys_arch.o             build/default/production/_ext/1017385999/sys_arch.o
         290           0           0         290         122    __fmt_x.o              libc-musl.a
          14           0         248         262         106    stats.o                build/default/production/_ext/1264479574/stats.o
         235           4           4         243          f3    boot_manager.o         build/default/production/_ext/249897560/boot_manager.o
         208           0           0         208          d0    app_root.o             build/default/production/_ext/1026660007/app_root.o
         196           0           0         196          c4    __pop_int.o            libc-musl.a
         188           0           0         188          bc    floor.o                libm-fast-emfloat.a
         180           0           8         188          bc    plib_tc3.o             build/default/production/_ext/829342655/plib_tc3.o
         178           0           5         183          b7    ATSAMV71cm7_it.o       build/default/production/_ext/1360937237/ATSAMV71cm7_it.o
         164           0           0         164          a4    __fmt_d.o              libc-musl.a
         140           0          12         152          98    plib_systick.o         build/default/production/_ext/1827571544/plib_systick.o
         133           0           1         134          86    app_alive.o            build/default/production/_ext/1525186148/app_alive.o
         130           0           0         130          82    ip4_addr.o             build/default/production/_ext/1349076522/ip4_addr.o
         120           0           0         120          78    __cvt_u.o              libc-musl.a
         114           0           0         114          72    __fmt_o.o              libc-musl.a
         113           0           0         113          71    app_logging.o          build/default/production/_ext/1918720202/app_logging.o
         112           0           0         112          70    shgetc.o               libc-musl.a
         112           0           0         112          70    __pop_ptr.o            libc-musl.a
         102           0           0         102          66    strtol.o               libc-musl.a
          64           8          28         100          64    crtbegin.o             C:/Program Files/Microchip/xc32/v5.00/bin/bin/../../lib/gcc/pic32c/13.2.1/thumb/v7e-m+dp/hard/crtbegin.o
          96           0           0          96          60    vsnprintf.o            libc-musl.a
          92           0           4          96          60    tcpip.o                build/default/production/_ext/2037418415/tcpip.o
          96           0           0          96          60    strchrnul.o            libc-size-musl.a
          94           0           0          94          5e    def.o                  build/default/production/_ext/1264479574/def.o
          94           0           0          94          5e    __libc_start_main.o    libc-musl.a
          90           0           0          90          5a    app_usb.o              build/default/production/_ext/30602918/app_usb.o
          88           0           0          88          58    __fmt_s.o              libc-musl.a
          86           0           0          86          56    __fmt_u.o              libc-musl.a
          78           0           4          82          52    data_init.o            libpic32c.a
           0           0          80          80          50    libc.o                 libc-musl.a
          74           0           0          74          4a    __toread.o             libc-musl.a
          72           0           0          72          48    initialization.o       build/default/production/_ext/1171490990/initialization.o
          72           0           0          72          48    atoi.o                 libc-musl.a
          64           0           0          64          40    memmove.o              libc-size-musl.a
          64           0           0          64          40    stpncpy.o              libc-size-musl.a
          52           0           4          56          38    tick.o                 build/default/production/_ext/1226835810/tick.o
          52           0           0          52          34    board_api.o            build/default/production/_ext/783082040/board_api.o
          50           0           0          50          32    init.o                 build/default/production/_ext/1264479574/init.o
          48           0           0          48          30    _aeabi_uldivmod.o      libgcc.a
          42           0           0          42          2a    __pop_float.o          libc-musl.a
          40           0           0          40          28    __uflow.o              libc-musl.a
          36           0           0          36          24    exceptions.o           build/default/production/_ext/1171490990/exceptions.o
          34           0           0          34          22    memcmp.o               libc-size-musl.a
          30           0           0          30          1e    pic32_data_init_copy.o libpic32c.a
          28           0           0          28          1c    plib_efc.o             build/default/production/_ext/60167248/plib_efc.o
          28           0           0          28          1c    vfprintf.o             libc-musl.a
          26           0           0          26          1a    snprintf.o             libc-musl.a
          26           0           0          26          1a    sprintf.o              libc-musl.a
          24           0           0          24          18    memcpy.o               libc-size-musl.a
          24           0           0          24          18    strlen.o               libc-size-musl.a
           0           0          24          24          18    ip.o                   build/default/production/_ext/1264479574/ip.o
          22           0           0          22          16    strcmp.o               libc-size-musl.a
          20           0           0          20          14    main.o                 build/default/production/_ext/1360937237/main.o
          20           0           0          20          14    memset.o               libc-size-musl.a
          20           0           0          20          14    strchr.o               libc-size-musl.a
          20           0           0          20          14    stpcpy.o               libc-size-musl.a
          18           0           0          18          12    pic32_data_init_clear.olibpic32c.a
          16           0           0          16          10    crtn.o                 C:/Program Files/Microchip/xc32/v5.00/bin/bin/../../lib/gcc/pic32c/13.2.1/thumb/v7e-m+dp/hard/crtn.o
          14           0           0          14           e    tolower.o              libc-musl.a
          14           0           0          14           e    toupper.o              libc-musl.a
          12           0           0          12           c    strcpy.o               libc-size-musl.a
          12           0           0          12           c    strncpy.o              libc-size-musl.a
          12           0           0          12           c    vsprintf.o             libc-musl.a
           8           0           0           8           8    crti.o                 C:/Program Files/Microchip/xc32/v5.00/bin/bin/../../lib/gcc/pic32c/13.2.1/thumb/v7e-m+dp/hard/crti.o
           0           0           4           4           4    __environ.o            libc-musl.a
           4           0           0           4           4    _dvmd_tls.o            libgcc.a
           0           0           4           4           4    __errno_location.o     libc-musl.a
--------------------------------------------------------------------------------
      112676         311      283909      396896       60e60    dist/default/production/03_FreeRTOS.X.production.elf


Discarded input sections

 .text          0x00000000        0x0 C:/Program Files/Microchip/xc32/v5.00/bin/bin/../../lib/gcc/pic32c/13.2.1/thumb/v7e-m+dp/hard/crti.o
 .data          0x00000000        0x0 C:/Program Files/Microchip/xc32/v5.00/bin/bin/../../lib/gcc/pic32c/13.2.1/thumb/v7e-m+dp/hard/crti.o
 .bss           0x00000000        0x0 C:/Program Files/Microchip/xc32/v5.00/bin/bin/../../lib/gcc/pic32c/13.2.1/thumb/v7e-m+dp/hard/crti.o
 .xc_stack_usage.hdr
                0x00000000        0xe C:/Program Files/Microchip/xc32/v5.00/bin/bin/../../lib/gcc/pic32c/13.2.1/thumb/v7e-m+dp/hard/crti.o
 .xc_stack_usage
                0x00000000       0x26 C:/Program Files/Microchip/xc32/v5.00/bin/bin/../../lib/gcc/pic32c/13.2.1/thumb/v7e-m+dp/hard/crti.o
 .data          0x00000000        0x4 C:/Program Files/Microchip/xc32/v5.00/bin/bin/../../lib/gcc/pic32c/13.2.1/thumb/v7e-m+dp/hard/crtbegin.o
 .rodata        0x00000000       0x24 C:/Program Files/Microchip/xc32/v5.00/bin/bin/../../lib/gcc/pic32c/13.2.1/thumb/v7e-m+dp/hard/crtbegin.o
 .xc_stack_usage
                0x00000000       0x3c C:/Program Files/Microchip/xc32/v5.00/bin/bin/../../lib/gcc/pic32c/13.2.1/thumb/v7e-m+dp/hard/crtbegin.o
 .xc_stack_usage.hdr
                0x00000000        0xe C:/Program Files/Microchip/xc32/v5.00/bin/bin/../../lib/gcc/pic32c/13.2.1/thumb/v7e-m+dp/hard/crtbegin.o
 .text          0x00000000        0x0 build/default/production/_ext/60165520/plib_clk.o
 .data          0x00000000        0x0 build/default/production/_ext/60165520/plib_clk.o
 .bss           0x00000000        0x0 build/default/production/_ext/60165520/plib_clk.o
 .text          0x00000000        0x0 build/default/production/_ext/60167248/plib_efc.o
 .data          0x00000000        0x0 build/default/production/_ext/60167248/plib_efc.o
 .bss           0x00000000        0x0 build/default/production/_ext/60167248/plib_efc.o
 .bss.efc_status
                0x00000000        0x4 build/default/production/_ext/60167248/plib_efc.o
 .text.EFC_Read
                0x00000000       0x24 build/default/production/_ext/60167248/plib_efc.o
 .text.EFC_SectorErase
                0x00000000       0x4c build/default/production/_ext/60167248/plib_efc.o
 .text.EFC_PageBufferWrite
                0x00000000       0x62 build/default/production/_ext/60167248/plib_efc.o
 .text.EFC_PageBufferCommit
                0x00000000       0x54 build/default/production/_ext/60167248/plib_efc.o
 .text.EFC_PageWrite
                0x00000000       0x88 build/default/production/_ext/60167248/plib_efc.o
 .text.EFC_QuadWordWrite
                0x00000000       0x70 build/default/production/_ext/60167248/plib_efc.o
 .text.EFC_RegionLock
                0x00000000       0x44 build/default/production/_ext/60167248/plib_efc.o
 .text.EFC_RegionUnlock
                0x00000000       0x44 build/default/production/_ext/60167248/plib_efc.o
 .text.EFC_IsBusy
                0x00000000       0x38 build/default/production/_ext/60167248/plib_efc.o
 .text.EFC_ErrorGet
                0x00000000       0x28 build/default/production/_ext/60167248/plib_efc.o
 .text          0x00000000        0x0 build/default/production/_ext/1865468468/plib_nvic.o
 .data          0x00000000        0x0 build/default/production/_ext/1865468468/plib_nvic.o
 .bss           0x00000000        0x0 build/default/production/_ext/1865468468/plib_nvic.o
 .text.__NVIC_GetEnableIRQ
                0x00000000       0x40 build/default/production/_ext/1865468468/plib_nvic.o
 .text.__NVIC_DisableIRQ
                0x00000000       0x48 build/default/production/_ext/1865468468/plib_nvic.o
 .text.NVIC_INT_Enable
                0x00000000       0x18 build/default/production/_ext/1865468468/plib_nvic.o
 .text.NVIC_INT_Disable
                0x00000000       0x30 build/default/production/_ext/1865468468/plib_nvic.o
 .text.NVIC_INT_Restore
                0x00000000       0x30 build/default/production/_ext/1865468468/plib_nvic.o
 .text.NVIC_INT_SourceDisable
                0x00000000       0x44 build/default/production/_ext/1865468468/plib_nvic.o
 .text.NVIC_INT_SourceRestore
                0x00000000       0x2a build/default/production/_ext/1865468468/plib_nvic.o
 .text          0x00000000        0x0 build/default/production/_ext/60177924/plib_pio.o
 .data          0x00000000        0x0 build/default/production/_ext/60177924/plib_pio.o
 .bss           0x00000000        0x0 build/default/production/_ext/60177924/plib_pio.o
 .text.PIO_PortRead
                0x00000000       0x18 build/default/production/_ext/60177924/plib_pio.o
 .text.PIO_PortWrite
                0x00000000       0x30 build/default/production/_ext/60177924/plib_pio.o
 .text.PIO_PortLatchRead
                0x00000000       0x18 build/default/production/_ext/60177924/plib_pio.o
 .text.PIO_PortSet
                0x00000000       0x1c build/default/production/_ext/60177924/plib_pio.o
 .text.PIO_PortClear
                0x00000000       0x1c build/default/production/_ext/60177924/plib_pio.o
 .text.PIO_PortToggle
                0x00000000       0x22 build/default/production/_ext/60177924/plib_pio.o
 .text.PIO_PortInputEnable
                0x00000000       0x1c build/default/production/_ext/60177924/plib_pio.o
 .text.PIO_PortOutputEnable
                0x00000000       0x1c build/default/production/_ext/60177924/plib_pio.o
 .text          0x00000000        0x0 build/default/production/_ext/1827571544/plib_systick.o
 .data          0x00000000        0x0 build/default/production/_ext/1827571544/plib_systick.o
 .bss           0x00000000        0x0 build/default/production/_ext/1827571544/plib_systick.o
 .text.SYSTICK_TimerRestart
                0x00000000       0x30 build/default/production/_ext/1827571544/plib_systick.o
 .text.SYSTICK_TimerStop
                0x00000000       0x20 build/default/production/_ext/1827571544/plib_systick.o
 .text.SYSTICK_TimerPeriodSet
                0x00000000       0x20 build/default/production/_ext/1827571544/plib_systick.o
 .text.SYSTICK_TimerPeriodGet
                0x00000000       0x18 build/default/production/_ext/1827571544/plib_systick.o
 .text.SYSTICK_TimerCounterGet
                0x00000000       0x18 build/default/production/_ext/1827571544/plib_systick.o
 .text.SYSTICK_TimerFrequencyGet
                0x00000000       0x14 build/default/production/_ext/1827571544/plib_systick.o
 .text.SYSTICK_DelayMs
                0x00000000       0x7c build/default/production/_ext/1827571544/plib_systick.o
 .text.SYSTICK_DelayUs
                0x00000000       0x7c build/default/production/_ext/1827571544/plib_systick.o
 .text.SYSTICK_GetTickCounter
                0x00000000       0x18 build/default/production/_ext/1827571544/plib_systick.o
 .text.SYSTICK_StartTimeOut
                0x00000000       0x38 build/default/production/_ext/1827571544/plib_systick.o
 .text.SYSTICK_ResetTimeOut
                0x00000000       0x1a build/default/production/_ext/1827571544/plib_systick.o
 .text.SYSTICK_IsTimeoutReached
                0x00000000       0x2e build/default/production/_ext/1827571544/plib_systick.o
 .text          0x00000000        0x0 build/default/production/_ext/829342655/plib_tc3.o
 .data          0x00000000        0x0 build/default/production/_ext/829342655/plib_tc3.o
 .bss           0x00000000        0x0 build/default/production/_ext/829342655/plib_tc3.o
 .text.TC3_CH0_TimerStop
                0x00000000       0x18 build/default/production/_ext/829342655/plib_tc3.o
 .text.TC3_CH0_TimerFrequencyGet
                0x00000000       0x14 build/default/production/_ext/829342655/plib_tc3.o
 .text.TC3_CH0_TimerPeriodSet
                0x00000000       0x20 build/default/production/_ext/829342655/plib_tc3.o
 .text.TC3_CH0_TimerPeriodGet
                0x00000000       0x18 build/default/production/_ext/829342655/plib_tc3.o
 .text.TC3_CH0_TimerCounterGet
                0x00000000       0x18 build/default/production/_ext/829342655/plib_tc3.o
 .text          0x00000000        0x0 build/default/production/_ext/1865657120/plib_uart2.o
 .data          0x00000000        0x0 build/default/production/_ext/1865657120/plib_uart2.o
 .bss           0x00000000        0x0 build/default/production/_ext/1865657120/plib_uart2.o
 .text.UART2_ErrorClear
                0x00000000       0x38 build/default/production/_ext/1865657120/plib_uart2.o
 .text.UART2_ErrorGet
                0x00000000       0x30 build/default/production/_ext/1865657120/plib_uart2.o
 .text.UART2_SerialSetup
                0x00000000       0x9c build/default/production/_ext/1865657120/plib_uart2.o
 .text.UART2_Read
                0x00000000       0x68 build/default/production/_ext/1865657120/plib_uart2.o
 .text.UART2_Write
                0x00000000       0x80 build/default/production/_ext/1865657120/plib_uart2.o
 .text.UART2_WriteIsBusy
                0x00000000       0x18 build/default/production/_ext/1865657120/plib_uart2.o
 .text.UART2_ReadIsBusy
                0x00000000       0x1c build/default/production/_ext/1865657120/plib_uart2.o
 .text.UART2_WriteCountGet
                0x00000000       0x18 build/default/production/_ext/1865657120/plib_uart2.o
 .text.UART2_ReadCountGet
                0x00000000       0x18 build/default/production/_ext/1865657120/plib_uart2.o
 .text.UART2_ReadAbort
                0x00000000       0x40 build/default/production/_ext/1865657120/plib_uart2.o
 .text.UART2_TransmitComplete
                0x00000000       0x30 build/default/production/_ext/1865657120/plib_uart2.o
 .text          0x00000000        0x0 build/default/production/_ext/163028504/xc32_monitor.o
 .data          0x00000000        0x0 build/default/production/_ext/163028504/xc32_monitor.o
 .bss           0x00000000        0x0 build/default/production/_ext/163028504/xc32_monitor.o
 .text.read     0x00000000       0x1c build/default/production/_ext/163028504/xc32_monitor.o
 .text.write    0x00000000       0x1c build/default/production/_ext/163028504/xc32_monitor.o
 .debug_info    0x00000000       0xea build/default/production/_ext/163028504/xc32_monitor.o
 .debug_abbrev  0x00000000       0x9e build/default/production/_ext/163028504/xc32_monitor.o
 .debug_loc     0x00000000       0xb8 build/default/production/_ext/163028504/xc32_monitor.o
 .debug_aranges
                0x00000000       0x28 build/default/production/_ext/163028504/xc32_monitor.o
 .debug_ranges  0x00000000       0x18 build/default/production/_ext/163028504/xc32_monitor.o
 .debug_line    0x00000000       0xc9 build/default/production/_ext/163028504/xc32_monitor.o
 .debug_str     0x00000000      0x282 build/default/production/_ext/163028504/xc32_monitor.o
 .comment       0x00000000       0x36 build/default/production/_ext/163028504/xc32_monitor.o
 .debug_frame   0x00000000       0x60 build/default/production/_ext/163028504/xc32_monitor.o
 .ARM.attributes
                0x00000000       0x32 build/default/production/_ext/163028504/xc32_monitor.o
 .text          0x00000000        0x0 build/default/production/_ext/1171490990/initialization.o
 .data          0x00000000        0x0 build/default/production/_ext/1171490990/initialization.o
 .bss           0x00000000        0x0 build/default/production/_ext/1171490990/initialization.o
 .text          0x00000000        0x0 build/default/production/_ext/1171490990/interrupts.o
 .data          0x00000000        0x0 build/default/production/_ext/1171490990/interrupts.o
 .bss           0x00000000        0x0 build/default/production/_ext/1171490990/interrupts.o
 .text          0x00000000        0x0 build/default/production/_ext/1171490990/exceptions.o
 .data          0x00000000        0x0 build/default/production/_ext/1171490990/exceptions.o
 .bss           0x00000000        0x0 build/default/production/_ext/1171490990/exceptions.o
 .text          0x00000000        0x0 build/default/production/_ext/1171490990/startup_xc32.o
 .data          0x00000000        0x0 build/default/production/_ext/1171490990/startup_xc32.o
 .bss           0x00000000        0x0 build/default/production/_ext/1171490990/startup_xc32.o
 .text          0x00000000        0x0 build/default/production/_ext/1171490990/libc_syscalls.o
 .data          0x00000000        0x0 build/default/production/_ext/1171490990/libc_syscalls.o
 .bss           0x00000000        0x0 build/default/production/_ext/1171490990/libc_syscalls.o
 .text._exit    0x00000000        0xa build/default/production/_ext/1171490990/libc_syscalls.o
 .debug_info    0x00000000       0xa6 build/default/production/_ext/1171490990/libc_syscalls.o
 .debug_abbrev  0x00000000       0x5a build/default/production/_ext/1171490990/libc_syscalls.o
 .debug_loc     0x00000000       0x38 build/default/production/_ext/1171490990/libc_syscalls.o
 .debug_aranges
                0x00000000       0x20 build/default/production/_ext/1171490990/libc_syscalls.o
 .debug_ranges  0x00000000       0x10 build/default/production/_ext/1171490990/libc_syscalls.o
 .debug_line    0x00000000       0x5a build/default/production/_ext/1171490990/libc_syscalls.o
 .debug_str     0x00000000      0x2cd build/default/production/_ext/1171490990/libc_syscalls.o
 .comment       0x00000000       0x36 build/default/production/_ext/1171490990/libc_syscalls.o
 .debug_frame   0x00000000       0x2c build/default/production/_ext/1171490990/libc_syscalls.o
 .ARM.attributes
                0x00000000       0x32 build/default/production/_ext/1171490990/libc_syscalls.o
 .text          0x00000000        0x0 build/default/production/_ext/249897560/boot_manager.o
 .data          0x00000000        0x0 build/default/production/_ext/249897560/boot_manager.o
 .bss           0x00000000        0x0 build/default/production/_ext/249897560/boot_manager.o
 .text          0x00000000        0x0 build/default/production/_ext/1778509306/os.o
 .data          0x00000000        0x0 build/default/production/_ext/1778509306/os.o
 .bss           0x00000000        0x0 build/default/production/_ext/1778509306/os.o
 .text.osDelayUntil
                0x00000000       0x1a build/default/production/_ext/1778509306/os.o
 .text.osThreadExit
                0x00000000        0xe build/default/production/_ext/1778509306/os.o
 .text          0x00000000        0x0 build/default/production/_ext/1134253236/simple_shield.o
 .data          0x00000000        0x0 build/default/production/_ext/1134253236/simple_shield.o
 .bss           0x00000000        0x0 build/default/production/_ext/1134253236/simple_shield.o
 .rodata.LINE_BREAK
                0x00000000        0x1 build/default/production/_ext/1134253236/simple_shield.o
 .rodata.CARRIAGE_RETURN
                0x00000000        0x1 build/default/production/_ext/1134253236/simple_shield.o
 .rodata.BACKSPACE
                0x00000000        0x1 build/default/production/_ext/1134253236/simple_shield.o
 .rodata.MAX_LOGIN_ATTEMPTS
                0x00000000        0x4 build/default/production/_ext/1134253236/simple_shield.o
 .rodata.USER_TIMEOUT
                0x00000000        0x4 build/default/production/_ext/1134253236/simple_shield.o
 .text.Shield_UpdateTimer
                0x00000000       0x44 build/default/production/_ext/1134253236/simple_shield.o
 .text.Shield_Reset
                0x00000000       0x98 build/default/production/_ext/1134253236/simple_shield.o
 .text          0x00000000        0x0 build/default/production/_ext/667517761/cli_command.o
 .data          0x00000000        0x0 build/default/production/_ext/667517761/cli_command.o
 .bss           0x00000000        0x0 build/default/production/_ext/667517761/cli_command.o
 .text          0x00000000        0x0 build/default/production/_ext/818259185/cli_setup.o
 .data          0x00000000        0x0 build/default/production/_ext/818259185/cli_setup.o
 .bss           0x00000000        0x0 build/default/production/_ext/818259185/cli_setup.o
 .text          0x00000000        0x0 build/default/production/_ext/1422079320/embedded_cli.o
 .data          0x00000000        0x0 build/default/production/_ext/1422079320/embedded_cli.o
 .bss           0x00000000        0x0 build/default/production/_ext/1422079320/embedded_cli.o
 .text.embeddedCliFindToken
                0x00000000       0x60 build/default/production/_ext/1422079320/embedded_cli.o
 .text          0x00000000        0x0 build/default/production/_ext/216470852/uart_dma.o
 .data          0x00000000        0x0 build/default/production/_ext/216470852/uart_dma.o
 .bss           0x00000000        0x0 build/default/production/_ext/216470852/uart_dma.o
 .debug_line    0x00000000        0x0 build/default/production/_ext/216470852/uart_dma.o
 .debug_str     0x00000000      0x22c build/default/production/_ext/216470852/uart_dma.o
 .comment       0x00000000       0x36 build/default/production/_ext/216470852/uart_dma.o
 .ARM.attributes
                0x00000000       0x32 build/default/production/_ext/216470852/uart_dma.o
 .text          0x00000000        0x0 build/default/production/_ext/216470852/uart_irq.o
 .data          0x00000000        0x0 build/default/production/_ext/216470852/uart_irq.o
 .bss           0x00000000        0x0 build/default/production/_ext/216470852/uart_irq.o
 .text.UART_Driver_Read
                0x00000000       0x6a build/default/production/_ext/216470852/uart_irq.o
 .text.UART_Driver_IsDataAvailable
                0x00000000       0x2e build/default/production/_ext/216470852/uart_irq.o
 .text.UART_Driver_TXFreeSpace
                0x00000000       0x2e build/default/production/_ext/216470852/uart_irq.o
 .text.UART_Driver_RXFreeSpace
                0x00000000       0x2e build/default/production/_ext/216470852/uart_irq.o
 .text.UART_Driver_IsTxBusy
                0x00000000       0x4a build/default/production/_ext/216470852/uart_irq.o
 .text.UART_Driver_WaitTxComplete
                0x00000000       0x76 build/default/production/_ext/216470852/uart_irq.o
 .text.UART_Driver_FlushTx
                0x00000000       0x68 build/default/production/_ext/216470852/uart_irq.o
 .text.UART_Driver_FlushRx
                0x00000000       0x8a build/default/production/_ext/216470852/uart_irq.o
 .text.UART_Driver_Flush
                0x00000000       0x1c build/default/production/_ext/216470852/uart_irq.o
 .text.UART_Driver_HasRxError
                0x00000000       0x2a build/default/production/_ext/216470852/uart_irq.o
 .text.UART_Driver_ClearRxError
                0x00000000       0x28 build/default/production/_ext/216470852/uart_irq.o
 .text.UART_Driver_GetRxOverflowCount
                0x00000000       0x26 build/default/production/_ext/216470852/uart_irq.o
 .text.UART_Driver_GetRxErrorCount
                0x00000000       0x26 build/default/production/_ext/216470852/uart_irq.o
 .text.UART_Driver_Polling_WriteByte
                0x00000000       0x2c build/default/production/_ext/216470852/uart_irq.o
 .text.UART_Driver_Polling_SendString
                0x00000000       0x44 build/default/production/_ext/216470852/uart_irq.o
 .text          0x00000000        0x0 build/default/production/_ext/1908456078/port.o
 .data          0x00000000        0x0 build/default/production/_ext/1908456078/port.o
 .bss           0x00000000        0x0 build/default/production/_ext/1908456078/port.o
 .rodata.pcInterruptPriorityRegisters
                0x00000000        0x4 build/default/production/_ext/1908456078/port.o
 .text.vPortEndScheduler
                0x00000000       0x3c build/default/production/_ext/1908456078/port.o
 .text          0x00000000        0x0 build/default/production/_ext/1562497596/heap_4.o
 .data          0x00000000        0x0 build/default/production/_ext/1562497596/heap_4.o
 .bss           0x00000000        0x0 build/default/production/_ext/1562497596/heap_4.o
 .rodata.xHeapStructSize
                0x00000000        0x4 build/default/production/_ext/1562497596/heap_4.o
 .text.xPortGetFreeHeapSize
                0x00000000       0x18 build/default/production/_ext/1562497596/heap_4.o
 .text.xPortGetMinimumEverFreeHeapSize
                0x00000000       0x18 build/default/production/_ext/1562497596/heap_4.o
 .text.vPortInitialiseBlocks
                0x00000000        0xe build/default/production/_ext/1562497596/heap_4.o
 .text.pvPortCalloc
                0x00000000       0x60 build/default/production/_ext/1562497596/heap_4.o
 .text.vPortGetHeapStats
                0x00000000       0xbc build/default/production/_ext/1562497596/heap_4.o
 .text.vPortHeapResetState
                0x00000000       0x40 build/default/production/_ext/1562497596/heap_4.o
 .text          0x00000000        0x0 build/default/production/_ext/502845695/croutine.o
 .data          0x00000000        0x0 build/default/production/_ext/502845695/croutine.o
 .bss           0x00000000        0x0 build/default/production/_ext/502845695/croutine.o
 .debug_info    0x00000000       0x8e build/default/production/_ext/502845695/croutine.o
 .debug_abbrev  0x00000000       0x26 build/default/production/_ext/502845695/croutine.o
 .debug_aranges
                0x00000000       0x18 build/default/production/_ext/502845695/croutine.o
 .debug_line    0x00000000       0x64 build/default/production/_ext/502845695/croutine.o
 .debug_str     0x00000000      0x2fe build/default/production/_ext/502845695/croutine.o
 .comment       0x00000000       0x36 build/default/production/_ext/502845695/croutine.o
 .ARM.attributes
                0x00000000       0x32 build/default/production/_ext/502845695/croutine.o
 .text          0x00000000        0x0 build/default/production/_ext/502845695/event_groups.o
 .data          0x00000000        0x0 build/default/production/_ext/502845695/event_groups.o
 .bss           0x00000000        0x0 build/default/production/_ext/502845695/event_groups.o
 .text.xEventGroupCreateStatic
                0x00000000       0x76 build/default/production/_ext/502845695/event_groups.o
 .text.xEventGroupCreate
                0x00000000       0x34 build/default/production/_ext/502845695/event_groups.o
 .text.xEventGroupSync
                0x00000000      0x168 build/default/production/_ext/502845695/event_groups.o
 .text.xEventGroupWaitBits
                0x00000000      0x1ac build/default/production/_ext/502845695/event_groups.o
 .text.xEventGroupClearBits
                0x00000000       0x76 build/default/production/_ext/502845695/event_groups.o
 .text.xEventGroupClearBitsFromISR
                0x00000000       0x28 build/default/production/_ext/502845695/event_groups.o
 .text.xEventGroupGetBitsFromISR
                0x00000000       0x4c build/default/production/_ext/502845695/event_groups.o
 .text.xEventGroupSetBits
                0x00000000      0x11c build/default/production/_ext/502845695/event_groups.o
 .text.vEventGroupDelete
                0x00000000       0x8e build/default/production/_ext/502845695/event_groups.o
 .text.xEventGroupGetStaticBuffer
                0x00000000       0x74 build/default/production/_ext/502845695/event_groups.o
 .text.vEventGroupSetBitsCallback
                0x00000000       0x1a build/default/production/_ext/502845695/event_groups.o
 .text.vEventGroupClearBitsCallback
                0x00000000       0x1a build/default/production/_ext/502845695/event_groups.o
 .text.prvTestWaitCondition
                0x00000000       0x44 build/default/production/_ext/502845695/event_groups.o
 .text.xEventGroupSetBitsFromISR
                0x00000000       0x28 build/default/production/_ext/502845695/event_groups.o
 .text.uxEventGroupGetNumber
                0x00000000       0x2c build/default/production/_ext/502845695/event_groups.o
 .text.vEventGroupSetNumber
                0x00000000       0x1c build/default/production/_ext/502845695/event_groups.o
 .debug_info    0x00000000      0xdbf build/default/production/_ext/502845695/event_groups.o
 .debug_abbrev  0x00000000      0x30f build/default/production/_ext/502845695/event_groups.o
 .debug_loc     0x00000000      0x540 build/default/production/_ext/502845695/event_groups.o
 .debug_aranges
                0x00000000       0x98 build/default/production/_ext/502845695/event_groups.o
 .debug_ranges  0x00000000       0x88 build/default/production/_ext/502845695/event_groups.o
 .debug_line    0x00000000      0x70c build/default/production/_ext/502845695/event_groups.o
 .debug_str     0x00000000      0x990 build/default/production/_ext/502845695/event_groups.o
 .comment       0x00000000       0x36 build/default/production/_ext/502845695/event_groups.o
 .debug_frame   0x00000000      0x264 build/default/production/_ext/502845695/event_groups.o
 .ARM.attributes
                0x00000000       0x32 build/default/production/_ext/502845695/event_groups.o
 .text          0x00000000        0x0 build/default/production/_ext/502845695/list.o
 .data          0x00000000        0x0 build/default/production/_ext/502845695/list.o
 .bss           0x00000000        0x0 build/default/production/_ext/502845695/list.o
 .text          0x00000000        0x0 build/default/production/_ext/502845695/queue.o
 .data          0x00000000        0x0 build/default/production/_ext/502845695/queue.o
 .bss           0x00000000        0x0 build/default/production/_ext/502845695/queue.o
 .text.xQueueGenericGetStaticBuffers
                0x00000000       0x86 build/default/production/_ext/502845695/queue.o
 .text.xQueueGetMutexHolder
                0x00000000       0x52 build/default/production/_ext/502845695/queue.o
 .text.xQueueGetMutexHolderFromISR
                0x00000000       0x4a build/default/production/_ext/502845695/queue.o
 .text.xQueueCreateCountingSemaphoreStatic
                0x00000000       0x68 build/default/production/_ext/502845695/queue.o
 .text.xQueueCreateCountingSemaphore
                0x00000000       0x60 build/default/production/_ext/502845695/queue.o
 .text.xQueueGiveFromISR
                0x00000000      0x15c build/default/production/_ext/502845695/queue.o
 .text.xQueuePeek
                0x00000000      0x1d0 build/default/production/_ext/502845695/queue.o
 .text.xQueueReceiveFromISR
                0x00000000      0x13e build/default/production/_ext/502845695/queue.o
 .text.xQueuePeekFromISR
                0x00000000       0xe2 build/default/production/_ext/502845695/queue.o
 .text.uxQueueSpacesAvailable
                0x00000000       0x4a build/default/production/_ext/502845695/queue.o
 .text.uxQueueMessagesWaitingFromISR
                0x00000000       0x40 build/default/production/_ext/502845695/queue.o
 .text.vQueueDelete
                0x00000000       0x4a build/default/production/_ext/502845695/queue.o
 .text.uxQueueGetQueueNumber
                0x00000000       0x18 build/default/production/_ext/502845695/queue.o
 .text.vQueueSetQueueNumber
                0x00000000       0x1c build/default/production/_ext/502845695/queue.o
 .text.ucQueueGetQueueType
                0x00000000       0x1a build/default/production/_ext/502845695/queue.o
 .text.uxQueueGetQueueItemSize
                0x00000000       0x18 build/default/production/_ext/502845695/queue.o
 .text.uxQueueGetQueueLength
                0x00000000       0x18 build/default/production/_ext/502845695/queue.o
 .text.xQueueIsQueueEmptyFromISR
                0x00000000       0x4c build/default/production/_ext/502845695/queue.o
 .text.xQueueIsQueueFullFromISR
                0x00000000       0x50 build/default/production/_ext/502845695/queue.o
 .text.pcQueueGetName
                0x00000000       0x6c build/default/production/_ext/502845695/queue.o
 .text.vQueueUnregisterQueue
                0x00000000       0x74 build/default/production/_ext/502845695/queue.o
 .text          0x00000000        0x0 build/default/production/_ext/502845695/stream_buffer.o
 .data          0x00000000        0x0 build/default/production/_ext/502845695/stream_buffer.o
 .bss           0x00000000        0x0 build/default/production/_ext/502845695/stream_buffer.o
 .text.xStreamBufferGenericCreate
                0x00000000      0x106 build/default/production/_ext/502845695/stream_buffer.o
 .text.xStreamBufferGetStaticBuffers
                0x00000000       0xa2 build/default/production/_ext/502845695/stream_buffer.o
 .text.vStreamBufferDelete
                0x00000000       0x52 build/default/production/_ext/502845695/stream_buffer.o
 .text.xStreamBufferReset
                0x00000000       0x8e build/default/production/_ext/502845695/stream_buffer.o
 .text.xStreamBufferResetFromISR
                0x00000000       0xb2 build/default/production/_ext/502845695/stream_buffer.o
 .text.xStreamBufferSetTriggerLevel
                0x00000000       0x60 build/default/production/_ext/502845695/stream_buffer.o
 .text.xStreamBufferSpacesAvailable
                0x00000000       0x7a build/default/production/_ext/502845695/stream_buffer.o
 .text.xStreamBufferBytesAvailable
                0x00000000       0x3e build/default/production/_ext/502845695/stream_buffer.o
 .text.xStreamBufferSend
                0x00000000      0x1b2 build/default/production/_ext/502845695/stream_buffer.o
 .text.xStreamBufferSendFromISR
                0x00000000       0xf4 build/default/production/_ext/502845695/stream_buffer.o
 .text.prvWriteMessageToBuffer
                0x00000000       0x94 build/default/production/_ext/502845695/stream_buffer.o
 .text.xStreamBufferNextMessageLengthBytes
                0x00000000       0x90 build/default/production/_ext/502845695/stream_buffer.o
 .text.xStreamBufferReceiveFromISR
                0x00000000       0xec build/default/production/_ext/502845695/stream_buffer.o
 .text.xStreamBufferIsEmpty
                0x00000000       0x54 build/default/production/_ext/502845695/stream_buffer.o
 .text.xStreamBufferIsFull
                0x00000000       0x64 build/default/production/_ext/502845695/stream_buffer.o
 .text.xStreamBufferSendCompletedFromISR
                0x00000000       0x94 build/default/production/_ext/502845695/stream_buffer.o
 .text.xStreamBufferReceiveCompletedFromISR
                0x00000000       0x94 build/default/production/_ext/502845695/stream_buffer.o
 .text.prvWriteBytesToBuffer
                0x00000000       0xe6 build/default/production/_ext/502845695/stream_buffer.o
 .text.uxStreamBufferGetStreamBufferNotificationIndex
                0x00000000       0x3c build/default/production/_ext/502845695/stream_buffer.o
 .text.vStreamBufferSetStreamBufferNotificationIndex
                0x00000000       0xa4 build/default/production/_ext/502845695/stream_buffer.o
 .text.uxStreamBufferGetStreamBufferNumber
                0x00000000       0x18 build/default/production/_ext/502845695/stream_buffer.o
 .text.vStreamBufferSetStreamBufferNumber
                0x00000000       0x1c build/default/production/_ext/502845695/stream_buffer.o
 .text.ucStreamBufferGetStreamBufferType
                0x00000000       0x1e build/default/production/_ext/502845695/stream_buffer.o
 .text          0x00000000        0x0 build/default/production/_ext/502845695/tasks.o
 .data          0x00000000        0x0 build/default/production/_ext/502845695/tasks.o
 .bss           0x00000000        0x0 build/default/production/_ext/502845695/tasks.o
 .text.prvSnprintfReturnValueToCharsWritten
                0x00000000       0x38 build/default/production/_ext/502845695/tasks.o
 .text.xTaskDelayUntil
                0x00000000      0x108 build/default/production/_ext/502845695/tasks.o
 .text.uxTaskPriorityGet
                0x00000000       0x34 build/default/production/_ext/502845695/tasks.o
 .text.uxTaskPriorityGetFromISR
                0x00000000       0x5c build/default/production/_ext/502845695/tasks.o
 .text.uxTaskBasePriorityGet
                0x00000000       0x34 build/default/production/_ext/502845695/tasks.o
 .text.uxTaskBasePriorityGetFromISR
                0x00000000       0x5c build/default/production/_ext/502845695/tasks.o
 .text.vTaskPrioritySet
                0x00000000      0x1b8 build/default/production/_ext/502845695/tasks.o
 .text.vTaskSuspend
                0x00000000      0x148 build/default/production/_ext/502845695/tasks.o
 .text.prvTaskIsTaskSuspended
                0x00000000       0x90 build/default/production/_ext/502845695/tasks.o
 .text.vTaskResume
                0x00000000      0x114 build/default/production/_ext/502845695/tasks.o
 .text.xTaskResumeFromISR
                0x00000000      0x148 build/default/production/_ext/502845695/tasks.o
 .text.vTaskEndScheduler
                0x00000000       0x68 build/default/production/_ext/502845695/tasks.o
 .text.xTaskGetTickCountFromISR
                0x00000000       0x24 build/default/production/_ext/502845695/tasks.o
 .text.pcTaskGetName
                0x00000000       0x4c build/default/production/_ext/502845695/tasks.o
 .text.xTaskGetStaticBuffers
                0x00000000       0xb0 build/default/production/_ext/502845695/tasks.o
 .text.xTaskCatchUpTicks
                0x00000000       0x5c build/default/production/_ext/502845695/tasks.o
 .text.vTaskPlaceOnUnorderedEventList
                0x00000000       0xb4 build/default/production/_ext/502845695/tasks.o
 .text.vTaskRemoveFromUnorderedEventList
                0x00000000      0x18c build/default/production/_ext/502845695/tasks.o
 .text.vTaskSetTimeOutState
                0x00000000       0x50 build/default/production/_ext/502845695/tasks.o
 .text.uxTaskGetTaskNumber
                0x00000000       0x2c build/default/production/_ext/502845695/tasks.o
 .text.vTaskSetTaskNumber
                0x00000000       0x26 build/default/production/_ext/502845695/tasks.o
 .text.xTaskGetCurrentTaskHandleForCore
                0x00000000       0x30 build/default/production/_ext/502845695/tasks.o
 .text.prvWriteNameToBuffer
                0x00000000       0x4a build/default/production/_ext/502845695/tasks.o
 .text.vTaskListTasks
                0x00000000      0x184 build/default/production/_ext/502845695/tasks.o
 .text.uxTaskResetEventItemValue
                0x00000000       0x30 build/default/production/_ext/502845695/tasks.o
 .text.ulTaskGenericNotifyTake
                0x00000000      0x100 build/default/production/_ext/502845695/tasks.o
 .text.xTaskGenericNotifyFromISR
                0x00000000      0x2dc build/default/production/_ext/502845695/tasks.o
 .text.vTaskGenericNotifyGiveFromISR
                0x00000000      0x224 build/default/production/_ext/502845695/tasks.o
 .text.ulTaskGenericNotifyValueClear
                0x00000000       0x80 build/default/production/_ext/502845695/tasks.o
 .text.vTaskResetState
                0x00000000       0xa0 build/default/production/_ext/502845695/tasks.o
 .text          0x00000000        0x0 build/default/production/_ext/502845695/timers.o
 .data          0x00000000        0x0 build/default/production/_ext/502845695/timers.o
 .bss           0x00000000        0x0 build/default/production/_ext/502845695/timers.o
 .text.xTimerCreate
                0x00000000       0x42 build/default/production/_ext/502845695/timers.o
 .text.xTimerCreateStatic
                0x00000000       0x84 build/default/production/_ext/502845695/timers.o
 .text.prvInitialiseNewTimer
                0x00000000       0x74 build/default/production/_ext/502845695/timers.o
 .text.xTimerGenericCommandFromTask
                0x00000000       0xac build/default/production/_ext/502845695/timers.o
 .text.xTimerGenericCommandFromISR
                0x00000000       0x8c build/default/production/_ext/502845695/timers.o
 .text.xTimerGetTimerDaemonTaskHandle
                0x00000000       0x3c build/default/production/_ext/502845695/timers.o
 .text.xTimerGetPeriod
                0x00000000       0x3c build/default/production/_ext/502845695/timers.o
 .text.vTimerSetReloadMode
                0x00000000       0x6a build/default/production/_ext/502845695/timers.o
 .text.xTimerGetReloadMode
                0x00000000       0x56 build/default/production/_ext/502845695/timers.o
 .text.uxTimerGetReloadMode
                0x00000000       0x1c build/default/production/_ext/502845695/timers.o
 .text.xTimerGetExpiryTime
                0x00000000       0x40 build/default/production/_ext/502845695/timers.o
 .text.xTimerGetStaticBuffer
                0x00000000       0x5a build/default/production/_ext/502845695/timers.o
 .text.pcTimerGetName
                0x00000000       0x3c build/default/production/_ext/502845695/timers.o
 .text.xTimerIsTimerActive
                0x00000000       0x56 build/default/production/_ext/502845695/timers.o
 .text.pvTimerGetTimerID
                0x00000000       0x44 build/default/production/_ext/502845695/timers.o
 .text.vTimerSetTimerID
                0x00000000       0x44 build/default/production/_ext/502845695/timers.o
 .text.xTimerPendFunctionCallFromISR
                0x00000000       0x40 build/default/production/_ext/502845695/timers.o
 .text.xTimerPendFunctionCall
                0x00000000       0x64 build/default/production/_ext/502845695/timers.o
 .text.uxTimerGetTimerNumber
                0x00000000       0x18 build/default/production/_ext/502845695/timers.o
 .text.vTimerSetTimerNumber
                0x00000000       0x1c build/default/production/_ext/502845695/timers.o
 .text.vTimerResetState
                0x00000000       0x24 build/default/production/_ext/502845695/timers.o
 .text          0x00000000        0x0 build/default/production/_ext/697864676/date_time.o
 .data          0x00000000        0x0 build/default/production/_ext/697864676/date_time.o
 .bss           0x00000000        0x0 build/default/production/_ext/697864676/date_time.o
 .bss.s_Cronjob_List
                0x00000000      0x168 build/default/production/_ext/697864676/date_time.o
 .data.last_second
                0x00000000        0x1 build/default/production/_ext/697864676/date_time.o
 .data.last_minute
                0x00000000        0x1 build/default/production/_ext/697864676/date_time.o
 .data.last_hour
                0x00000000        0x1 build/default/production/_ext/697864676/date_time.o
 .text.Utils_Cronjob_SetMoment
                0x00000000       0xac build/default/production/_ext/697864676/date_time.o
 .text.Utils_Cronjob_SetCountdown
                0x00000000       0x94 build/default/production/_ext/697864676/date_time.o
 .text.Utils_Cronjob_SetEvery
                0x00000000       0xd8 build/default/production/_ext/697864676/date_time.o
 .text.Utils_Cronjob_Delete
                0x00000000       0x38 build/default/production/_ext/697864676/date_time.o
 .text          0x00000000        0x0 build/default/production/_ext/1260377903/ring_buffer.o
 .data          0x00000000        0x0 build/default/production/_ext/1260377903/ring_buffer.o
 .bss           0x00000000        0x0 build/default/production/_ext/1260377903/ring_buffer.o
 .text.RingBuffer_NumFreeSlots
                0x00000000       0x78 build/default/production/_ext/1260377903/ring_buffer.o
 .text.RingBuffer_ProcessAll
                0x00000000       0x7e build/default/production/_ext/1260377903/ring_buffer.o
 .text.RingBuffer_GetHead
                0x00000000       0x28 build/default/production/_ext/1260377903/ring_buffer.o
 .text.RingBuffer_GetTail
                0x00000000       0x28 build/default/production/_ext/1260377903/ring_buffer.o
 .text.RingBuffer_GetHeadData
                0x00000000       0x6e build/default/production/_ext/1260377903/ring_buffer.o
 .text.RingBuffer_GetTailData
                0x00000000       0x56 build/default/production/_ext/1260377903/ring_buffer.o
 .text.RingBuffer_IsDataAvailable
                0x00000000       0x4a build/default/production/_ext/1260377903/ring_buffer.o
 .text          0x00000000        0x0 build/default/production/_ext/1226835810/tick.o
 .data          0x00000000        0x0 build/default/production/_ext/1226835810/tick.o
 .bss           0x00000000        0x0 build/default/production/_ext/1226835810/tick.o
 .text          0x00000000        0x0 build/default/production/_ext/1360937237/ATSAMV71cm7_it.o
 .data          0x00000000        0x0 build/default/production/_ext/1360937237/ATSAMV71cm7_it.o
 .bss           0x00000000        0x0 build/default/production/_ext/1360937237/ATSAMV71cm7_it.o
 .text          0x00000000        0x0 build/default/production/_ext/1360937237/main.o
 .data          0x00000000        0x0 build/default/production/_ext/1360937237/main.o
 .bss           0x00000000        0x0 build/default/production/_ext/1360937237/main.o
 .text          0x00000000        0x0 build/default/production/_ext/30620426/app_cli.o
 .data          0x00000000        0x0 build/default/production/_ext/30620426/app_cli.o
 .bss           0x00000000        0x0 build/default/production/_ext/30620426/app_cli.o
 .text          0x00000000        0x0 build/default/production/_ext/1525186148/app_alive.o
 .data          0x00000000        0x0 build/default/production/_ext/1525186148/app_alive.o
 .bss           0x00000000        0x0 build/default/production/_ext/1525186148/app_alive.o
 .text          0x00000000        0x0 build/default/production/_ext/1026660007/app_root.o
 .data          0x00000000        0x0 build/default/production/_ext/1026660007/app_root.o
 .bss           0x00000000        0x0 build/default/production/_ext/1026660007/app_root.o
 .text          0x00000000        0x0 build/default/production/_ext/1225992677/prnf.o
 .data          0x00000000        0x0 build/default/production/_ext/1225992677/prnf.o
 .bss           0x00000000        0x0 build/default/production/_ext/1225992677/prnf.o
 .debug_line    0x00000000        0x0 build/default/production/_ext/1225992677/prnf.o
 .debug_str     0x00000000      0x22a build/default/production/_ext/1225992677/prnf.o
 .comment       0x00000000       0x36 build/default/production/_ext/1225992677/prnf.o
 .ARM.attributes
                0x00000000       0x32 build/default/production/_ext/1225992677/prnf.o
 .text          0x00000000        0x0 build/default/production/_ext/1918720202/app_logging.o
 .data          0x00000000        0x0 build/default/production/_ext/1918720202/app_logging.o
 .bss           0x00000000        0x0 build/default/production/_ext/1918720202/app_logging.o
 .text          0x00000000        0x0 build/default/production/_ext/1798135708/dmesg.o
 .data          0x00000000        0x0 build/default/production/_ext/1798135708/dmesg.o
 .bss           0x00000000        0x0 build/default/production/_ext/1798135708/dmesg.o
 .text.Dmesg_IsInitialized
                0x00000000       0x18 build/default/production/_ext/1798135708/dmesg.o
 .text.Dmesg_WriteISR
                0x00000000       0x18 build/default/production/_ext/1798135708/dmesg.o
 .text.Dmesg_Clear
                0x00000000       0x48 build/default/production/_ext/1798135708/dmesg.o
 .text.Dmesg_GetStats
                0x00000000       0x98 build/default/production/_ext/1798135708/dmesg.o
 .text          0x00000000        0x0 build/default/production/_ext/245638732/fast_ipc.o
 .data          0x00000000        0x0 build/default/production/_ext/245638732/fast_ipc.o
 .bss           0x00000000        0x0 build/default/production/_ext/245638732/fast_ipc.o
 .bss.IPC_arHandler
                0x00000000   0x206b74 build/default/production/_ext/245638732/fast_ipc.o
 .bss.IPC_u8HandlerCnt
                0x00000000        0x1 build/default/production/_ext/245638732/fast_ipc.o
 .text.IPC_createHandler
                0x00000000       0x98 build/default/production/_ext/245638732/fast_ipc.o
 .text.IPC_send
                0x00000000      0x128 build/default/production/_ext/245638732/fast_ipc.o
 .text.IPC_receive
                0x00000000       0xd8 build/default/production/_ext/245638732/fast_ipc.o
 .text.IPC_getHandlerIdx
                0x00000000       0x5c build/default/production/_ext/245638732/fast_ipc.o
 .text.IPC_initIPCHandler
                0x00000000       0x18 build/default/production/_ext/245638732/fast_ipc.o
 .debug_info    0x00000000      0x520 build/default/production/_ext/245638732/fast_ipc.o
 .debug_abbrev  0x00000000      0x195 build/default/production/_ext/245638732/fast_ipc.o
 .debug_loc     0x00000000      0x190 build/default/production/_ext/245638732/fast_ipc.o
 .debug_aranges
                0x00000000       0x40 build/default/production/_ext/245638732/fast_ipc.o
 .debug_ranges  0x00000000       0x30 build/default/production/_ext/245638732/fast_ipc.o
 .debug_line    0x00000000      0x350 build/default/production/_ext/245638732/fast_ipc.o
 .debug_str     0x00000000      0x5f2 build/default/production/_ext/245638732/fast_ipc.o
 .comment       0x00000000       0x36 build/default/production/_ext/245638732/fast_ipc.o
 .debug_frame   0x00000000       0xc8 build/default/production/_ext/245638732/fast_ipc.o
 .ARM.attributes
                0x00000000       0x32 build/default/production/_ext/245638732/fast_ipc.o
 .text          0x00000000        0x0 build/default/production/_ext/751336192/xlog.o
 .data          0x00000000        0x0 build/default/production/_ext/751336192/xlog.o
 .bss           0x00000000        0x0 build/default/production/_ext/751336192/xlog.o
 .text.xlog     0x00000000       0x84 build/default/production/_ext/751336192/xlog.o
 .text          0x00000000        0x0 build/default/production/_ext/1389938436/app_network.o
 .data          0x00000000        0x0 build/default/production/_ext/1389938436/app_network.o
 .bss           0x00000000        0x0 build/default/production/_ext/1389938436/app_network.o
 .text.tcp_server_send
                0x00000000       0x2c build/default/production/_ext/1389938436/app_network.o
 .text.tud_network_init_cb
                0x00000000        0xe build/default/production/_ext/1389938436/app_network.o
 .text          0x00000000        0x0 build/default/production/_ext/30602918/app_usb.o
 .data          0x00000000        0x0 build/default/production/_ext/30602918/app_usb.o
 .bss           0x00000000        0x0 build/default/production/_ext/30602918/app_usb.o
 .text          0x00000000        0x0 build/default/production/_ext/783082040/board_api.o
 .data          0x00000000        0x0 build/default/production/_ext/783082040/board_api.o
 .bss           0x00000000        0x0 build/default/production/_ext/783082040/board_api.o
 .text.board_millis
                0x00000000       0x82 build/default/production/_ext/783082040/board_api.o
 .text._read    0x00000000       0x2e build/default/production/_ext/783082040/board_api.o
 .text.board_init_after_tusb
                0x00000000        0xe build/default/production/_ext/783082040/board_api.o
 .text.board_reset_to_bootloader
                0x00000000        0xe build/default/production/_ext/783082040/board_api.o
 .text.board_getchar
                0x00000000       0x28 build/default/production/_ext/783082040/board_api.o
 .text.board_putchar
                0x00000000       0x1c build/default/production/_ext/783082040/board_api.o
 .text.tusb_time_millis_api
                0x00000000        0xe build/default/production/_ext/783082040/board_api.o
 .text          0x00000000        0x0 build/default/production/_ext/783082040/usb_descriptors.o
 .data          0x00000000        0x0 build/default/production/_ext/783082040/usb_descriptors.o
 .bss           0x00000000        0x0 build/default/production/_ext/783082040/usb_descriptors.o
 .rodata.configuration_arr
                0x00000000        0x4 build/default/production/_ext/783082040/usb_descriptors.o
 .text          0x00000000        0x0 build/default/production/_ext/2037418415/api_lib.o
 .data          0x00000000        0x0 build/default/production/_ext/2037418415/api_lib.o
 .bss           0x00000000        0x0 build/default/production/_ext/2037418415/api_lib.o
 .debug_info    0x00000000       0x79 build/default/production/_ext/2037418415/api_lib.o
 .debug_abbrev  0x00000000       0x26 build/default/production/_ext/2037418415/api_lib.o
 .debug_aranges
                0x00000000       0x18 build/default/production/_ext/2037418415/api_lib.o
 .debug_line    0x00000000       0x4d build/default/production/_ext/2037418415/api_lib.o
 .debug_str     0x00000000      0x2d3 build/default/production/_ext/2037418415/api_lib.o
 .comment       0x00000000       0x36 build/default/production/_ext/2037418415/api_lib.o
 .ARM.attributes
                0x00000000       0x32 build/default/production/_ext/2037418415/api_lib.o
 .text          0x00000000        0x0 build/default/production/_ext/2037418415/api_msg.o
 .data          0x00000000        0x0 build/default/production/_ext/2037418415/api_msg.o
 .bss           0x00000000        0x0 build/default/production/_ext/2037418415/api_msg.o
 .debug_info    0x00000000       0x79 build/default/production/_ext/2037418415/api_msg.o
 .debug_abbrev  0x00000000       0x26 build/default/production/_ext/2037418415/api_msg.o
 .debug_aranges
                0x00000000       0x18 build/default/production/_ext/2037418415/api_msg.o
 .debug_line    0x00000000       0x4d build/default/production/_ext/2037418415/api_msg.o
 .debug_str     0x00000000      0x2d3 build/default/production/_ext/2037418415/api_msg.o
 .comment       0x00000000       0x36 build/default/production/_ext/2037418415/api_msg.o
 .ARM.attributes
                0x00000000       0x32 build/default/production/_ext/2037418415/api_msg.o
 .text          0x00000000        0x0 build/default/production/_ext/2037418415/err.o
 .data          0x00000000        0x0 build/default/production/_ext/2037418415/err.o
 .bss           0x00000000        0x0 build/default/production/_ext/2037418415/err.o
 .rodata.err_to_errno_table
                0x00000000       0x44 build/default/production/_ext/2037418415/err.o
 .text.err_to_errno
                0x00000000       0x3c build/default/production/_ext/2037418415/err.o
 .debug_info    0x00000000      0x100 build/default/production/_ext/2037418415/err.o
 .debug_abbrev  0x00000000       0x92 build/default/production/_ext/2037418415/err.o
 .debug_loc     0x00000000       0x5c build/default/production/_ext/2037418415/err.o
 .debug_aranges
                0x00000000       0x20 build/default/production/_ext/2037418415/err.o
 .debug_ranges  0x00000000       0x10 build/default/production/_ext/2037418415/err.o
 .debug_line    0x00000000       0xfd build/default/production/_ext/2037418415/err.o
 .debug_str     0x00000000      0x301 build/default/production/_ext/2037418415/err.o
 .comment       0x00000000       0x36 build/default/production/_ext/2037418415/err.o
 .debug_frame   0x00000000       0x38 build/default/production/_ext/2037418415/err.o
 .ARM.attributes
                0x00000000       0x32 build/default/production/_ext/2037418415/err.o
 .text          0x00000000        0x0 build/default/production/_ext/2037418415/if_api.o
 .data          0x00000000        0x0 build/default/production/_ext/2037418415/if_api.o
 .bss           0x00000000        0x0 build/default/production/_ext/2037418415/if_api.o
 .debug_info    0x00000000       0x79 build/default/production/_ext/2037418415/if_api.o
 .debug_abbrev  0x00000000       0x26 build/default/production/_ext/2037418415/if_api.o
 .debug_aranges
                0x00000000       0x18 build/default/production/_ext/2037418415/if_api.o
 .debug_line    0x00000000       0x4c build/default/production/_ext/2037418415/if_api.o
 .debug_str     0x00000000      0x2d2 build/default/production/_ext/2037418415/if_api.o
 .comment       0x00000000       0x36 build/default/production/_ext/2037418415/if_api.o
 .ARM.attributes
                0x00000000       0x32 build/default/production/_ext/2037418415/if_api.o
 .text          0x00000000        0x0 build/default/production/_ext/2037418415/netbuf.o
 .data          0x00000000        0x0 build/default/production/_ext/2037418415/netbuf.o
 .bss           0x00000000        0x0 build/default/production/_ext/2037418415/netbuf.o
 .debug_info    0x00000000       0x79 build/default/production/_ext/2037418415/netbuf.o
 .debug_abbrev  0x00000000       0x26 build/default/production/_ext/2037418415/netbuf.o
 .debug_aranges
                0x00000000       0x18 build/default/production/_ext/2037418415/netbuf.o
 .debug_line    0x00000000       0x4c build/default/production/_ext/2037418415/netbuf.o
 .debug_str     0x00000000      0x2d2 build/default/production/_ext/2037418415/netbuf.o
 .comment       0x00000000       0x36 build/default/production/_ext/2037418415/netbuf.o
 .ARM.attributes
                0x00000000       0x32 build/default/production/_ext/2037418415/netbuf.o
 .text          0x00000000        0x0 build/default/production/_ext/2037418415/netdb.o
 .data          0x00000000        0x0 build/default/production/_ext/2037418415/netdb.o
 .bss           0x00000000        0x0 build/default/production/_ext/2037418415/netdb.o
 .debug_info    0x00000000       0x79 build/default/production/_ext/2037418415/netdb.o
 .debug_abbrev  0x00000000       0x26 build/default/production/_ext/2037418415/netdb.o
 .debug_aranges
                0x00000000       0x18 build/default/production/_ext/2037418415/netdb.o
 .debug_line    0x00000000       0x4b build/default/production/_ext/2037418415/netdb.o
 .debug_str     0x00000000      0x2d1 build/default/production/_ext/2037418415/netdb.o
 .comment       0x00000000       0x36 build/default/production/_ext/2037418415/netdb.o
 .ARM.attributes
                0x00000000       0x32 build/default/production/_ext/2037418415/netdb.o
 .text          0x00000000        0x0 build/default/production/_ext/2037418415/netifapi.o
 .data          0x00000000        0x0 build/default/production/_ext/2037418415/netifapi.o
 .bss           0x00000000        0x0 build/default/production/_ext/2037418415/netifapi.o
 .debug_info    0x00000000       0x79 build/default/production/_ext/2037418415/netifapi.o
 .debug_abbrev  0x00000000       0x26 build/default/production/_ext/2037418415/netifapi.o
 .debug_aranges
                0x00000000       0x18 build/default/production/_ext/2037418415/netifapi.o
 .debug_line    0x00000000       0x4e build/default/production/_ext/2037418415/netifapi.o
 .debug_str     0x00000000      0x2d4 build/default/production/_ext/2037418415/netifapi.o
 .comment       0x00000000       0x36 build/default/production/_ext/2037418415/netifapi.o
 .ARM.attributes
                0x00000000       0x32 build/default/production/_ext/2037418415/netifapi.o
 .text          0x00000000        0x0 build/default/production/_ext/2037418415/sockets.o
 .data          0x00000000        0x0 build/default/production/_ext/2037418415/sockets.o
 .bss           0x00000000        0x0 build/default/production/_ext/2037418415/sockets.o
 .debug_info    0x00000000       0x79 build/default/production/_ext/2037418415/sockets.o
 .debug_abbrev  0x00000000       0x26 build/default/production/_ext/2037418415/sockets.o
 .debug_aranges
                0x00000000       0x18 build/default/production/_ext/2037418415/sockets.o
 .debug_line    0x00000000       0x4d build/default/production/_ext/2037418415/sockets.o
 .debug_str     0x00000000      0x2d3 build/default/production/_ext/2037418415/sockets.o
 .comment       0x00000000       0x36 build/default/production/_ext/2037418415/sockets.o
 .ARM.attributes
                0x00000000       0x32 build/default/production/_ext/2037418415/sockets.o
 .text          0x00000000        0x0 build/default/production/_ext/2037418415/tcpip.o
 .data          0x00000000        0x0 build/default/production/_ext/2037418415/tcpip.o
 .bss           0x00000000        0x0 build/default/production/_ext/2037418415/tcpip.o
 .bss.tcpip_init_done
                0x00000000        0x4 build/default/production/_ext/2037418415/tcpip.o
 .bss.tcpip_init_done_arg
                0x00000000        0x4 build/default/production/_ext/2037418415/tcpip.o
 .bss.lock_tcpip_core
                0x00000000        0x4 build/default/production/_ext/2037418415/tcpip.o
 .text.tcpip_timeouts_mbox_fetch
                0x00000000       0x6c build/default/production/_ext/2037418415/tcpip.o
 .text.tcpip_thread
                0x00000000       0x54 build/default/production/_ext/2037418415/tcpip.o
 .text.tcpip_thread_handle_msg
                0x00000000       0x76 build/default/production/_ext/2037418415/tcpip.o
 .text.tcpip_inpkt
                0x00000000       0x64 build/default/production/_ext/2037418415/tcpip.o
 .text.tcpip_input
                0x00000000       0x44 build/default/production/_ext/2037418415/tcpip.o
 .text.tcpip_callback
                0x00000000       0x48 build/default/production/_ext/2037418415/tcpip.o
 .text.tcpip_send_msg_wait_sem
                0x00000000       0x2c build/default/production/_ext/2037418415/tcpip.o
 .text.tcpip_api_call
                0x00000000       0x30 build/default/production/_ext/2037418415/tcpip.o
 .text.tcpip_callbackmsg_new
                0x00000000       0x38 build/default/production/_ext/2037418415/tcpip.o
 .text.tcpip_callbackmsg_delete
                0x00000000       0x18 build/default/production/_ext/2037418415/tcpip.o
 .text.tcpip_callbackmsg_trycallback
                0x00000000       0x20 build/default/production/_ext/2037418415/tcpip.o
 .text.tcpip_callbackmsg_trycallback_fromisr
                0x00000000       0x20 build/default/production/_ext/2037418415/tcpip.o
 .rodata        0x00000000        0xd build/default/production/_ext/2037418415/tcpip.o
 .text.tcpip_init
                0x00000000       0x58 build/default/production/_ext/2037418415/tcpip.o
 .text.pbuf_free_int
                0x00000000       0x1a build/default/production/_ext/2037418415/tcpip.o
 .text.pbuf_free_callback
                0x00000000       0x20 build/default/production/_ext/2037418415/tcpip.o
 .text.mem_free_callback
                0x00000000       0x20 build/default/production/_ext/2037418415/tcpip.o
 .text          0x00000000        0x0 build/default/production/_ext/790253312/altcp_tls_mbedtls.o
 .data          0x00000000        0x0 build/default/production/_ext/790253312/altcp_tls_mbedtls.o
 .bss           0x00000000        0x0 build/default/production/_ext/790253312/altcp_tls_mbedtls.o
 .debug_info    0x00000000       0x79 build/default/production/_ext/790253312/altcp_tls_mbedtls.o
 .debug_abbrev  0x00000000       0x26 build/default/production/_ext/790253312/altcp_tls_mbedtls.o
 .debug_aranges
                0x00000000       0x18 build/default/production/_ext/790253312/altcp_tls_mbedtls.o
 .debug_line    0x00000000       0x62 build/default/production/_ext/790253312/altcp_tls_mbedtls.o
 .debug_str     0x00000000      0x2e8 build/default/production/_ext/790253312/altcp_tls_mbedtls.o
 .comment       0x00000000       0x36 build/default/production/_ext/790253312/altcp_tls_mbedtls.o
 .ARM.attributes
                0x00000000       0x32 build/default/production/_ext/790253312/altcp_tls_mbedtls.o
 .text          0x00000000        0x0 build/default/production/_ext/790253312/altcp_tls_mbedtls_mem.o
 .data          0x00000000        0x0 build/default/production/_ext/790253312/altcp_tls_mbedtls_mem.o
 .bss           0x00000000        0x0 build/default/production/_ext/790253312/altcp_tls_mbedtls_mem.o
 .debug_info    0x00000000       0x79 build/default/production/_ext/790253312/altcp_tls_mbedtls_mem.o
 .debug_abbrev  0x00000000       0x26 build/default/production/_ext/790253312/altcp_tls_mbedtls_mem.o
 .debug_aranges
                0x00000000       0x18 build/default/production/_ext/790253312/altcp_tls_mbedtls_mem.o
 .debug_line    0x00000000       0x66 build/default/production/_ext/790253312/altcp_tls_mbedtls_mem.o
 .debug_str     0x00000000      0x2ec build/default/production/_ext/790253312/altcp_tls_mbedtls_mem.o
 .comment       0x00000000       0x36 build/default/production/_ext/790253312/altcp_tls_mbedtls_mem.o
 .ARM.attributes
                0x00000000       0x32 build/default/production/_ext/790253312/altcp_tls_mbedtls_mem.o
 .text          0x00000000        0x0 build/default/production/_ext/1037603290/altcp_proxyconnect.o
 .data          0x00000000        0x0 build/default/production/_ext/1037603290/altcp_proxyconnect.o
 .bss           0x00000000        0x0 build/default/production/_ext/1037603290/altcp_proxyconnect.o
 .debug_info    0x00000000       0x79 build/default/production/_ext/1037603290/altcp_proxyconnect.o
 .debug_abbrev  0x00000000       0x26 build/default/production/_ext/1037603290/altcp_proxyconnect.o
 .debug_aranges
                0x00000000       0x18 build/default/production/_ext/1037603290/altcp_proxyconnect.o
 .debug_line    0x00000000       0x5e build/default/production/_ext/1037603290/altcp_proxyconnect.o
 .debug_str     0x00000000      0x2e4 build/default/production/_ext/1037603290/altcp_proxyconnect.o
 .comment       0x00000000       0x36 build/default/production/_ext/1037603290/altcp_proxyconnect.o
 .ARM.attributes
                0x00000000       0x32 build/default/production/_ext/1037603290/altcp_proxyconnect.o
 .text          0x00000000        0x0 build/default/production/_ext/1037603290/fs.o
 .data          0x00000000        0x0 build/default/production/_ext/1037603290/fs.o
 .bss           0x00000000        0x0 build/default/production/_ext/1037603290/fs.o
 .rodata.data__img_sics_gif
                0x00000000      0x365 build/default/production/_ext/1037603290/fs.o
 .rodata.data__404_html
                0x00000000      0x2ce build/default/production/_ext/1037603290/fs.o
 .rodata.data__index_html
                0x00000000      0x765 build/default/production/_ext/1037603290/fs.o
 .rodata.file__img_sics_gif
                0x00000000       0x14 build/default/production/_ext/1037603290/fs.o
 .rodata.file__404_html
                0x00000000       0x14 build/default/production/_ext/1037603290/fs.o
 .rodata.file__index_html
                0x00000000       0x14 build/default/production/_ext/1037603290/fs.o
 .text.fs_open  0x00000000       0x7c build/default/production/_ext/1037603290/fs.o
 .text.fs_close
                0x00000000       0x14 build/default/production/_ext/1037603290/fs.o
 .text.fs_bytes_left
                0x00000000       0x1e build/default/production/_ext/1037603290/fs.o
 .debug_info    0x00000000      0x3a5 build/default/production/_ext/1037603290/fs.o
 .debug_abbrev  0x00000000      0x185 build/default/production/_ext/1037603290/fs.o
 .debug_loc     0x00000000      0x108 build/default/production/_ext/1037603290/fs.o
 .debug_aranges
                0x00000000       0x30 build/default/production/_ext/1037603290/fs.o
 .debug_ranges  0x00000000       0x20 build/default/production/_ext/1037603290/fs.o
 .debug_line    0x00000000      0x201 build/default/production/_ext/1037603290/fs.o
 .debug_str     0x00000000      0x472 build/default/production/_ext/1037603290/fs.o
 .comment       0x00000000       0x36 build/default/production/_ext/1037603290/fs.o
 .debug_frame   0x00000000       0x84 build/default/production/_ext/1037603290/fs.o
 .ARM.attributes
                0x00000000       0x32 build/default/production/_ext/1037603290/fs.o
 .text          0x00000000        0x0 build/default/production/_ext/1037603290/httpd.o
 .data          0x00000000        0x0 build/default/production/_ext/1037603290/httpd.o
 .bss           0x00000000        0x0 build/default/production/_ext/1037603290/httpd.o
 .rodata        0x00000000       0x79 build/default/production/_ext/1037603290/httpd.o
 .rodata.httpd_default_filenames
                0x00000000       0x28 build/default/production/_ext/1037603290/httpd.o
 .bss.httpd_req_buf
                0x00000000      0x400 build/default/production/_ext/1037603290/httpd.o
 .bss.http_uri_buf
                0x00000000       0x40 build/default/production/_ext/1037603290/httpd.o
 .text.http_state_init
                0x00000000       0x1a build/default/production/_ext/1037603290/httpd.o
 .text.http_state_alloc
                0x00000000       0x24 build/default/production/_ext/1037603290/httpd.o
 .text.http_state_eof
                0x00000000       0x40 build/default/production/_ext/1037603290/httpd.o
 .text.http_state_free
                0x00000000       0x22 build/default/production/_ext/1037603290/httpd.o
 .text.http_write
                0x00000000       0xb2 build/default/production/_ext/1037603290/httpd.o
 .text.http_close_or_abort_conn
                0x00000000       0x80 build/default/production/_ext/1037603290/httpd.o
 .text.http_close_conn
                0x00000000       0x1e build/default/production/_ext/1037603290/httpd.o
 .text.http_eof
                0x00000000       0x1a build/default/production/_ext/1037603290/httpd.o
 .text.http_check_eof
                0x00000000       0x46 build/default/production/_ext/1037603290/httpd.o
 .text.http_send_data_nonssi
                0x00000000       0x6a build/default/production/_ext/1037603290/httpd.o
 .text.http_send
                0x00000000       0x6c build/default/production/_ext/1037603290/httpd.o
 .text.http_get_404_file
                0x00000000       0x8c build/default/production/_ext/1037603290/httpd.o
 .text.http_parse_request
                0x00000000      0x198 build/default/production/_ext/1037603290/httpd.o
 .text.http_find_file
                0x00000000      0x190 build/default/production/_ext/1037603290/httpd.o
 .text.http_init_file
                0x00000000       0xb0 build/default/production/_ext/1037603290/httpd.o
 .text.http_err
                0x00000000       0x24 build/default/production/_ext/1037603290/httpd.o
 .text.http_sent
                0x00000000       0x36 build/default/production/_ext/1037603290/httpd.o
 .text.http_poll
                0x00000000       0x70 build/default/production/_ext/1037603290/httpd.o
 .text.http_recv
                0x00000000       0xca build/default/production/_ext/1037603290/httpd.o
 .text.http_accept
                0x00000000       0x88 build/default/production/_ext/1037603290/httpd.o
 .text.httpd_init_pcb
                0x00000000       0x4c build/default/production/_ext/1037603290/httpd.o
 .text.httpd_init
                0x00000000       0x1e build/default/production/_ext/1037603290/httpd.o
 .debug_info    0x00000000     0x1750 build/default/production/_ext/1037603290/httpd.o
 .debug_abbrev  0x00000000      0x28c build/default/production/_ext/1037603290/httpd.o
 .debug_loc     0x00000000      0x6e4 build/default/production/_ext/1037603290/httpd.o
 .debug_aranges
                0x00000000       0xc8 build/default/production/_ext/1037603290/httpd.o
 .debug_ranges  0x00000000       0xb8 build/default/production/_ext/1037603290/httpd.o
 .debug_line    0x00000000      0x7ff build/default/production/_ext/1037603290/httpd.o
 .debug_str     0x00000000      0xd5a build/default/production/_ext/1037603290/httpd.o
 .comment       0x00000000       0x36 build/default/production/_ext/1037603290/httpd.o
 .debug_frame   0x00000000      0x32c build/default/production/_ext/1037603290/httpd.o
 .ARM.attributes
                0x00000000       0x32 build/default/production/_ext/1037603290/httpd.o
 .text          0x00000000        0x0 build/default/production/_ext/1037603290/http_client.o
 .data          0x00000000        0x0 build/default/production/_ext/1037603290/http_client.o
 .bss           0x00000000        0x0 build/default/production/_ext/1037603290/http_client.o
 .text.httpc_free_state
                0x00000000       0xa0 build/default/production/_ext/1037603290/http_client.o
 .text.httpc_close
                0x00000000       0x5a build/default/production/_ext/1037603290/http_client.o
 .rodata        0x00000000      0x1ac build/default/production/_ext/1037603290/http_client.o
 .text.http_parse_response_status
                0x00000000      0x13c build/default/production/_ext/1037603290/http_client.o
 .text.http_wait_headers
                0x00000000       0xe0 build/default/production/_ext/1037603290/http_client.o
 .text.httpc_tcp_recv
                0x00000000      0x1bc build/default/production/_ext/1037603290/http_client.o
 .text.httpc_tcp_err
                0x00000000       0x32 build/default/production/_ext/1037603290/http_client.o
 .text.httpc_tcp_poll
                0x00000000       0x48 build/default/production/_ext/1037603290/http_client.o
 .text.httpc_tcp_sent
                0x00000000       0x1c build/default/production/_ext/1037603290/http_client.o
 .text.httpc_tcp_connected
                0x00000000       0x6e build/default/production/_ext/1037603290/http_client.o
 .text.httpc_get_internal_addr
                0x00000000       0x50 build/default/production/_ext/1037603290/http_client.o
 .text.httpc_get_internal_dns
                0x00000000       0x5a build/default/production/_ext/1037603290/http_client.o
 .text.httpc_create_request_string
                0x00000000       0xa4 build/default/production/_ext/1037603290/http_client.o
 .text.httpc_init_connection_common
                0x00000000      0x1a8 build/default/production/_ext/1037603290/http_client.o
 .text.httpc_init_connection
                0x00000000       0x36 build/default/production/_ext/1037603290/http_client.o
 .text.httpc_init_connection_addr
                0x00000000       0x4a build/default/production/_ext/1037603290/http_client.o
 .text.httpc_get_file
                0x00000000       0xaa build/default/production/_ext/1037603290/http_client.o
 .text.httpc_get_file_dns
                0x00000000       0xaa build/default/production/_ext/1037603290/http_client.o
 .debug_info    0x00000000     0x1867 build/default/production/_ext/1037603290/http_client.o
 .debug_abbrev  0x00000000      0x2e8 build/default/production/_ext/1037603290/http_client.o
 .debug_loc     0x00000000      0x55e build/default/production/_ext/1037603290/http_client.o
 .debug_aranges
                0x00000000       0xa0 build/default/production/_ext/1037603290/http_client.o
 .debug_ranges  0x00000000       0x90 build/default/production/_ext/1037603290/http_client.o
 .debug_line    0x00000000      0x72c build/default/production/_ext/1037603290/http_client.o
 .debug_str     0x00000000      0xf71 build/default/production/_ext/1037603290/http_client.o
 .comment       0x00000000       0x36 build/default/production/_ext/1037603290/http_client.o
 .debug_frame   0x00000000      0x290 build/default/production/_ext/1037603290/http_client.o
 .ARM.attributes
                0x00000000       0x32 build/default/production/_ext/1037603290/http_client.o
 .text          0x00000000        0x0 build/default/production/_ext/309140075/lwiperf.o
 .data          0x00000000        0x0 build/default/production/_ext/309140075/lwiperf.o
 .bss           0x00000000        0x0 build/default/production/_ext/309140075/lwiperf.o
 .bss.lwiperf_all_connections
                0x00000000        0x4 build/default/production/_ext/309140075/lwiperf.o
 .rodata.lwiperf_txbuf_const
                0x00000000      0x640 build/default/production/_ext/309140075/lwiperf.o
 .text.lwiperf_list_add
                0x00000000       0x28 build/default/production/_ext/309140075/lwiperf.o
 .text.lwiperf_list_remove
                0x00000000       0x6c build/default/production/_ext/309140075/lwiperf.o
 .text.lwiperf_list_find
                0x00000000       0x3c build/default/production/_ext/309140075/lwiperf.o
 .text.lwip_tcp_conn_report
                0x00000000       0x8c build/default/production/_ext/309140075/lwiperf.o
 .text.lwiperf_tcp_close
                0x00000000       0xa2 build/default/production/_ext/309140075/lwiperf.o
 .text.lwiperf_tcp_client_send_more
                0x00000000      0x194 build/default/production/_ext/309140075/lwiperf.o
 .text.lwiperf_tcp_client_sent
                0x00000000       0x2a build/default/production/_ext/309140075/lwiperf.o
 .text.lwiperf_tcp_client_connected
                0x00000000       0x48 build/default/production/_ext/309140075/lwiperf.o
 .text.lwiperf_tx_start_impl
                0x00000000      0x114 build/default/production/_ext/309140075/lwiperf.o
 .text.lwiperf_tx_start_passive
                0x00000000       0x66 build/default/production/_ext/309140075/lwiperf.o
 .text.lwiperf_tcp_recv
                0x00000000      0x1d2 build/default/production/_ext/309140075/lwiperf.o
 .text.lwiperf_tcp_err
                0x00000000       0x20 build/default/production/_ext/309140075/lwiperf.o
 .text.lwiperf_tcp_poll
                0x00000000       0x4c build/default/production/_ext/309140075/lwiperf.o
 .text.lwiperf_tcp_accept
                0x00000000      0x118 build/default/production/_ext/309140075/lwiperf.o
 .text.lwiperf_start_tcp_server_default
                0x00000000       0x28 build/default/production/_ext/309140075/lwiperf.o
 .text.lwiperf_start_tcp_server
                0x00000000       0x44 build/default/production/_ext/309140075/lwiperf.o
 .text.lwiperf_start_tcp_server_impl
                0x00000000       0xf0 build/default/production/_ext/309140075/lwiperf.o
 .text.lwiperf_start_tcp_client_default
                0x00000000       0x28 build/default/production/_ext/309140075/lwiperf.o
 .text.lwiperf_start_tcp_client
                0x00000000      0x11c build/default/production/_ext/309140075/lwiperf.o
 .text.lwiperf_abort
                0x00000000       0x64 build/default/production/_ext/309140075/lwiperf.o
 .debug_info    0x00000000     0x1791 build/default/production/_ext/309140075/lwiperf.o
 .debug_abbrev  0x00000000      0x30e build/default/production/_ext/309140075/lwiperf.o
 .debug_loc     0x00000000      0x667 build/default/production/_ext/309140075/lwiperf.o
 .debug_aranges
                0x00000000       0xb8 build/default/production/_ext/309140075/lwiperf.o
 .debug_ranges  0x00000000       0xa8 build/default/production/_ext/309140075/lwiperf.o
 .debug_line    0x00000000      0x8e9 build/default/production/_ext/309140075/lwiperf.o
 .debug_str     0x00000000      0xe91 build/default/production/_ext/309140075/lwiperf.o
 .comment       0x00000000       0x36 build/default/production/_ext/309140075/lwiperf.o
 .debug_frame   0x00000000      0x300 build/default/production/_ext/309140075/lwiperf.o
 .ARM.attributes
                0x00000000       0x32 build/default/production/_ext/309140075/lwiperf.o
 .text          0x00000000        0x0 build/default/production/_ext/1037736686/mdns.o
 .data          0x00000000        0x0 build/default/production/_ext/1037736686/mdns.o
 .bss           0x00000000        0x0 build/default/production/_ext/1037736686/mdns.o
 .debug_info    0x00000000       0x79 build/default/production/_ext/1037736686/mdns.o
 .debug_abbrev  0x00000000       0x26 build/default/production/_ext/1037736686/mdns.o
 .debug_aranges
                0x00000000       0x18 build/default/production/_ext/1037736686/mdns.o
 .debug_line    0x00000000       0x50 build/default/production/_ext/1037736686/mdns.o
 .debug_str     0x00000000      0x2d6 build/default/production/_ext/1037736686/mdns.o
 .comment       0x00000000       0x36 build/default/production/_ext/1037736686/mdns.o
 .ARM.attributes
                0x00000000       0x32 build/default/production/_ext/1037736686/mdns.o
 .text          0x00000000        0x0 build/default/production/_ext/1037749366/mqtt.o
 .data          0x00000000        0x0 build/default/production/_ext/1037749366/mqtt.o
 .bss           0x00000000        0x0 build/default/production/_ext/1037749366/mqtt.o
 .text.msg_generate_packet_id
                0x00000000       0x38 build/default/production/_ext/1037749366/mqtt.o
 .text.mqtt_ringbuf_put
                0x00000000       0x40 build/default/production/_ext/1037749366/mqtt.o
 .text.mqtt_ringbuf_get_ptr
                0x00000000       0x20 build/default/production/_ext/1037749366/mqtt.o
 .text.mqtt_ringbuf_advance_get_idx
                0x00000000       0x3c build/default/production/_ext/1037749366/mqtt.o
 .text.mqtt_ringbuf_len
                0x00000000       0x36 build/default/production/_ext/1037749366/mqtt.o
 .text.mqtt_output_send
                0x00000000      0x14a build/default/production/_ext/1037749366/mqtt.o
 .text.mqtt_create_request
                0x00000000       0x70 build/default/production/_ext/1037749366/mqtt.o
 .text.mqtt_append_request
                0x00000000       0x62 build/default/production/_ext/1037749366/mqtt.o
 .text.mqtt_delete_request
                0x00000000       0x20 build/default/production/_ext/1037749366/mqtt.o
 .text.mqtt_take_request
                0x00000000       0x88 build/default/production/_ext/1037749366/mqtt.o
 .text.mqtt_request_time_elapsed
                0x00000000       0x82 build/default/production/_ext/1037749366/mqtt.o
 .text.mqtt_clear_requests
                0x00000000       0x34 build/default/production/_ext/1037749366/mqtt.o
 .text.mqtt_init_requests
                0x00000000       0x3e build/default/production/_ext/1037749366/mqtt.o
 .text.mqtt_output_append_u8
                0x00000000       0x1e build/default/production/_ext/1037749366/mqtt.o
 .text.mqtt_output_append_u16
                0x00000000       0x30 build/default/production/_ext/1037749366/mqtt.o
 .text.mqtt_output_append_buf
                0x00000000       0x3c build/default/production/_ext/1037749366/mqtt.o
 .text.mqtt_output_append_string
                0x00000000       0x58 build/default/production/_ext/1037749366/mqtt.o
 .text.mqtt_output_append_fixed_header
                0x00000000       0x9a build/default/production/_ext/1037749366/mqtt.o
 .text.mqtt_output_check_space
                0x00000000       0x44 build/default/production/_ext/1037749366/mqtt.o
 .text.mqtt_close
                0x00000000       0xa0 build/default/production/_ext/1037749366/mqtt.o
 .text.mqtt_cyclic_timer
                0x00000000      0x110 build/default/production/_ext/1037749366/mqtt.o
 .text.pub_ack_rec_rel_response
                0x00000000       0x7a build/default/production/_ext/1037749366/mqtt.o
 .text.mqtt_incomming_suback
                0x00000000       0x36 build/default/production/_ext/1037749366/mqtt.o
 .text.mqtt_message_received
                0x00000000      0x314 build/default/production/_ext/1037749366/mqtt.o
 .text.mqtt_parse_incoming
                0x00000000      0x1ac build/default/production/_ext/1037749366/mqtt.o
 .text.mqtt_tcp_recv_cb
                0x00000000       0x7e build/default/production/_ext/1037749366/mqtt.o
 .text.mqtt_tcp_sent_cb
                0x00000000       0x74 build/default/production/_ext/1037749366/mqtt.o
 .text.mqtt_tcp_err_cb
                0x00000000       0x28 build/default/production/_ext/1037749366/mqtt.o
 .text.mqtt_tcp_poll_cb
                0x00000000       0x2c build/default/production/_ext/1037749366/mqtt.o
 .text.mqtt_tcp_connect_cb
                0x00000000       0x84 build/default/production/_ext/1037749366/mqtt.o
 .text.mqtt_publish
                0x00000000      0x138 build/default/production/_ext/1037749366/mqtt.o
 .text.mqtt_sub_unsub
                0x00000000      0x136 build/default/production/_ext/1037749366/mqtt.o
 .text.mqtt_set_inpub_callback
                0x00000000       0x2c build/default/production/_ext/1037749366/mqtt.o
 .text.mqtt_client_new
                0x00000000       0x14 build/default/production/_ext/1037749366/mqtt.o
 .text.mqtt_client_free
                0x00000000       0x16 build/default/production/_ext/1037749366/mqtt.o
 .rodata        0x00000000        0x5 build/default/production/_ext/1037749366/mqtt.o
 .text.mqtt_client_connect
                0x00000000      0x3b4 build/default/production/_ext/1037749366/mqtt.o
 .text.mqtt_disconnect
                0x00000000       0x26 build/default/production/_ext/1037749366/mqtt.o
 .text.mqtt_client_is_connected
                0x00000000       0x22 build/default/production/_ext/1037749366/mqtt.o
 .debug_info    0x00000000     0x1ede build/default/production/_ext/1037749366/mqtt.o
 .debug_abbrev  0x00000000      0x3c6 build/default/production/_ext/1037749366/mqtt.o
 .debug_loc     0x00000000      0xc4e build/default/production/_ext/1037749366/mqtt.o
 .debug_aranges
                0x00000000      0x148 build/default/production/_ext/1037749366/mqtt.o
 .debug_ranges  0x00000000      0x180 build/default/production/_ext/1037749366/mqtt.o
 .debug_line    0x00000000      0xf19 build/default/production/_ext/1037749366/mqtt.o
 .debug_str     0x00000000     0x126a build/default/production/_ext/1037749366/mqtt.o
 .comment       0x00000000       0x36 build/default/production/_ext/1037749366/mqtt.o
 .debug_frame   0x00000000      0x5ac build/default/production/_ext/1037749366/mqtt.o
 .ARM.attributes
                0x00000000       0x32 build/default/production/_ext/1037749366/mqtt.o
 .text          0x00000000        0x0 build/default/production/_ext/581206725/netbiosns.o
 .data          0x00000000        0x0 build/default/production/_ext/581206725/netbiosns.o
 .bss           0x00000000        0x0 build/default/production/_ext/581206725/netbiosns.o
 .bss.netbiosns_local_name
                0x00000000       0x10 build/default/production/_ext/581206725/netbiosns.o
 .bss.netbiosns_pcb
                0x00000000        0x4 build/default/production/_ext/581206725/netbiosns.o
 .text.netbiosns_name_decode
                0x00000000       0xa6 build/default/production/_ext/581206725/netbiosns.o
 .text.netbiosns_recv
                0x00000000      0x1a4 build/default/production/_ext/581206725/netbiosns.o
 .text.netbiosns_init
                0x00000000       0x58 build/default/production/_ext/581206725/netbiosns.o
 .text.netbiosns_set_name
                0x00000000       0x60 build/default/production/_ext/581206725/netbiosns.o
 .text.netbiosns_stop
                0x00000000       0x24 build/default/production/_ext/581206725/netbiosns.o
 .debug_info    0x00000000      0xb21 build/default/production/_ext/581206725/netbiosns.o
 .debug_abbrev  0x00000000      0x275 build/default/production/_ext/581206725/netbiosns.o
 .debug_loc     0x00000000      0x156 build/default/production/_ext/581206725/netbiosns.o
 .debug_aranges
                0x00000000       0x40 build/default/production/_ext/581206725/netbiosns.o
 .debug_ranges  0x00000000       0x30 build/default/production/_ext/581206725/netbiosns.o
 .debug_line    0x00000000      0x36a build/default/production/_ext/581206725/netbiosns.o
 .debug_str     0x00000000      0x96a build/default/production/_ext/581206725/netbiosns.o
 .comment       0x00000000       0x36 build/default/production/_ext/581206725/netbiosns.o
 .debug_frame   0x00000000       0xb8 build/default/production/_ext/581206725/netbiosns.o
 .ARM.attributes
                0x00000000       0x32 build/default/production/_ext/581206725/netbiosns.o
 .text          0x00000000        0x0 build/default/production/_ext/1037924264/smtp.o
 .data          0x00000000        0x0 build/default/production/_ext/1037924264/smtp.o
 .bss           0x00000000        0x0 build/default/production/_ext/1037924264/smtp.o
 .bss.smtp_server
                0x00000000      0x101 build/default/production/_ext/1037924264/smtp.o
 .data.smtp_server_port
                0x00000000        0x2 build/default/production/_ext/1037924264/smtp.o
 .bss.smtp_username
                0x00000000        0x4 build/default/production/_ext/1037924264/smtp.o
 .bss.smtp_pass
                0x00000000        0x4 build/default/production/_ext/1037924264/smtp.o
 .bss.smtp_auth_plain
                0x00000000       0x43 build/default/production/_ext/1037924264/smtp.o
 .bss.smtp_auth_plain_len
                0x00000000        0x4 build/default/production/_ext/1037924264/smtp.o
 .text.smtp_set_server_addr
                0x00000000       0x50 build/default/production/_ext/1037924264/smtp.o
 .text.smtp_set_server_port
                0x00000000       0x20 build/default/production/_ext/1037924264/smtp.o
 .text.smtp_set_auth
                0x00000000       0xb8 build/default/production/_ext/1037924264/smtp.o
 .text.smtp_setup_pcb
                0x00000000       0x5c build/default/production/_ext/1037924264/smtp.o
 .text.smtp_send_mail_alloced
                0x00000000      0x1c4 build/default/production/_ext/1037924264/smtp.o
 .text.smtp_send_mail
                0x00000000      0x140 build/default/production/_ext/1037924264/smtp.o
 .text.smtp_send_mail_static
                0x00000000       0xb8 build/default/production/_ext/1037924264/smtp.o
 .text.smtp_send_mail_int
                0x00000000       0x90 build/default/production/_ext/1037924264/smtp.o
 .text.smtp_verify
                0x00000000       0x86 build/default/production/_ext/1037924264/smtp.o
 .text.smtp_free
                0x00000000       0x62 build/default/production/_ext/1037924264/smtp.o
 .text.smtp_close
                0x00000000       0x6c build/default/production/_ext/1037924264/smtp.o
 .text.smtp_tcp_err
                0x00000000       0x28 build/default/production/_ext/1037924264/smtp.o
 .text.smtp_tcp_poll
                0x00000000       0x3c build/default/production/_ext/1037924264/smtp.o
 .text.smtp_tcp_sent
                0x00000000       0x22 build/default/production/_ext/1037924264/smtp.o
 .text.smtp_tcp_recv
                0x00000000       0x48 build/default/production/_ext/1037924264/smtp.o
 .text.smtp_tcp_connected
                0x00000000       0x32 build/default/production/_ext/1037924264/smtp.o
 .rodata.base64_table
                0x00000000       0x40 build/default/production/_ext/1037924264/smtp.o
 .text.smtp_base64_encode
                0x00000000      0x140 build/default/production/_ext/1037924264/smtp.o
 .text.smtp_is_response
                0x00000000       0x64 build/default/production/_ext/1037924264/smtp.o
 .rodata        0x00000000       0xcf build/default/production/_ext/1037924264/smtp.o
 .text.smtp_is_response_finished
                0x00000000       0xa0 build/default/production/_ext/1037924264/smtp.o
 .text.smtp_prepare_helo
                0x00000000       0x6c build/default/production/_ext/1037924264/smtp.o
 .text.smtp_prepare_auth_or_mail
                0x00000000      0x14c build/default/production/_ext/1037924264/smtp.o
 .text.smtp_prepare_auth_login_uname
                0x00000000       0x68 build/default/production/_ext/1037924264/smtp.o
 .text.smtp_prepare_auth_login_pass
                0x00000000       0x68 build/default/production/_ext/1037924264/smtp.o
 .text.smtp_prepare_mail
                0x00000000       0x7c build/default/production/_ext/1037924264/smtp.o
 .text.smtp_prepare_rcpt
                0x00000000       0x7c build/default/production/_ext/1037924264/smtp.o
 .text.smtp_prepare_header
                0x00000000       0xfc build/default/production/_ext/1037924264/smtp.o
 .text.smtp_prepare_quit
                0x00000000       0x3c build/default/production/_ext/1037924264/smtp.o
 .text.smtp_send_body
                0x00000000       0xc4 build/default/production/_ext/1037924264/smtp.o
 .text.smtp_process
                0x00000000      0x2f0 build/default/production/_ext/1037924264/smtp.o
 .debug_info    0x00000000     0x1bee build/default/production/_ext/1037924264/smtp.o
 .debug_abbrev  0x00000000      0x2c6 build/default/production/_ext/1037924264/smtp.o
 .debug_loc     0x00000000      0x936 build/default/production/_ext/1037924264/smtp.o
 .debug_aranges
                0x00000000      0x100 build/default/production/_ext/1037924264/smtp.o
 .debug_ranges  0x00000000       0xf0 build/default/production/_ext/1037924264/smtp.o
 .debug_line    0x00000000      0xb72 build/default/production/_ext/1037924264/smtp.o
 .debug_str     0x00000000      0xf82 build/default/production/_ext/1037924264/smtp.o
 .comment       0x00000000       0x36 build/default/production/_ext/1037924264/smtp.o
 .debug_frame   0x00000000      0x448 build/default/production/_ext/1037924264/smtp.o
 .ARM.attributes
                0x00000000       0x32 build/default/production/_ext/1037924264/smtp.o
 .text          0x00000000        0x0 build/default/production/_ext/1037925008/snmpv3.o
 .data          0x00000000        0x0 build/default/production/_ext/1037925008/snmpv3.o
 .bss           0x00000000        0x0 build/default/production/_ext/1037925008/snmpv3.o
 .debug_info    0x00000000       0x79 build/default/production/_ext/1037925008/snmpv3.o
 .debug_abbrev  0x00000000       0x26 build/default/production/_ext/1037925008/snmpv3.o
 .debug_aranges
                0x00000000       0x18 build/default/production/_ext/1037925008/snmpv3.o
 .debug_line    0x00000000       0x52 build/default/production/_ext/1037925008/snmpv3.o
 .debug_str     0x00000000      0x2d8 build/default/production/_ext/1037925008/snmpv3.o
 .comment       0x00000000       0x36 build/default/production/_ext/1037925008/snmpv3.o
 .ARM.attributes
                0x00000000       0x32 build/default/production/_ext/1037925008/snmpv3.o
 .text          0x00000000        0x0 build/default/production/_ext/1037925008/snmpv3_mbedtls.o
 .data          0x00000000        0x0 build/default/production/_ext/1037925008/snmpv3_mbedtls.o
 .bss           0x00000000        0x0 build/default/production/_ext/1037925008/snmpv3_mbedtls.o
 .debug_info    0x00000000       0x79 build/default/production/_ext/1037925008/snmpv3_mbedtls.o
 .debug_abbrev  0x00000000       0x26 build/default/production/_ext/1037925008/snmpv3_mbedtls.o
 .debug_aranges
                0x00000000       0x18 build/default/production/_ext/1037925008/snmpv3_mbedtls.o
 .debug_line    0x00000000       0x5a build/default/production/_ext/1037925008/snmpv3_mbedtls.o
 .debug_str     0x00000000      0x2e0 build/default/production/_ext/1037925008/snmpv3_mbedtls.o
 .comment       0x00000000       0x36 build/default/production/_ext/1037925008/snmpv3_mbedtls.o
 .ARM.attributes
                0x00000000       0x32 build/default/production/_ext/1037925008/snmpv3_mbedtls.o
 .text          0x00000000        0x0 build/default/production/_ext/1037925008/snmp_asn1.o
 .data          0x00000000        0x0 build/default/production/_ext/1037925008/snmp_asn1.o
 .bss           0x00000000        0x0 build/default/production/_ext/1037925008/snmp_asn1.o
 .debug_info    0x00000000       0x79 build/default/production/_ext/1037925008/snmp_asn1.o
 .debug_abbrev  0x00000000       0x26 build/default/production/_ext/1037925008/snmp_asn1.o
 .debug_aranges
                0x00000000       0x18 build/default/production/_ext/1037925008/snmp_asn1.o
 .debug_line    0x00000000       0x55 build/default/production/_ext/1037925008/snmp_asn1.o
 .debug_str     0x00000000      0x2db build/default/production/_ext/1037925008/snmp_asn1.o
 .comment       0x00000000       0x36 build/default/production/_ext/1037925008/snmp_asn1.o
 .ARM.attributes
                0x00000000       0x32 build/default/production/_ext/1037925008/snmp_asn1.o
 .text          0x00000000        0x0 build/default/production/_ext/1037925008/snmp_core.o
 .data          0x00000000        0x0 build/default/production/_ext/1037925008/snmp_core.o
 .bss           0x00000000        0x0 build/default/production/_ext/1037925008/snmp_core.o
 .debug_info    0x00000000       0x79 build/default/production/_ext/1037925008/snmp_core.o
 .debug_abbrev  0x00000000       0x26 build/default/production/_ext/1037925008/snmp_core.o
 .debug_aranges
                0x00000000       0x18 build/default/production/_ext/1037925008/snmp_core.o
 .debug_line    0x00000000       0x55 build/default/production/_ext/1037925008/snmp_core.o
 .debug_str     0x00000000      0x2db build/default/production/_ext/1037925008/snmp_core.o
 .comment       0x00000000       0x36 build/default/production/_ext/1037925008/snmp_core.o
 .ARM.attributes
                0x00000000       0x32 build/default/production/_ext/1037925008/snmp_core.o
 .text          0x00000000        0x0 build/default/production/_ext/1037925008/snmp_mib2.o
 .data          0x00000000        0x0 build/default/production/_ext/1037925008/snmp_mib2.o
 .bss           0x00000000        0x0 build/default/production/_ext/1037925008/snmp_mib2.o
 .debug_info    0x00000000       0x79 build/default/production/_ext/1037925008/snmp_mib2.o
 .debug_abbrev  0x00000000       0x26 build/default/production/_ext/1037925008/snmp_mib2.o
 .debug_aranges
                0x00000000       0x18 build/default/production/_ext/1037925008/snmp_mib2.o
 .debug_line    0x00000000       0x55 build/default/production/_ext/1037925008/snmp_mib2.o
 .debug_str     0x00000000      0x2db build/default/production/_ext/1037925008/snmp_mib2.o
 .comment       0x00000000       0x36 build/default/production/_ext/1037925008/snmp_mib2.o
 .ARM.attributes
                0x00000000       0x32 build/default/production/_ext/1037925008/snmp_mib2.o
 .text          0x00000000        0x0 build/default/production/_ext/1037925008/snmp_mib2_icmp.o
 .data          0x00000000        0x0 build/default/production/_ext/1037925008/snmp_mib2_icmp.o
 .bss           0x00000000        0x0 build/default/production/_ext/1037925008/snmp_mib2_icmp.o
 .debug_info    0x00000000       0x79 build/default/production/_ext/1037925008/snmp_mib2_icmp.o
 .debug_abbrev  0x00000000       0x26 build/default/production/_ext/1037925008/snmp_mib2_icmp.o
 .debug_aranges
                0x00000000       0x18 build/default/production/_ext/1037925008/snmp_mib2_icmp.o
 .debug_line    0x00000000       0x5a build/default/production/_ext/1037925008/snmp_mib2_icmp.o
 .debug_str     0x00000000      0x2e0 build/default/production/_ext/1037925008/snmp_mib2_icmp.o
 .comment       0x00000000       0x36 build/default/production/_ext/1037925008/snmp_mib2_icmp.o
 .ARM.attributes
                0x00000000       0x32 build/default/production/_ext/1037925008/snmp_mib2_icmp.o
 .text          0x00000000        0x0 build/default/production/_ext/1037925008/snmp_mib2_interfaces.o
 .data          0x00000000        0x0 build/default/production/_ext/1037925008/snmp_mib2_interfaces.o
 .bss           0x00000000        0x0 build/default/production/_ext/1037925008/snmp_mib2_interfaces.o
 .debug_info    0x00000000       0x79 build/default/production/_ext/1037925008/snmp_mib2_interfaces.o
 .debug_abbrev  0x00000000       0x26 build/default/production/_ext/1037925008/snmp_mib2_interfaces.o
 .debug_aranges
                0x00000000       0x18 build/default/production/_ext/1037925008/snmp_mib2_interfaces.o
 .debug_line    0x00000000       0x60 build/default/production/_ext/1037925008/snmp_mib2_interfaces.o
 .debug_str     0x00000000      0x2e6 build/default/production/_ext/1037925008/snmp_mib2_interfaces.o
 .comment       0x00000000       0x36 build/default/production/_ext/1037925008/snmp_mib2_interfaces.o
 .ARM.attributes
                0x00000000       0x32 build/default/production/_ext/1037925008/snmp_mib2_interfaces.o
 .text          0x00000000        0x0 build/default/production/_ext/1037925008/snmp_mib2_ip.o
 .data          0x00000000        0x0 build/default/production/_ext/1037925008/snmp_mib2_ip.o
 .bss           0x00000000        0x0 build/default/production/_ext/1037925008/snmp_mib2_ip.o
 .debug_info    0x00000000       0x79 build/default/production/_ext/1037925008/snmp_mib2_ip.o
 .debug_abbrev  0x00000000       0x26 build/default/production/_ext/1037925008/snmp_mib2_ip.o
 .debug_aranges
                0x00000000       0x18 build/default/production/_ext/1037925008/snmp_mib2_ip.o
 .debug_line    0x00000000       0x58 build/default/production/_ext/1037925008/snmp_mib2_ip.o
 .debug_str     0x00000000      0x2de build/default/production/_ext/1037925008/snmp_mib2_ip.o
 .comment       0x00000000       0x36 build/default/production/_ext/1037925008/snmp_mib2_ip.o
 .ARM.attributes
                0x00000000       0x32 build/default/production/_ext/1037925008/snmp_mib2_ip.o
 .text          0x00000000        0x0 build/default/production/_ext/1037925008/snmp_mib2_snmp.o
 .data          0x00000000        0x0 build/default/production/_ext/1037925008/snmp_mib2_snmp.o
 .bss           0x00000000        0x0 build/default/production/_ext/1037925008/snmp_mib2_snmp.o
 .debug_info    0x00000000       0x79 build/default/production/_ext/1037925008/snmp_mib2_snmp.o
 .debug_abbrev  0x00000000       0x26 build/default/production/_ext/1037925008/snmp_mib2_snmp.o
 .debug_aranges
                0x00000000       0x18 build/default/production/_ext/1037925008/snmp_mib2_snmp.o
 .debug_line    0x00000000       0x5a build/default/production/_ext/1037925008/snmp_mib2_snmp.o
 .debug_str     0x00000000      0x2e0 build/default/production/_ext/1037925008/snmp_mib2_snmp.o
 .comment       0x00000000       0x36 build/default/production/_ext/1037925008/snmp_mib2_snmp.o
 .ARM.attributes
                0x00000000       0x32 build/default/production/_ext/1037925008/snmp_mib2_snmp.o
 .text          0x00000000        0x0 build/default/production/_ext/1037925008/snmp_mib2_system.o
 .data          0x00000000        0x0 build/default/production/_ext/1037925008/snmp_mib2_system.o
 .bss           0x00000000        0x0 build/default/production/_ext/1037925008/snmp_mib2_system.o
 .debug_info    0x00000000       0x79 build/default/production/_ext/1037925008/snmp_mib2_system.o
 .debug_abbrev  0x00000000       0x26 build/default/production/_ext/1037925008/snmp_mib2_system.o
 .debug_aranges
                0x00000000       0x18 build/default/production/_ext/1037925008/snmp_mib2_system.o
 .debug_line    0x00000000       0x5c build/default/production/_ext/1037925008/snmp_mib2_system.o
 .debug_str     0x00000000      0x2e2 build/default/production/_ext/1037925008/snmp_mib2_system.o
 .comment       0x00000000       0x36 build/default/production/_ext/1037925008/snmp_mib2_system.o
 .ARM.attributes
                0x00000000       0x32 build/default/production/_ext/1037925008/snmp_mib2_system.o
 .text          0x00000000        0x0 build/default/production/_ext/1037925008/snmp_mib2_tcp.o
 .data          0x00000000        0x0 build/default/production/_ext/1037925008/snmp_mib2_tcp.o
 .bss           0x00000000        0x0 build/default/production/_ext/1037925008/snmp_mib2_tcp.o
 .debug_info    0x00000000       0x79 build/default/production/_ext/1037925008/snmp_mib2_tcp.o
 .debug_abbrev  0x00000000       0x26 build/default/production/_ext/1037925008/snmp_mib2_tcp.o
 .debug_aranges
                0x00000000       0x18 build/default/production/_ext/1037925008/snmp_mib2_tcp.o
 .debug_line    0x00000000       0x59 build/default/production/_ext/1037925008/snmp_mib2_tcp.o
 .debug_str     0x00000000      0x2df build/default/production/_ext/1037925008/snmp_mib2_tcp.o
 .comment       0x00000000       0x36 build/default/production/_ext/1037925008/snmp_mib2_tcp.o
 .ARM.attributes
                0x00000000       0x32 build/default/production/_ext/1037925008/snmp_mib2_tcp.o
 .text          0x00000000        0x0 build/default/production/_ext/1037925008/snmp_mib2_udp.o
 .data          0x00000000        0x0 build/default/production/_ext/1037925008/snmp_mib2_udp.o
 .bss           0x00000000        0x0 build/default/production/_ext/1037925008/snmp_mib2_udp.o
 .debug_info    0x00000000       0x79 build/default/production/_ext/1037925008/snmp_mib2_udp.o
 .debug_abbrev  0x00000000       0x26 build/default/production/_ext/1037925008/snmp_mib2_udp.o
 .debug_aranges
                0x00000000       0x18 build/default/production/_ext/1037925008/snmp_mib2_udp.o
 .debug_line    0x00000000       0x59 build/default/production/_ext/1037925008/snmp_mib2_udp.o
 .debug_str     0x00000000      0x2df build/default/production/_ext/1037925008/snmp_mib2_udp.o
 .comment       0x00000000       0x36 build/default/production/_ext/1037925008/snmp_mib2_udp.o
 .ARM.attributes
                0x00000000       0x32 build/default/production/_ext/1037925008/snmp_mib2_udp.o
 .text          0x00000000        0x0 build/default/production/_ext/1037925008/snmp_msg.o
 .data          0x00000000        0x0 build/default/production/_ext/1037925008/snmp_msg.o
 .bss           0x00000000        0x0 build/default/production/_ext/1037925008/snmp_msg.o
 .debug_info    0x00000000       0x79 build/default/production/_ext/1037925008/snmp_msg.o
 .debug_abbrev  0x00000000       0x26 build/default/production/_ext/1037925008/snmp_msg.o
 .debug_aranges
                0x00000000       0x18 build/default/production/_ext/1037925008/snmp_msg.o
 .debug_line    0x00000000       0x54 build/default/production/_ext/1037925008/snmp_msg.o
 .debug_str     0x00000000      0x2da build/default/production/_ext/1037925008/snmp_msg.o
 .comment       0x00000000       0x36 build/default/production/_ext/1037925008/snmp_msg.o
 .ARM.attributes
                0x00000000       0x32 build/default/production/_ext/1037925008/snmp_msg.o
 .text          0x00000000        0x0 build/default/production/_ext/1037925008/snmp_netconn.o
 .data          0x00000000        0x0 build/default/production/_ext/1037925008/snmp_netconn.o
 .bss           0x00000000        0x0 build/default/production/_ext/1037925008/snmp_netconn.o
 .debug_info    0x00000000       0x79 build/default/production/_ext/1037925008/snmp_netconn.o
 .debug_abbrev  0x00000000       0x26 build/default/production/_ext/1037925008/snmp_netconn.o
 .debug_aranges
                0x00000000       0x18 build/default/production/_ext/1037925008/snmp_netconn.o
 .debug_line    0x00000000       0x58 build/default/production/_ext/1037925008/snmp_netconn.o
 .debug_str     0x00000000      0x2de build/default/production/_ext/1037925008/snmp_netconn.o
 .comment       0x00000000       0x36 build/default/production/_ext/1037925008/snmp_netconn.o
 .ARM.attributes
                0x00000000       0x32 build/default/production/_ext/1037925008/snmp_netconn.o
 .text          0x00000000        0x0 build/default/production/_ext/1037925008/snmp_pbuf_stream.o
 .data          0x00000000        0x0 build/default/production/_ext/1037925008/snmp_pbuf_stream.o
 .bss           0x00000000        0x0 build/default/production/_ext/1037925008/snmp_pbuf_stream.o
 .debug_info    0x00000000       0x79 build/default/production/_ext/1037925008/snmp_pbuf_stream.o
 .debug_abbrev  0x00000000       0x26 build/default/production/_ext/1037925008/snmp_pbuf_stream.o
 .debug_aranges
                0x00000000       0x18 build/default/production/_ext/1037925008/snmp_pbuf_stream.o
 .debug_line    0x00000000       0x5c build/default/production/_ext/1037925008/snmp_pbuf_stream.o
 .debug_str     0x00000000      0x2e2 build/default/production/_ext/1037925008/snmp_pbuf_stream.o
 .comment       0x00000000       0x36 build/default/production/_ext/1037925008/snmp_pbuf_stream.o
 .ARM.attributes
                0x00000000       0x32 build/default/production/_ext/1037925008/snmp_pbuf_stream.o
 .text          0x00000000        0x0 build/default/production/_ext/1037925008/snmp_raw.o
 .data          0x00000000        0x0 build/default/production/_ext/1037925008/snmp_raw.o
 .bss           0x00000000        0x0 build/default/production/_ext/1037925008/snmp_raw.o
 .debug_info    0x00000000       0x79 build/default/production/_ext/1037925008/snmp_raw.o
 .debug_abbrev  0x00000000       0x26 build/default/production/_ext/1037925008/snmp_raw.o
 .debug_aranges
                0x00000000       0x18 build/default/production/_ext/1037925008/snmp_raw.o
 .debug_line    0x00000000       0x54 build/default/production/_ext/1037925008/snmp_raw.o
 .debug_str     0x00000000      0x2da build/default/production/_ext/1037925008/snmp_raw.o
 .comment       0x00000000       0x36 build/default/production/_ext/1037925008/snmp_raw.o
 .ARM.attributes
                0x00000000       0x32 build/default/production/_ext/1037925008/snmp_raw.o
 .text          0x00000000        0x0 build/default/production/_ext/1037925008/snmp_scalar.o
 .data          0x00000000        0x0 build/default/production/_ext/1037925008/snmp_scalar.o
 .bss           0x00000000        0x0 build/default/production/_ext/1037925008/snmp_scalar.o
 .debug_info    0x00000000       0x79 build/default/production/_ext/1037925008/snmp_scalar.o
 .debug_abbrev  0x00000000       0x26 build/default/production/_ext/1037925008/snmp_scalar.o
 .debug_aranges
                0x00000000       0x18 build/default/production/_ext/1037925008/snmp_scalar.o
 .debug_line    0x00000000       0x57 build/default/production/_ext/1037925008/snmp_scalar.o
 .debug_str     0x00000000      0x2dd build/default/production/_ext/1037925008/snmp_scalar.o
 .comment       0x00000000       0x36 build/default/production/_ext/1037925008/snmp_scalar.o
 .ARM.attributes
                0x00000000       0x32 build/default/production/_ext/1037925008/snmp_scalar.o
 .text          0x00000000        0x0 build/default/production/_ext/1037925008/snmp_snmpv2_framework.o
 .data          0x00000000        0x0 build/default/production/_ext/1037925008/snmp_snmpv2_framework.o
 .bss           0x00000000        0x0 build/default/production/_ext/1037925008/snmp_snmpv2_framework.o
 .debug_info    0x00000000       0x79 build/default/production/_ext/1037925008/snmp_snmpv2_framework.o
 .debug_abbrev  0x00000000       0x26 build/default/production/_ext/1037925008/snmp_snmpv2_framework.o
 .debug_aranges
                0x00000000       0x18 build/default/production/_ext/1037925008/snmp_snmpv2_framework.o
 .debug_line    0x00000000       0x61 build/default/production/_ext/1037925008/snmp_snmpv2_framework.o
 .debug_str     0x00000000      0x2e7 build/default/production/_ext/1037925008/snmp_snmpv2_framework.o
 .comment       0x00000000       0x36 build/default/production/_ext/1037925008/snmp_snmpv2_framework.o
 .ARM.attributes
                0x00000000       0x32 build/default/production/_ext/1037925008/snmp_snmpv2_framework.o
 .text          0x00000000        0x0 build/default/production/_ext/1037925008/snmp_snmpv2_usm.o
 .data          0x00000000        0x0 build/default/production/_ext/1037925008/snmp_snmpv2_usm.o
 .bss           0x00000000        0x0 build/default/production/_ext/1037925008/snmp_snmpv2_usm.o
 .debug_info    0x00000000       0x79 build/default/production/_ext/1037925008/snmp_snmpv2_usm.o
 .debug_abbrev  0x00000000       0x26 build/default/production/_ext/1037925008/snmp_snmpv2_usm.o
 .debug_aranges
                0x00000000       0x18 build/default/production/_ext/1037925008/snmp_snmpv2_usm.o
 .debug_line    0x00000000       0x5b build/default/production/_ext/1037925008/snmp_snmpv2_usm.o
 .debug_str     0x00000000      0x2e1 build/default/production/_ext/1037925008/snmp_snmpv2_usm.o
 .comment       0x00000000       0x36 build/default/production/_ext/1037925008/snmp_snmpv2_usm.o
 .ARM.attributes
                0x00000000       0x32 build/default/production/_ext/1037925008/snmp_snmpv2_usm.o
 .text          0x00000000        0x0 build/default/production/_ext/1037925008/snmp_table.o
 .data          0x00000000        0x0 build/default/production/_ext/1037925008/snmp_table.o
 .bss           0x00000000        0x0 build/default/production/_ext/1037925008/snmp_table.o
 .debug_info    0x00000000       0x79 build/default/production/_ext/1037925008/snmp_table.o
 .debug_abbrev  0x00000000       0x26 build/default/production/_ext/1037925008/snmp_table.o
 .debug_aranges
                0x00000000       0x18 build/default/production/_ext/1037925008/snmp_table.o
 .debug_line    0x00000000       0x56 build/default/production/_ext/1037925008/snmp_table.o
 .debug_str     0x00000000      0x2dc build/default/production/_ext/1037925008/snmp_table.o
 .comment       0x00000000       0x36 build/default/production/_ext/1037925008/snmp_table.o
 .ARM.attributes
                0x00000000       0x32 build/default/production/_ext/1037925008/snmp_table.o
 .text          0x00000000        0x0 build/default/production/_ext/1037925008/snmp_threadsync.o
 .data          0x00000000        0x0 build/default/production/_ext/1037925008/snmp_threadsync.o
 .bss           0x00000000        0x0 build/default/production/_ext/1037925008/snmp_threadsync.o
 .debug_info    0x00000000       0x79 build/default/production/_ext/1037925008/snmp_threadsync.o
 .debug_abbrev  0x00000000       0x26 build/default/production/_ext/1037925008/snmp_threadsync.o
 .debug_aranges
                0x00000000       0x18 build/default/production/_ext/1037925008/snmp_threadsync.o
 .debug_line    0x00000000       0x5b build/default/production/_ext/1037925008/snmp_threadsync.o
 .debug_str     0x00000000      0x2e1 build/default/production/_ext/1037925008/snmp_threadsync.o
 .comment       0x00000000       0x36 build/default/production/_ext/1037925008/snmp_threadsync.o
 .ARM.attributes
                0x00000000       0x32 build/default/production/_ext/1037925008/snmp_threadsync.o
 .text          0x00000000        0x0 build/default/production/_ext/1037925008/snmp_traps.o
 .data          0x00000000        0x0 build/default/production/_ext/1037925008/snmp_traps.o
 .bss           0x00000000        0x0 build/default/production/_ext/1037925008/snmp_traps.o
 .debug_info    0x00000000       0x79 build/default/production/_ext/1037925008/snmp_traps.o
 .debug_abbrev  0x00000000       0x26 build/default/production/_ext/1037925008/snmp_traps.o
 .debug_aranges
                0x00000000       0x18 build/default/production/_ext/1037925008/snmp_traps.o
 .debug_line    0x00000000       0x56 build/default/production/_ext/1037925008/snmp_traps.o
 .debug_str     0x00000000      0x2dc build/default/production/_ext/1037925008/snmp_traps.o
 .comment       0x00000000       0x36 build/default/production/_ext/1037925008/snmp_traps.o
 .ARM.attributes
                0x00000000       0x32 build/default/production/_ext/1037925008/snmp_traps.o
 .text          0x00000000        0x0 build/default/production/_ext/1037925225/sntp.o
 .data          0x00000000        0x0 build/default/production/_ext/1037925225/sntp.o
 .bss           0x00000000        0x0 build/default/production/_ext/1037925225/sntp.o
 .bss.sntp_opmode
                0x00000000        0x1 build/default/production/_ext/1037925225/sntp.o
 .bss.sntp_pcb  0x00000000        0x4 build/default/production/_ext/1037925225/sntp.o
 .bss.sntp_servers
                0x00000000        0x8 build/default/production/_ext/1037925225/sntp.o
 .bss.sntp_retry_timeout
                0x00000000        0x4 build/default/production/_ext/1037925225/sntp.o
 .text.sntp_process
                0x00000000       0x2a build/default/production/_ext/1037925225/sntp.o
 .text.sntp_initialize_request
                0x00000000       0x20 build/default/production/_ext/1037925225/sntp.o
 .text.sntp_retry
                0x00000000       0x4c build/default/production/_ext/1037925225/sntp.o
 .text.sntp_recv
                0x00000000      0x104 build/default/production/_ext/1037925225/sntp.o
 .text.sntp_send_request
                0x00000000       0x7c build/default/production/_ext/1037925225/sntp.o
 .text.sntp_request
                0x00000000       0x50 build/default/production/_ext/1037925225/sntp.o
 .text.sntp_init
                0x00000000       0x88 build/default/production/_ext/1037925225/sntp.o
 .text.sntp_stop
                0x00000000       0x64 build/default/production/_ext/1037925225/sntp.o
 .text.sntp_enabled
                0x00000000       0x20 build/default/production/_ext/1037925225/sntp.o
 .text.sntp_setoperatingmode
                0x00000000       0x20 build/default/production/_ext/1037925225/sntp.o
 .text.sntp_getoperatingmode
                0x00000000       0x18 build/default/production/_ext/1037925225/sntp.o
 .text.sntp_getreachability
                0x00000000       0x30 build/default/production/_ext/1037925225/sntp.o
 .text.sntp_setserver
                0x00000000       0x40 build/default/production/_ext/1037925225/sntp.o
 .text.sntp_getserver
                0x00000000       0x30 build/default/production/_ext/1037925225/sntp.o
 .debug_info    0x00000000      0xb90 build/default/production/_ext/1037925225/sntp.o
 .debug_abbrev  0x00000000      0x253 build/default/production/_ext/1037925225/sntp.o
 .debug_loc     0x00000000      0x454 build/default/production/_ext/1037925225/sntp.o
 .debug_aranges
                0x00000000       0x88 build/default/production/_ext/1037925225/sntp.o
 .debug_ranges  0x00000000       0x78 build/default/production/_ext/1037925225/sntp.o
 .debug_line    0x00000000      0x45a build/default/production/_ext/1037925225/sntp.o
 .debug_str     0x00000000      0xa62 build/default/production/_ext/1037925225/sntp.o
 .comment       0x00000000       0x36 build/default/production/_ext/1037925225/sntp.o
 .debug_frame   0x00000000      0x208 build/default/production/_ext/1037925225/sntp.o
 .ARM.attributes
                0x00000000       0x32 build/default/production/_ext/1037925225/sntp.o
 .text          0x00000000        0x0 build/default/production/_ext/1037947328/tftp_server.o
 .data          0x00000000        0x0 build/default/production/_ext/1037947328/tftp_server.o
 .bss           0x00000000        0x0 build/default/production/_ext/1037947328/tftp_server.o
 .bss.tftp_state
                0x00000000       0x24 build/default/production/_ext/1037947328/tftp_server.o
 .text.close_handle
                0x00000000       0x58 build/default/production/_ext/1037947328/tftp_server.o
 .text.send_error
                0x00000000       0x8c build/default/production/_ext/1037947328/tftp_server.o
 .text.send_ack
                0x00000000       0x64 build/default/production/_ext/1037947328/tftp_server.o
 .text.resend_data
                0x00000000       0x64 build/default/production/_ext/1037947328/tftp_server.o
 .rodata        0x00000000      0x13a build/default/production/_ext/1037947328/tftp_server.o
 .text.send_data
                0x00000000       0xb4 build/default/production/_ext/1037947328/tftp_server.o
 .text.recv     0x00000000      0x390 build/default/production/_ext/1037947328/tftp_server.o
 .text.tftp_tmr
                0x00000000       0x74 build/default/production/_ext/1037947328/tftp_server.o
 .text.tftp_init
                0x00000000       0x84 build/default/production/_ext/1037947328/tftp_server.o
 .text.tftp_cleanup
                0x00000000       0x24 build/default/production/_ext/1037947328/tftp_server.o
 .debug_info    0x00000000      0xbf8 build/default/production/_ext/1037947328/tftp_server.o
 .debug_abbrev  0x00000000      0x283 build/default/production/_ext/1037947328/tftp_server.o
 .debug_loc     0x00000000      0x28a build/default/production/_ext/1037947328/tftp_server.o
 .debug_aranges
                0x00000000       0x60 build/default/production/_ext/1037947328/tftp_server.o
 .debug_ranges  0x00000000       0x50 build/default/production/_ext/1037947328/tftp_server.o
 .debug_line    0x00000000      0x565 build/default/production/_ext/1037947328/tftp_server.o
 .debug_str     0x00000000      0xa10 build/default/production/_ext/1037947328/tftp_server.o
 .comment       0x00000000       0x36 build/default/production/_ext/1037947328/tftp_server.o
 .debug_frame   0x00000000      0x154 build/default/production/_ext/1037947328/tftp_server.o
 .ARM.attributes
                0x00000000       0x32 build/default/production/_ext/1037947328/tftp_server.o
 .text          0x00000000        0x0 build/default/production/_ext/1264479574/altcp.o
 .data          0x00000000        0x0 build/default/production/_ext/1264479574/altcp.o
 .bss           0x00000000        0x0 build/default/production/_ext/1264479574/altcp.o
 .debug_info    0x00000000       0x79 build/default/production/_ext/1264479574/altcp.o
 .debug_abbrev  0x00000000       0x26 build/default/production/_ext/1264479574/altcp.o
 .debug_aranges
                0x00000000       0x18 build/default/production/_ext/1264479574/altcp.o
 .debug_line    0x00000000       0x4c build/default/production/_ext/1264479574/altcp.o
 .debug_str     0x00000000      0x2d2 build/default/production/_ext/1264479574/altcp.o
 .comment       0x00000000       0x36 build/default/production/_ext/1264479574/altcp.o
 .ARM.attributes
                0x00000000       0x32 build/default/production/_ext/1264479574/altcp.o
 .text          0x00000000        0x0 build/default/production/_ext/1264479574/altcp_alloc.o
 .data          0x00000000        0x0 build/default/production/_ext/1264479574/altcp_alloc.o
 .bss           0x00000000        0x0 build/default/production/_ext/1264479574/altcp_alloc.o
 .debug_info    0x00000000       0x79 build/default/production/_ext/1264479574/altcp_alloc.o
 .debug_abbrev  0x00000000       0x26 build/default/production/_ext/1264479574/altcp_alloc.o
 .debug_aranges
                0x00000000       0x18 build/default/production/_ext/1264479574/altcp_alloc.o
 .debug_line    0x00000000       0x52 build/default/production/_ext/1264479574/altcp_alloc.o
 .debug_str     0x00000000      0x2d8 build/default/production/_ext/1264479574/altcp_alloc.o
 .comment       0x00000000       0x36 build/default/production/_ext/1264479574/altcp_alloc.o
 .ARM.attributes
                0x00000000       0x32 build/default/production/_ext/1264479574/altcp_alloc.o
 .text          0x00000000        0x0 build/default/production/_ext/1264479574/altcp_tcp.o
 .data          0x00000000        0x0 build/default/production/_ext/1264479574/altcp_tcp.o
 .bss           0x00000000        0x0 build/default/production/_ext/1264479574/altcp_tcp.o
 .debug_info    0x00000000       0x79 build/default/production/_ext/1264479574/altcp_tcp.o
 .debug_abbrev  0x00000000       0x26 build/default/production/_ext/1264479574/altcp_tcp.o
 .debug_aranges
                0x00000000       0x18 build/default/production/_ext/1264479574/altcp_tcp.o
 .debug_line    0x00000000       0x50 build/default/production/_ext/1264479574/altcp_tcp.o
 .debug_str     0x00000000      0x2d6 build/default/production/_ext/1264479574/altcp_tcp.o
 .comment       0x00000000       0x36 build/default/production/_ext/1264479574/altcp_tcp.o
 .ARM.attributes
                0x00000000       0x32 build/default/production/_ext/1264479574/altcp_tcp.o
 .text          0x00000000        0x0 build/default/production/_ext/1264479574/def.o
 .data          0x00000000        0x0 build/default/production/_ext/1264479574/def.o
 .bss           0x00000000        0x0 build/default/production/_ext/1264479574/def.o
 .text.lwip_strnstr
                0x00000000       0x6c build/default/production/_ext/1264479574/def.o
 .text.lwip_stricmp
                0x00000000       0x68 build/default/production/_ext/1264479574/def.o
 .text.lwip_strnicmp
                0x00000000       0x76 build/default/production/_ext/1264479574/def.o
 .text.lwip_itoa
                0x00000000       0xe8 build/default/production/_ext/1264479574/def.o
 .text          0x00000000        0x0 build/default/production/_ext/1264479574/dns.o
 .data          0x00000000        0x0 build/default/production/_ext/1264479574/dns.o
 .bss           0x00000000        0x0 build/default/production/_ext/1264479574/dns.o
 .debug_info    0x00000000       0x79 build/default/production/_ext/1264479574/dns.o
 .debug_abbrev  0x00000000       0x26 build/default/production/_ext/1264479574/dns.o
 .debug_aranges
                0x00000000       0x18 build/default/production/_ext/1264479574/dns.o
 .debug_line    0x00000000       0x4a build/default/production/_ext/1264479574/dns.o
 .debug_str     0x00000000      0x2d0 build/default/production/_ext/1264479574/dns.o
 .comment       0x00000000       0x36 build/default/production/_ext/1264479574/dns.o
 .ARM.attributes
                0x00000000       0x32 build/default/production/_ext/1264479574/dns.o
 .text          0x00000000        0x0 build/default/production/_ext/1264479574/inet_chksum.o
 .data          0x00000000        0x0 build/default/production/_ext/1264479574/inet_chksum.o
 .bss           0x00000000        0x0 build/default/production/_ext/1264479574/inet_chksum.o
 .text.inet_cksum_pseudo_partial_base
                0x00000000      0x104 build/default/production/_ext/1264479574/inet_chksum.o
 .text.inet_chksum_pseudo_partial
                0x00000000       0x7e build/default/production/_ext/1264479574/inet_chksum.o
 .text.ip_chksum_pseudo_partial
                0x00000000       0x3a build/default/production/_ext/1264479574/inet_chksum.o
 .text          0x00000000        0x0 build/default/production/_ext/1264479574/init.o
 .data          0x00000000        0x0 build/default/production/_ext/1264479574/init.o
 .bss           0x00000000        0x0 build/default/production/_ext/1264479574/init.o
 .text          0x00000000        0x0 build/default/production/_ext/1264479574/ip.o
 .data          0x00000000        0x0 build/default/production/_ext/1264479574/ip.o
 .bss           0x00000000        0x0 build/default/production/_ext/1264479574/ip.o
 .text          0x00000000        0x0 build/default/production/_ext/1349076522/autoip.o
 .data          0x00000000        0x0 build/default/production/_ext/1349076522/autoip.o
 .bss           0x00000000        0x0 build/default/production/_ext/1349076522/autoip.o
 .debug_info    0x00000000       0x79 build/default/production/_ext/1349076522/autoip.o
 .debug_abbrev  0x00000000       0x26 build/default/production/_ext/1349076522/autoip.o
 .debug_aranges
                0x00000000       0x18 build/default/production/_ext/1349076522/autoip.o
 .debug_line    0x00000000       0x52 build/default/production/_ext/1349076522/autoip.o
 .debug_str     0x00000000      0x2d8 build/default/production/_ext/1349076522/autoip.o
 .comment       0x00000000       0x36 build/default/production/_ext/1349076522/autoip.o
 .ARM.attributes
                0x00000000       0x32 build/default/production/_ext/1349076522/autoip.o
 .text          0x00000000        0x0 build/default/production/_ext/1349076522/dhcp.o
 .data          0x00000000        0x0 build/default/production/_ext/1349076522/dhcp.o
 .bss           0x00000000        0x0 build/default/production/_ext/1349076522/dhcp.o
 .debug_info    0x00000000       0x79 build/default/production/_ext/1349076522/dhcp.o
 .debug_abbrev  0x00000000       0x26 build/default/production/_ext/1349076522/dhcp.o
 .debug_aranges
                0x00000000       0x18 build/default/production/_ext/1349076522/dhcp.o
 .debug_line    0x00000000       0x50 build/default/production/_ext/1349076522/dhcp.o
 .debug_str     0x00000000      0x2d6 build/default/production/_ext/1349076522/dhcp.o
 .comment       0x00000000       0x36 build/default/production/_ext/1349076522/dhcp.o
 .ARM.attributes
                0x00000000       0x32 build/default/production/_ext/1349076522/dhcp.o
 .text          0x00000000        0x0 build/default/production/_ext/1349076522/etharp.o
 .data          0x00000000        0x0 build/default/production/_ext/1349076522/etharp.o
 .bss           0x00000000        0x0 build/default/production/_ext/1349076522/etharp.o
 .text.etharp_add_static_entry
                0x00000000       0x34 build/default/production/_ext/1349076522/etharp.o
 .text.etharp_remove_static_entry
                0x00000000       0x5c build/default/production/_ext/1349076522/etharp.o
 .text.etharp_cleanup_netif
                0x00000000       0x60 build/default/production/_ext/1349076522/etharp.o
 .text.etharp_find_addr
                0x00000000       0x80 build/default/production/_ext/1349076522/etharp.o
 .text.etharp_get_entry
                0x00000000       0x80 build/default/production/_ext/1349076522/etharp.o
 .text          0x00000000        0x0 build/default/production/_ext/1349076522/icmp.o
 .data          0x00000000        0x0 build/default/production/_ext/1349076522/icmp.o
 .bss           0x00000000        0x0 build/default/production/_ext/1349076522/icmp.o
 .text          0x00000000        0x0 build/default/production/_ext/1349076522/igmp.o
 .data          0x00000000        0x0 build/default/production/_ext/1349076522/igmp.o
 .bss           0x00000000        0x0 build/default/production/_ext/1349076522/igmp.o
 .debug_info    0x00000000       0x79 build/default/production/_ext/1349076522/igmp.o
 .debug_abbrev  0x00000000       0x26 build/default/production/_ext/1349076522/igmp.o
 .debug_aranges
                0x00000000       0x18 build/default/production/_ext/1349076522/igmp.o
 .debug_line    0x00000000       0x50 build/default/production/_ext/1349076522/igmp.o
 .debug_str     0x00000000      0x2d6 build/default/production/_ext/1349076522/igmp.o
 .comment       0x00000000       0x36 build/default/production/_ext/1349076522/igmp.o
 .ARM.attributes
                0x00000000       0x32 build/default/production/_ext/1349076522/igmp.o
 .text          0x00000000        0x0 build/default/production/_ext/1349076522/ip4.o
 .data          0x00000000        0x0 build/default/production/_ext/1349076522/ip4.o
 .bss           0x00000000        0x0 build/default/production/_ext/1349076522/ip4.o
 .text.ip4_output
                0x00000000       0x60 build/default/production/_ext/1349076522/ip4.o
 .text          0x00000000        0x0 build/default/production/_ext/1349076522/ip4_addr.o
 .data          0x00000000        0x0 build/default/production/_ext/1349076522/ip4_addr.o
 .bss           0x00000000        0x0 build/default/production/_ext/1349076522/ip4_addr.o
 .text.__isspace
                0x00000000       0x28 build/default/production/_ext/1349076522/ip4_addr.o
 .rodata.ip_addr_broadcast
                0x00000000        0x4 build/default/production/_ext/1349076522/ip4_addr.o
 .text.ip4_addr_netmask_valid
                0x00000000       0x58 build/default/production/_ext/1349076522/ip4_addr.o
 .text.ipaddr_addr
                0x00000000       0x2a build/default/production/_ext/1349076522/ip4_addr.o
 .text.ip4addr_aton
                0x00000000      0x210 build/default/production/_ext/1349076522/ip4_addr.o
 .text.ip4addr_ntoa
                0x00000000       0x20 build/default/production/_ext/1349076522/ip4_addr.o
 .text.ip4addr_ntoa_r
                0x00000000      0x100 build/default/production/_ext/1349076522/ip4_addr.o
 .bss.str.0     0x00000000       0x10 build/default/production/_ext/1349076522/ip4_addr.o
 .text          0x00000000        0x0 build/default/production/_ext/1349076522/ip4_frag.o
 .data          0x00000000        0x0 build/default/production/_ext/1349076522/ip4_frag.o
 .bss           0x00000000        0x0 build/default/production/_ext/1349076522/ip4_frag.o
 .text          0x00000000        0x0 build/default/production/_ext/1349076524/dhcp6.o
 .data          0x00000000        0x0 build/default/production/_ext/1349076524/dhcp6.o
 .bss           0x00000000        0x0 build/default/production/_ext/1349076524/dhcp6.o
 .debug_info    0x00000000       0x79 build/default/production/_ext/1349076524/dhcp6.o
 .debug_abbrev  0x00000000       0x26 build/default/production/_ext/1349076524/dhcp6.o
 .debug_aranges
                0x00000000       0x18 build/default/production/_ext/1349076524/dhcp6.o
 .debug_line    0x00000000       0x51 build/default/production/_ext/1349076524/dhcp6.o
 .debug_str     0x00000000      0x2d7 build/default/production/_ext/1349076524/dhcp6.o
 .comment       0x00000000       0x36 build/default/production/_ext/1349076524/dhcp6.o
 .ARM.attributes
                0x00000000       0x32 build/default/production/_ext/1349076524/dhcp6.o
 .text          0x00000000        0x0 build/default/production/_ext/1349076524/ethip6.o
 .data          0x00000000        0x0 build/default/production/_ext/1349076524/ethip6.o
 .bss           0x00000000        0x0 build/default/production/_ext/1349076524/ethip6.o
 .debug_info    0x00000000       0x79 build/default/production/_ext/1349076524/ethip6.o
 .debug_abbrev  0x00000000       0x26 build/default/production/_ext/1349076524/ethip6.o
 .debug_aranges
                0x00000000       0x18 build/default/production/_ext/1349076524/ethip6.o
 .debug_line    0x00000000       0x52 build/default/production/_ext/1349076524/ethip6.o
 .debug_str     0x00000000      0x2d8 build/default/production/_ext/1349076524/ethip6.o
 .comment       0x00000000       0x36 build/default/production/_ext/1349076524/ethip6.o
 .ARM.attributes
                0x00000000       0x32 build/default/production/_ext/1349076524/ethip6.o
 .text          0x00000000        0x0 build/default/production/_ext/1349076524/icmp6.o
 .data          0x00000000        0x0 build/default/production/_ext/1349076524/icmp6.o
 .bss           0x00000000        0x0 build/default/production/_ext/1349076524/icmp6.o
 .debug_info    0x00000000       0x79 build/default/production/_ext/1349076524/icmp6.o
 .debug_abbrev  0x00000000       0x26 build/default/production/_ext/1349076524/icmp6.o
 .debug_aranges
                0x00000000       0x18 build/default/production/_ext/1349076524/icmp6.o
 .debug_line    0x00000000       0x51 build/default/production/_ext/1349076524/icmp6.o
 .debug_str     0x00000000      0x2d7 build/default/production/_ext/1349076524/icmp6.o
 .comment       0x00000000       0x36 build/default/production/_ext/1349076524/icmp6.o
 .ARM.attributes
                0x00000000       0x32 build/default/production/_ext/1349076524/icmp6.o
 .text          0x00000000        0x0 build/default/production/_ext/1349076524/inet6.o
 .data          0x00000000        0x0 build/default/production/_ext/1349076524/inet6.o
 .bss           0x00000000        0x0 build/default/production/_ext/1349076524/inet6.o
 .debug_info    0x00000000       0x79 build/default/production/_ext/1349076524/inet6.o
 .debug_abbrev  0x00000000       0x26 build/default/production/_ext/1349076524/inet6.o
 .debug_aranges
                0x00000000       0x18 build/default/production/_ext/1349076524/inet6.o
 .debug_line    0x00000000       0x51 build/default/production/_ext/1349076524/inet6.o
 .debug_str     0x00000000      0x2d7 build/default/production/_ext/1349076524/inet6.o
 .comment       0x00000000       0x36 build/default/production/_ext/1349076524/inet6.o
 .ARM.attributes
                0x00000000       0x32 build/default/production/_ext/1349076524/inet6.o
 .text          0x00000000        0x0 build/default/production/_ext/1349076524/ip6.o
 .data          0x00000000        0x0 build/default/production/_ext/1349076524/ip6.o
 .bss           0x00000000        0x0 build/default/production/_ext/1349076524/ip6.o
 .debug_info    0x00000000       0x79 build/default/production/_ext/1349076524/ip6.o
 .debug_abbrev  0x00000000       0x26 build/default/production/_ext/1349076524/ip6.o
 .debug_aranges
                0x00000000       0x18 build/default/production/_ext/1349076524/ip6.o
 .debug_line    0x00000000       0x4f build/default/production/_ext/1349076524/ip6.o
 .debug_str     0x00000000      0x2d5 build/default/production/_ext/1349076524/ip6.o
 .comment       0x00000000       0x36 build/default/production/_ext/1349076524/ip6.o
 .ARM.attributes
                0x00000000       0x32 build/default/production/_ext/1349076524/ip6.o
 .text          0x00000000        0x0 build/default/production/_ext/1349076524/ip6_addr.o
 .data          0x00000000        0x0 build/default/production/_ext/1349076524/ip6_addr.o
 .bss           0x00000000        0x0 build/default/production/_ext/1349076524/ip6_addr.o
 .debug_info    0x00000000       0x79 build/default/production/_ext/1349076524/ip6_addr.o
 .debug_abbrev  0x00000000       0x26 build/default/production/_ext/1349076524/ip6_addr.o
 .debug_aranges
                0x00000000       0x18 build/default/production/_ext/1349076524/ip6_addr.o
 .debug_line    0x00000000       0x54 build/default/production/_ext/1349076524/ip6_addr.o
 .debug_str     0x00000000      0x2da build/default/production/_ext/1349076524/ip6_addr.o
 .comment       0x00000000       0x36 build/default/production/_ext/1349076524/ip6_addr.o
 .ARM.attributes
                0x00000000       0x32 build/default/production/_ext/1349076524/ip6_addr.o
 .text          0x00000000        0x0 build/default/production/_ext/1349076524/ip6_frag.o
 .data          0x00000000        0x0 build/default/production/_ext/1349076524/ip6_frag.o
 .bss           0x00000000        0x0 build/default/production/_ext/1349076524/ip6_frag.o
 .debug_info    0x00000000       0x79 build/default/production/_ext/1349076524/ip6_frag.o
 .debug_abbrev  0x00000000       0x26 build/default/production/_ext/1349076524/ip6_frag.o
 .debug_aranges
                0x00000000       0x18 build/default/production/_ext/1349076524/ip6_frag.o
 .debug_line    0x00000000       0x54 build/default/production/_ext/1349076524/ip6_frag.o
 .debug_str     0x00000000      0x2da build/default/production/_ext/1349076524/ip6_frag.o
 .comment       0x00000000       0x36 build/default/production/_ext/1349076524/ip6_frag.o
 .ARM.attributes
                0x00000000       0x32 build/default/production/_ext/1349076524/ip6_frag.o
 .text          0x00000000        0x0 build/default/production/_ext/1349076524/mld6.o
 .data          0x00000000        0x0 build/default/production/_ext/1349076524/mld6.o
 .bss           0x00000000        0x0 build/default/production/_ext/1349076524/mld6.o
 .debug_info    0x00000000       0x79 build/default/production/_ext/1349076524/mld6.o
 .debug_abbrev  0x00000000       0x26 build/default/production/_ext/1349076524/mld6.o
 .debug_aranges
                0x00000000       0x18 build/default/production/_ext/1349076524/mld6.o
 .debug_line    0x00000000       0x50 build/default/production/_ext/1349076524/mld6.o
 .debug_str     0x00000000      0x2d6 build/default/production/_ext/1349076524/mld6.o
 .comment       0x00000000       0x36 build/default/production/_ext/1349076524/mld6.o
 .ARM.attributes
                0x00000000       0x32 build/default/production/_ext/1349076524/mld6.o
 .text          0x00000000        0x0 build/default/production/_ext/1349076524/nd6.o
 .data          0x00000000        0x0 build/default/production/_ext/1349076524/nd6.o
 .bss           0x00000000        0x0 build/default/production/_ext/1349076524/nd6.o
 .debug_info    0x00000000       0x79 build/default/production/_ext/1349076524/nd6.o
 .debug_abbrev  0x00000000       0x26 build/default/production/_ext/1349076524/nd6.o
 .debug_aranges
                0x00000000       0x18 build/default/production/_ext/1349076524/nd6.o
 .debug_line    0x00000000       0x4f build/default/production/_ext/1349076524/nd6.o
 .debug_str     0x00000000      0x2d5 build/default/production/_ext/1349076524/nd6.o
 .comment       0x00000000       0x36 build/default/production/_ext/1349076524/nd6.o
 .ARM.attributes
                0x00000000       0x32 build/default/production/_ext/1349076524/nd6.o
 .text          0x00000000        0x0 build/default/production/_ext/1264479574/mem.o
 .data          0x00000000        0x0 build/default/production/_ext/1264479574/mem.o
 .bss           0x00000000        0x0 build/default/production/_ext/1264479574/mem.o
 .text.mem_calloc
                0x00000000       0x50 build/default/production/_ext/1264479574/mem.o
 .text          0x00000000        0x0 build/default/production/_ext/1264479574/memp.o
 .data          0x00000000        0x0 build/default/production/_ext/1264479574/memp.o
 .bss           0x00000000        0x0 build/default/production/_ext/1264479574/memp.o
 .text.memp_malloc_pool
                0x00000000       0x22 build/default/production/_ext/1264479574/memp.o
 .text.memp_free_pool
                0x00000000       0x28 build/default/production/_ext/1264479574/memp.o
 .text          0x00000000        0x0 build/default/production/_ext/1264479574/netif.o
 .data          0x00000000        0x0 build/default/production/_ext/1264479574/netif.o
 .bss           0x00000000        0x0 build/default/production/_ext/1264479574/netif.o
 .text.netif_input
                0x00000000       0x36 build/default/production/_ext/1264479574/netif.o
 .text.netif_add_noaddr
                0x00000000       0x30 build/default/production/_ext/1264479574/netif.o
 .text.netif_set_ipaddr
                0x00000000       0x34 build/default/production/_ext/1264479574/netif.o
 .text.netif_set_netmask
                0x00000000       0x34 build/default/production/_ext/1264479574/netif.o
 .text.netif_set_gw
                0x00000000       0x34 build/default/production/_ext/1264479574/netif.o
 .text.netif_remove
                0x00000000       0x54 build/default/production/_ext/1264479574/netif.o
 .text.netif_set_up
                0x00000000       0x3c build/default/production/_ext/1264479574/netif.o
 .text.netif_set_down
                0x00000000       0x48 build/default/production/_ext/1264479574/netif.o
 .text.netif_set_link_down
                0x00000000       0x44 build/default/production/_ext/1264479574/netif.o
 .text.netif_name_to_index
                0x00000000       0x2c build/default/production/_ext/1264479574/netif.o
 .text.netif_index_to_name
                0x00000000       0x50 build/default/production/_ext/1264479574/netif.o
 .text.netif_find
                0x00000000       0x68 build/default/production/_ext/1264479574/netif.o
 .text          0x00000000        0x0 build/default/production/_ext/1264479574/pbuf.o
 .data          0x00000000        0x0 build/default/production/_ext/1264479574/pbuf.o
 .bss           0x00000000        0x0 build/default/production/_ext/1264479574/pbuf.o
 .text.pbuf_add_header_force
                0x00000000       0x1e build/default/production/_ext/1264479574/pbuf.o
 .text.pbuf_header
                0x00000000       0x24 build/default/production/_ext/1264479574/pbuf.o
 .text.pbuf_free_header
                0x00000000       0x66 build/default/production/_ext/1264479574/pbuf.o
 .text.pbuf_chain
                0x00000000       0x20 build/default/production/_ext/1264479574/pbuf.o
 .text.pbuf_dechain
                0x00000000       0x54 build/default/production/_ext/1264479574/pbuf.o
 .text.pbuf_get_contiguous
                0x00000000       0x88 build/default/production/_ext/1264479574/pbuf.o
 .text.pbuf_skip_const
                0x00000000       0x52 build/default/production/_ext/1264479574/pbuf.o
 .text.pbuf_skip
                0x00000000       0x26 build/default/production/_ext/1264479574/pbuf.o
 .text.pbuf_take_at
                0x00000000       0xb0 build/default/production/_ext/1264479574/pbuf.o
 .text.pbuf_coalesce
                0x00000000       0x42 build/default/production/_ext/1264479574/pbuf.o
 .text.pbuf_get_at
                0x00000000       0x2e build/default/production/_ext/1264479574/pbuf.o
 .text.pbuf_try_get_at
                0x00000000       0x44 build/default/production/_ext/1264479574/pbuf.o
 .text.pbuf_put_at
                0x00000000       0x44 build/default/production/_ext/1264479574/pbuf.o
 .text.pbuf_memcmp
                0x00000000       0xaa build/default/production/_ext/1264479574/pbuf.o
 .text.pbuf_memfind
                0x00000000       0x6a build/default/production/_ext/1264479574/pbuf.o
 .text.pbuf_strstr
                0x00000000       0x5a build/default/production/_ext/1264479574/pbuf.o
 .text          0x00000000        0x0 build/default/production/_ext/1264479574/raw.o
 .data          0x00000000        0x0 build/default/production/_ext/1264479574/raw.o
 .bss           0x00000000        0x0 build/default/production/_ext/1264479574/raw.o
 .text.raw_bind
                0x00000000       0x3c build/default/production/_ext/1264479574/raw.o
 .text.raw_bind_netif
                0x00000000       0x32 build/default/production/_ext/1264479574/raw.o
 .text.raw_connect
                0x00000000       0x4a build/default/production/_ext/1264479574/raw.o
 .text.raw_disconnect
                0x00000000       0x2e build/default/production/_ext/1264479574/raw.o
 .text.raw_recv
                0x00000000       0x24 build/default/production/_ext/1264479574/raw.o
 .text.raw_sendto
                0x00000000       0x90 build/default/production/_ext/1264479574/raw.o
 .text.raw_sendto_if_src
                0x00000000      0x11e build/default/production/_ext/1264479574/raw.o
 .text.raw_send
                0x00000000       0x22 build/default/production/_ext/1264479574/raw.o
 .text.raw_remove
                0x00000000       0x64 build/default/production/_ext/1264479574/raw.o
 .text.raw_new  0x00000000       0x4c build/default/production/_ext/1264479574/raw.o
 .text.raw_new_ip_type
                0x00000000       0x24 build/default/production/_ext/1264479574/raw.o
 .text          0x00000000        0x0 build/default/production/_ext/1264479574/stats.o
 .data          0x00000000        0x0 build/default/production/_ext/1264479574/stats.o
 .bss           0x00000000        0x0 build/default/production/_ext/1264479574/stats.o
 .text          0x00000000        0x0 build/default/production/_ext/1264479574/sys.o
 .data          0x00000000        0x0 build/default/production/_ext/1264479574/sys.o
 .bss           0x00000000        0x0 build/default/production/_ext/1264479574/sys.o
 .debug_info    0x00000000       0x79 build/default/production/_ext/1264479574/sys.o
 .debug_abbrev  0x00000000       0x26 build/default/production/_ext/1264479574/sys.o
 .debug_aranges
                0x00000000       0x18 build/default/production/_ext/1264479574/sys.o
 .debug_line    0x00000000       0x4a build/default/production/_ext/1264479574/sys.o
 .debug_str     0x00000000      0x2d0 build/default/production/_ext/1264479574/sys.o
 .comment       0x00000000       0x36 build/default/production/_ext/1264479574/sys.o
 .ARM.attributes
                0x00000000       0x32 build/default/production/_ext/1264479574/sys.o
 .text          0x00000000        0x0 build/default/production/_ext/1264479574/tcp.o
 .data          0x00000000        0x0 build/default/production/_ext/1264479574/tcp.o
 .bss           0x00000000        0x0 build/default/production/_ext/1264479574/tcp.o
 .rodata        0x00000000       0x76 build/default/production/_ext/1264479574/tcp.o
 .rodata.tcp_state_str
                0x00000000       0x2c build/default/production/_ext/1264479574/tcp.o
 .text.tcp_shutdown
                0x00000000       0x9c build/default/production/_ext/1264479574/tcp.o
 .text.tcp_bind_netif
                0x00000000       0x32 build/default/production/_ext/1264479574/tcp.o
 .text.tcp_connect
                0x00000000      0x1f0 build/default/production/_ext/1264479574/tcp.o
 .text.tcp_txnow
                0x00000000       0x3c build/default/production/_ext/1264479574/tcp.o
 .text.tcp_setprio
                0x00000000       0x22 build/default/production/_ext/1264479574/tcp.o
 .text.tcp_new_ip_type
                0x00000000       0x1c build/default/production/_ext/1264479574/tcp.o
 .text.tcp_sent
                0x00000000       0x24 build/default/production/_ext/1264479574/tcp.o
 .text.tcp_debug_state_str
                0x00000000       0x24 build/default/production/_ext/1264479574/tcp.o
 .text.tcp_tcp_get_tcp_addrinfo
                0x00000000       0x68 build/default/production/_ext/1264479574/tcp.o
 .text          0x00000000        0x0 build/default/production/_ext/1264479574/tcp_in.o
 .data          0x00000000        0x0 build/default/production/_ext/1264479574/tcp_in.o
 .bss           0x00000000        0x0 build/default/production/_ext/1264479574/tcp_in.o
 .text          0x00000000        0x0 build/default/production/_ext/1264479574/tcp_out.o
 .data          0x00000000        0x0 build/default/production/_ext/1264479574/tcp_out.o
 .bss           0x00000000        0x0 build/default/production/_ext/1264479574/tcp_out.o
 .text          0x00000000        0x0 build/default/production/_ext/1264479574/timeouts.o
 .data          0x00000000        0x0 build/default/production/_ext/1264479574/timeouts.o
 .bss           0x00000000        0x0 build/default/production/_ext/1264479574/timeouts.o
 .rodata.lwip_num_cyclic_timers
                0x00000000        0x4 build/default/production/_ext/1264479574/timeouts.o
 .text.sys_untimeout
                0x00000000       0x74 build/default/production/_ext/1264479574/timeouts.o
 .text.sys_restart_timeouts
                0x00000000       0x50 build/default/production/_ext/1264479574/timeouts.o
 .text.sys_timeouts_sleeptime
                0x00000000       0x50 build/default/production/_ext/1264479574/timeouts.o
 .text          0x00000000        0x0 build/default/production/_ext/1264479574/udp.o
 .data          0x00000000        0x0 build/default/production/_ext/1264479574/udp.o
 .bss           0x00000000        0x0 build/default/production/_ext/1264479574/udp.o
 .data.udp_port
                0x00000000        0x2 build/default/production/_ext/1264479574/udp.o
 .text.udp_new_port
                0x00000000       0x70 build/default/production/_ext/1264479574/udp.o
 .text.udp_send
                0x00000000       0x3c build/default/production/_ext/1264479574/udp.o
 .text.udp_sendto
                0x00000000       0x8c build/default/production/_ext/1264479574/udp.o
 .text.udp_sendto_if
                0x00000000       0x94 build/default/production/_ext/1264479574/udp.o
 .text.udp_sendto_if_src
                0x00000000      0x198 build/default/production/_ext/1264479574/udp.o
 .text.udp_bind
                0x00000000       0xf8 build/default/production/_ext/1264479574/udp.o
 .text.udp_bind_netif
                0x00000000       0x32 build/default/production/_ext/1264479574/udp.o
 .text.udp_connect
                0x00000000       0xb0 build/default/production/_ext/1264479574/udp.o
 .text.udp_disconnect
                0x00000000       0x38 build/default/production/_ext/1264479574/udp.o
 .text.udp_recv
                0x00000000       0x28 build/default/production/_ext/1264479574/udp.o
 .text.udp_remove
                0x00000000       0x68 build/default/production/_ext/1264479574/udp.o
 .text.udp_new  0x00000000       0x2e build/default/production/_ext/1264479574/udp.o
 .text.udp_new_ip_type
                0x00000000       0x1a build/default/production/_ext/1264479574/udp.o
 .text          0x00000000        0x0 build/default/production/_ext/534298161/bridgeif.o
 .data          0x00000000        0x0 build/default/production/_ext/534298161/bridgeif.o
 .bss           0x00000000        0x0 build/default/production/_ext/534298161/bridgeif.o
 .debug_info    0x00000000       0x79 build/default/production/_ext/534298161/bridgeif.o
 .debug_abbrev  0x00000000       0x26 build/default/production/_ext/534298161/bridgeif.o
 .debug_aranges
                0x00000000       0x18 build/default/production/_ext/534298161/bridgeif.o
 .debug_line    0x00000000       0x50 build/default/production/_ext/534298161/bridgeif.o
 .debug_str     0x00000000      0x2d6 build/default/production/_ext/534298161/bridgeif.o
 .comment       0x00000000       0x36 build/default/production/_ext/534298161/bridgeif.o
 .ARM.attributes
                0x00000000       0x32 build/default/production/_ext/534298161/bridgeif.o
 .text          0x00000000        0x0 build/default/production/_ext/534298161/bridgeif_fdb.o
 .data          0x00000000        0x0 build/default/production/_ext/534298161/bridgeif_fdb.o
 .bss           0x00000000        0x0 build/default/production/_ext/534298161/bridgeif_fdb.o
 .text.bridgeif_fdb_update_src
                0x00000000       0xd8 build/default/production/_ext/534298161/bridgeif_fdb.o
 .text.bridgeif_fdb_get_dst_ports
                0x00000000       0x70 build/default/production/_ext/534298161/bridgeif_fdb.o
 .text.bridgeif_fdb_age_one_second
                0x00000000       0x76 build/default/production/_ext/534298161/bridgeif_fdb.o
 .text.bridgeif_age_tmr
                0x00000000       0x2c build/default/production/_ext/534298161/bridgeif_fdb.o
 .text.bridgeif_fdb_init
                0x00000000       0x58 build/default/production/_ext/534298161/bridgeif_fdb.o
 .debug_info    0x00000000      0x478 build/default/production/_ext/534298161/bridgeif_fdb.o
 .debug_abbrev  0x00000000      0x1a4 build/default/production/_ext/534298161/bridgeif_fdb.o
 .debug_loc     0x00000000      0x19c build/default/production/_ext/534298161/bridgeif_fdb.o
 .debug_aranges
                0x00000000       0x40 build/default/production/_ext/534298161/bridgeif_fdb.o
 .debug_ranges  0x00000000       0x30 build/default/production/_ext/534298161/bridgeif_fdb.o
 .debug_line    0x00000000      0x3b4 build/default/production/_ext/534298161/bridgeif_fdb.o
 .debug_str     0x00000000      0x487 build/default/production/_ext/534298161/bridgeif_fdb.o
 .comment       0x00000000       0x36 build/default/production/_ext/534298161/bridgeif_fdb.o
 .debug_frame   0x00000000       0xc8 build/default/production/_ext/534298161/bridgeif_fdb.o
 .ARM.attributes
                0x00000000       0x32 build/default/production/_ext/534298161/bridgeif_fdb.o
 .text          0x00000000        0x0 build/default/production/_ext/534298161/ethernet.o
 .data          0x00000000        0x0 build/default/production/_ext/534298161/ethernet.o
 .bss           0x00000000        0x0 build/default/production/_ext/534298161/ethernet.o
 .text          0x00000000        0x0 build/default/production/_ext/534298161/lowpan6.o
 .data          0x00000000        0x0 build/default/production/_ext/534298161/lowpan6.o
 .bss           0x00000000        0x0 build/default/production/_ext/534298161/lowpan6.o
 .debug_info    0x00000000       0x79 build/default/production/_ext/534298161/lowpan6.o
 .debug_abbrev  0x00000000       0x26 build/default/production/_ext/534298161/lowpan6.o
 .debug_aranges
                0x00000000       0x18 build/default/production/_ext/534298161/lowpan6.o
 .debug_line    0x00000000       0x4f build/default/production/_ext/534298161/lowpan6.o
 .debug_str     0x00000000      0x2d5 build/default/production/_ext/534298161/lowpan6.o
 .comment       0x00000000       0x36 build/default/production/_ext/534298161/lowpan6.o
 .ARM.attributes
                0x00000000       0x32 build/default/production/_ext/534298161/lowpan6.o
 .text          0x00000000        0x0 build/default/production/_ext/534298161/lowpan6_ble.o
 .data          0x00000000        0x0 build/default/production/_ext/534298161/lowpan6_ble.o
 .bss           0x00000000        0x0 build/default/production/_ext/534298161/lowpan6_ble.o
 .debug_info    0x00000000       0x79 build/default/production/_ext/534298161/lowpan6_ble.o
 .debug_abbrev  0x00000000       0x26 build/default/production/_ext/534298161/lowpan6_ble.o
 .debug_aranges
                0x00000000       0x18 build/default/production/_ext/534298161/lowpan6_ble.o
 .debug_line    0x00000000       0x53 build/default/production/_ext/534298161/lowpan6_ble.o
 .debug_str     0x00000000      0x2d9 build/default/production/_ext/534298161/lowpan6_ble.o
 .comment       0x00000000       0x36 build/default/production/_ext/534298161/lowpan6_ble.o
 .ARM.attributes
                0x00000000       0x32 build/default/production/_ext/534298161/lowpan6_ble.o
 .text          0x00000000        0x0 build/default/production/_ext/534298161/lowpan6_common.o
 .data          0x00000000        0x0 build/default/production/_ext/534298161/lowpan6_common.o
 .bss           0x00000000        0x0 build/default/production/_ext/534298161/lowpan6_common.o
 .debug_info    0x00000000       0x79 build/default/production/_ext/534298161/lowpan6_common.o
 .debug_abbrev  0x00000000       0x26 build/default/production/_ext/534298161/lowpan6_common.o
 .debug_aranges
                0x00000000       0x18 build/default/production/_ext/534298161/lowpan6_common.o
 .debug_line    0x00000000       0x56 build/default/production/_ext/534298161/lowpan6_common.o
 .debug_str     0x00000000      0x2dc build/default/production/_ext/534298161/lowpan6_common.o
 .comment       0x00000000       0x36 build/default/production/_ext/534298161/lowpan6_common.o
 .ARM.attributes
                0x00000000       0x32 build/default/production/_ext/534298161/lowpan6_common.o
 .text          0x00000000        0x0 build/default/production/_ext/337302064/auth.o
 .data          0x00000000        0x0 build/default/production/_ext/337302064/auth.o
 .bss           0x00000000        0x0 build/default/production/_ext/337302064/auth.o
 .debug_info    0x00000000       0x79 build/default/production/_ext/337302064/auth.o
 .debug_abbrev  0x00000000       0x26 build/default/production/_ext/337302064/auth.o
 .debug_aranges
                0x00000000       0x18 build/default/production/_ext/337302064/auth.o
 .debug_line    0x00000000       0x50 build/default/production/_ext/337302064/auth.o
 .debug_str     0x00000000      0x2d6 build/default/production/_ext/337302064/auth.o
 .comment       0x00000000       0x36 build/default/production/_ext/337302064/auth.o
 .ARM.attributes
                0x00000000       0x32 build/default/production/_ext/337302064/auth.o
 .text          0x00000000        0x0 build/default/production/_ext/337302064/ccp.o
 .data          0x00000000        0x0 build/default/production/_ext/337302064/ccp.o
 .bss           0x00000000        0x0 build/default/production/_ext/337302064/ccp.o
 .debug_info    0x00000000       0x79 build/default/production/_ext/337302064/ccp.o
 .debug_abbrev  0x00000000       0x26 build/default/production/_ext/337302064/ccp.o
 .debug_aranges
                0x00000000       0x18 build/default/production/_ext/337302064/ccp.o
 .debug_line    0x00000000       0x4f build/default/production/_ext/337302064/ccp.o
 .debug_str     0x00000000      0x2d5 build/default/production/_ext/337302064/ccp.o
 .comment       0x00000000       0x36 build/default/production/_ext/337302064/ccp.o
 .ARM.attributes
                0x00000000       0x32 build/default/production/_ext/337302064/ccp.o
 .text          0x00000000        0x0 build/default/production/_ext/337302064/chap-md5.o
 .data          0x00000000        0x0 build/default/production/_ext/337302064/chap-md5.o
 .bss           0x00000000        0x0 build/default/production/_ext/337302064/chap-md5.o
 .debug_info    0x00000000       0x79 build/default/production/_ext/337302064/chap-md5.o
 .debug_abbrev  0x00000000       0x26 build/default/production/_ext/337302064/chap-md5.o
 .debug_aranges
                0x00000000       0x18 build/default/production/_ext/337302064/chap-md5.o
 .debug_line    0x00000000       0x54 build/default/production/_ext/337302064/chap-md5.o
 .debug_str     0x00000000      0x2da build/default/production/_ext/337302064/chap-md5.o
 .comment       0x00000000       0x36 build/default/production/_ext/337302064/chap-md5.o
 .ARM.attributes
                0x00000000       0x32 build/default/production/_ext/337302064/chap-md5.o
 .text          0x00000000        0x0 build/default/production/_ext/337302064/chap-new.o
 .data          0x00000000        0x0 build/default/production/_ext/337302064/chap-new.o
 .bss           0x00000000        0x0 build/default/production/_ext/337302064/chap-new.o
 .debug_info    0x00000000       0x79 build/default/production/_ext/337302064/chap-new.o
 .debug_abbrev  0x00000000       0x26 build/default/production/_ext/337302064/chap-new.o
 .debug_aranges
                0x00000000       0x18 build/default/production/_ext/337302064/chap-new.o
 .debug_line    0x00000000       0x54 build/default/production/_ext/337302064/chap-new.o
 .debug_str     0x00000000      0x2da build/default/production/_ext/337302064/chap-new.o
 .comment       0x00000000       0x36 build/default/production/_ext/337302064/chap-new.o
 .ARM.attributes
                0x00000000       0x32 build/default/production/_ext/337302064/chap-new.o
 .text          0x00000000        0x0 build/default/production/_ext/337302064/chap_ms.o
 .data          0x00000000        0x0 build/default/production/_ext/337302064/chap_ms.o
 .bss           0x00000000        0x0 build/default/production/_ext/337302064/chap_ms.o
 .debug_info    0x00000000       0x79 build/default/production/_ext/337302064/chap_ms.o
 .debug_abbrev  0x00000000       0x26 build/default/production/_ext/337302064/chap_ms.o
 .debug_aranges
                0x00000000       0x18 build/default/production/_ext/337302064/chap_ms.o
 .debug_line    0x00000000       0x53 build/default/production/_ext/337302064/chap_ms.o
 .debug_str     0x00000000      0x2d9 build/default/production/_ext/337302064/chap_ms.o
 .comment       0x00000000       0x36 build/default/production/_ext/337302064/chap_ms.o
 .ARM.attributes
                0x00000000       0x32 build/default/production/_ext/337302064/chap_ms.o
 .text          0x00000000        0x0 build/default/production/_ext/337302064/demand.o
 .data          0x00000000        0x0 build/default/production/_ext/337302064/demand.o
 .bss           0x00000000        0x0 build/default/production/_ext/337302064/demand.o
 .debug_info    0x00000000       0x79 build/default/production/_ext/337302064/demand.o
 .debug_abbrev  0x00000000       0x26 build/default/production/_ext/337302064/demand.o
 .debug_aranges
                0x00000000       0x18 build/default/production/_ext/337302064/demand.o
 .debug_line    0x00000000       0x52 build/default/production/_ext/337302064/demand.o
 .debug_str     0x00000000      0x2d8 build/default/production/_ext/337302064/demand.o
 .comment       0x00000000       0x36 build/default/production/_ext/337302064/demand.o
 .ARM.attributes
                0x00000000       0x32 build/default/production/_ext/337302064/demand.o
 .text          0x00000000        0x0 build/default/production/_ext/337302064/eap.o
 .data          0x00000000        0x0 build/default/production/_ext/337302064/eap.o
 .bss           0x00000000        0x0 build/default/production/_ext/337302064/eap.o
 .debug_info    0x00000000       0x79 build/default/production/_ext/337302064/eap.o
 .debug_abbrev  0x00000000       0x26 build/default/production/_ext/337302064/eap.o
 .debug_aranges
                0x00000000       0x18 build/default/production/_ext/337302064/eap.o
 .debug_line    0x00000000       0x4f build/default/production/_ext/337302064/eap.o
 .debug_str     0x00000000      0x2d5 build/default/production/_ext/337302064/eap.o
 .comment       0x00000000       0x36 build/default/production/_ext/337302064/eap.o
 .ARM.attributes
                0x00000000       0x32 build/default/production/_ext/337302064/eap.o
 .text          0x00000000        0x0 build/default/production/_ext/337302064/ecp.o
 .data          0x00000000        0x0 build/default/production/_ext/337302064/ecp.o
 .bss           0x00000000        0x0 build/default/production/_ext/337302064/ecp.o
 .debug_info    0x00000000       0x79 build/default/production/_ext/337302064/ecp.o
 .debug_abbrev  0x00000000       0x26 build/default/production/_ext/337302064/ecp.o
 .debug_aranges
                0x00000000       0x18 build/default/production/_ext/337302064/ecp.o
 .debug_line    0x00000000       0x4f build/default/production/_ext/337302064/ecp.o
 .debug_str     0x00000000      0x2d5 build/default/production/_ext/337302064/ecp.o
 .comment       0x00000000       0x36 build/default/production/_ext/337302064/ecp.o
 .ARM.attributes
                0x00000000       0x32 build/default/production/_ext/337302064/ecp.o
 .text          0x00000000        0x0 build/default/production/_ext/337302064/eui64.o
 .data          0x00000000        0x0 build/default/production/_ext/337302064/eui64.o
 .bss           0x00000000        0x0 build/default/production/_ext/337302064/eui64.o
 .debug_info    0x00000000       0x79 build/default/production/_ext/337302064/eui64.o
 .debug_abbrev  0x00000000       0x26 build/default/production/_ext/337302064/eui64.o
 .debug_aranges
                0x00000000       0x18 build/default/production/_ext/337302064/eui64.o
 .debug_line    0x00000000       0x51 build/default/production/_ext/337302064/eui64.o
 .debug_str     0x00000000      0x2d7 build/default/production/_ext/337302064/eui64.o
 .comment       0x00000000       0x36 build/default/production/_ext/337302064/eui64.o
 .ARM.attributes
                0x00000000       0x32 build/default/production/_ext/337302064/eui64.o
 .text          0x00000000        0x0 build/default/production/_ext/337302064/fsm.o
 .data          0x00000000        0x0 build/default/production/_ext/337302064/fsm.o
 .bss           0x00000000        0x0 build/default/production/_ext/337302064/fsm.o
 .debug_info    0x00000000       0x79 build/default/production/_ext/337302064/fsm.o
 .debug_abbrev  0x00000000       0x26 build/default/production/_ext/337302064/fsm.o
 .debug_aranges
                0x00000000       0x18 build/default/production/_ext/337302064/fsm.o
 .debug_line    0x00000000       0x4f build/default/production/_ext/337302064/fsm.o
 .debug_str     0x00000000      0x2d5 build/default/production/_ext/337302064/fsm.o
 .comment       0x00000000       0x36 build/default/production/_ext/337302064/fsm.o
 .ARM.attributes
                0x00000000       0x32 build/default/production/_ext/337302064/fsm.o
 .text          0x00000000        0x0 build/default/production/_ext/337302064/ipcp.o
 .data          0x00000000        0x0 build/default/production/_ext/337302064/ipcp.o
 .bss           0x00000000        0x0 build/default/production/_ext/337302064/ipcp.o
 .debug_info    0x00000000       0x79 build/default/production/_ext/337302064/ipcp.o
 .debug_abbrev  0x00000000       0x26 build/default/production/_ext/337302064/ipcp.o
 .debug_aranges
                0x00000000       0x18 build/default/production/_ext/337302064/ipcp.o
 .debug_line    0x00000000       0x50 build/default/production/_ext/337302064/ipcp.o
 .debug_str     0x00000000      0x2d6 build/default/production/_ext/337302064/ipcp.o
 .comment       0x00000000       0x36 build/default/production/_ext/337302064/ipcp.o
 .ARM.attributes
                0x00000000       0x32 build/default/production/_ext/337302064/ipcp.o
 .text          0x00000000        0x0 build/default/production/_ext/337302064/ipv6cp.o
 .data          0x00000000        0x0 build/default/production/_ext/337302064/ipv6cp.o
 .bss           0x00000000        0x0 build/default/production/_ext/337302064/ipv6cp.o
 .debug_info    0x00000000       0x79 build/default/production/_ext/337302064/ipv6cp.o
 .debug_abbrev  0x00000000       0x26 build/default/production/_ext/337302064/ipv6cp.o
 .debug_aranges
                0x00000000       0x18 build/default/production/_ext/337302064/ipv6cp.o
 .debug_line    0x00000000       0x52 build/default/production/_ext/337302064/ipv6cp.o
 .debug_str     0x00000000      0x2d8 build/default/production/_ext/337302064/ipv6cp.o
 .comment       0x00000000       0x36 build/default/production/_ext/337302064/ipv6cp.o
 .ARM.attributes
                0x00000000       0x32 build/default/production/_ext/337302064/ipv6cp.o
 .text          0x00000000        0x0 build/default/production/_ext/337302064/lcp.o
 .data          0x00000000        0x0 build/default/production/_ext/337302064/lcp.o
 .bss           0x00000000        0x0 build/default/production/_ext/337302064/lcp.o
 .debug_info    0x00000000       0x79 build/default/production/_ext/337302064/lcp.o
 .debug_abbrev  0x00000000       0x26 build/default/production/_ext/337302064/lcp.o
 .debug_aranges
                0x00000000       0x18 build/default/production/_ext/337302064/lcp.o
 .debug_line    0x00000000       0x4f build/default/production/_ext/337302064/lcp.o
 .debug_str     0x00000000      0x2d5 build/default/production/_ext/337302064/lcp.o
 .comment       0x00000000       0x36 build/default/production/_ext/337302064/lcp.o
 .ARM.attributes
                0x00000000       0x32 build/default/production/_ext/337302064/lcp.o
 .text          0x00000000        0x0 build/default/production/_ext/337302064/magic.o
 .data          0x00000000        0x0 build/default/production/_ext/337302064/magic.o
 .bss           0x00000000        0x0 build/default/production/_ext/337302064/magic.o
 .debug_info    0x00000000       0x79 build/default/production/_ext/337302064/magic.o
 .debug_abbrev  0x00000000       0x26 build/default/production/_ext/337302064/magic.o
 .debug_aranges
                0x00000000       0x18 build/default/production/_ext/337302064/magic.o
 .debug_line    0x00000000       0x51 build/default/production/_ext/337302064/magic.o
 .debug_str     0x00000000      0x2d7 build/default/production/_ext/337302064/magic.o
 .comment       0x00000000       0x36 build/default/production/_ext/337302064/magic.o
 .ARM.attributes
                0x00000000       0x32 build/default/production/_ext/337302064/magic.o
 .text          0x00000000        0x0 build/default/production/_ext/337302064/mppe.o
 .data          0x00000000        0x0 build/default/production/_ext/337302064/mppe.o
 .bss           0x00000000        0x0 build/default/production/_ext/337302064/mppe.o
 .debug_info    0x00000000       0x79 build/default/production/_ext/337302064/mppe.o
 .debug_abbrev  0x00000000       0x26 build/default/production/_ext/337302064/mppe.o
 .debug_aranges
                0x00000000       0x18 build/default/production/_ext/337302064/mppe.o
 .debug_line    0x00000000       0x50 build/default/production/_ext/337302064/mppe.o
 .debug_str     0x00000000      0x2d6 build/default/production/_ext/337302064/mppe.o
 .comment       0x00000000       0x36 build/default/production/_ext/337302064/mppe.o
 .ARM.attributes
                0x00000000       0x32 build/default/production/_ext/337302064/mppe.o
 .text          0x00000000        0x0 build/default/production/_ext/337302064/multilink.o
 .data          0x00000000        0x0 build/default/production/_ext/337302064/multilink.o
 .bss           0x00000000        0x0 build/default/production/_ext/337302064/multilink.o
 .debug_info    0x00000000       0x79 build/default/production/_ext/337302064/multilink.o
 .debug_abbrev  0x00000000       0x26 build/default/production/_ext/337302064/multilink.o
 .debug_aranges
                0x00000000       0x18 build/default/production/_ext/337302064/multilink.o
 .debug_line    0x00000000       0x55 build/default/production/_ext/337302064/multilink.o
 .debug_str     0x00000000      0x2db build/default/production/_ext/337302064/multilink.o
 .comment       0x00000000       0x36 build/default/production/_ext/337302064/multilink.o
 .ARM.attributes
                0x00000000       0x32 build/default/production/_ext/337302064/multilink.o
 .text          0x00000000        0x0 build/default/production/_ext/1316369165/arc4.o
 .data          0x00000000        0x0 build/default/production/_ext/1316369165/arc4.o
 .bss           0x00000000        0x0 build/default/production/_ext/1316369165/arc4.o
 .debug_info    0x00000000       0x79 build/default/production/_ext/1316369165/arc4.o
 .debug_abbrev  0x00000000       0x26 build/default/production/_ext/1316369165/arc4.o
 .debug_aranges
                0x00000000       0x18 build/default/production/_ext/1316369165/arc4.o
 .debug_line    0x00000000       0x59 build/default/production/_ext/1316369165/arc4.o
 .debug_str     0x00000000      0x2df build/default/production/_ext/1316369165/arc4.o
 .comment       0x00000000       0x36 build/default/production/_ext/1316369165/arc4.o
 .ARM.attributes
                0x00000000       0x32 build/default/production/_ext/1316369165/arc4.o
 .text          0x00000000        0x0 build/default/production/_ext/1316369165/des.o
 .data          0x00000000        0x0 build/default/production/_ext/1316369165/des.o
 .bss           0x00000000        0x0 build/default/production/_ext/1316369165/des.o
 .debug_info    0x00000000       0x79 build/default/production/_ext/1316369165/des.o
 .debug_abbrev  0x00000000       0x26 build/default/production/_ext/1316369165/des.o
 .debug_aranges
                0x00000000       0x18 build/default/production/_ext/1316369165/des.o
 .debug_line    0x00000000       0x58 build/default/production/_ext/1316369165/des.o
 .debug_str     0x00000000      0x2de build/default/production/_ext/1316369165/des.o
 .comment       0x00000000       0x36 build/default/production/_ext/1316369165/des.o
 .ARM.attributes
                0x00000000       0x32 build/default/production/_ext/1316369165/des.o
 .text          0x00000000        0x0 build/default/production/_ext/1316369165/md4.o
 .data          0x00000000        0x0 build/default/production/_ext/1316369165/md4.o
 .bss           0x00000000        0x0 build/default/production/_ext/1316369165/md4.o
 .debug_info    0x00000000       0x79 build/default/production/_ext/1316369165/md4.o
 .debug_abbrev  0x00000000       0x26 build/default/production/_ext/1316369165/md4.o
 .debug_aranges
                0x00000000       0x18 build/default/production/_ext/1316369165/md4.o
 .debug_line    0x00000000       0x58 build/default/production/_ext/1316369165/md4.o
 .debug_str     0x00000000      0x2de build/default/production/_ext/1316369165/md4.o
 .comment       0x00000000       0x36 build/default/production/_ext/1316369165/md4.o
 .ARM.attributes
                0x00000000       0x32 build/default/production/_ext/1316369165/md4.o
 .text          0x00000000        0x0 build/default/production/_ext/1316369165/md5.o
 .data          0x00000000        0x0 build/default/production/_ext/1316369165/md5.o
 .bss           0x00000000        0x0 build/default/production/_ext/1316369165/md5.o
 .debug_info    0x00000000       0x79 build/default/production/_ext/1316369165/md5.o
 .debug_abbrev  0x00000000       0x26 build/default/production/_ext/1316369165/md5.o
 .debug_aranges
                0x00000000       0x18 build/default/production/_ext/1316369165/md5.o
 .debug_line    0x00000000       0x58 build/default/production/_ext/1316369165/md5.o
 .debug_str     0x00000000      0x2de build/default/production/_ext/1316369165/md5.o
 .comment       0x00000000       0x36 build/default/production/_ext/1316369165/md5.o
 .ARM.attributes
                0x00000000       0x32 build/default/production/_ext/1316369165/md5.o
 .text          0x00000000        0x0 build/default/production/_ext/1316369165/sha1.o
 .data          0x00000000        0x0 build/default/production/_ext/1316369165/sha1.o
 .bss           0x00000000        0x0 build/default/production/_ext/1316369165/sha1.o
 .debug_info    0x00000000       0x79 build/default/production/_ext/1316369165/sha1.o
 .debug_abbrev  0x00000000       0x26 build/default/production/_ext/1316369165/sha1.o
 .debug_aranges
                0x00000000       0x18 build/default/production/_ext/1316369165/sha1.o
 .debug_line    0x00000000       0x59 build/default/production/_ext/1316369165/sha1.o
 .debug_str     0x00000000      0x2df build/default/production/_ext/1316369165/sha1.o
 .comment       0x00000000       0x36 build/default/production/_ext/1316369165/sha1.o
 .ARM.attributes
                0x00000000       0x32 build/default/production/_ext/1316369165/sha1.o
 .text          0x00000000        0x0 build/default/production/_ext/337302064/ppp.o
 .data          0x00000000        0x0 build/default/production/_ext/337302064/ppp.o
 .bss           0x00000000        0x0 build/default/production/_ext/337302064/ppp.o
 .debug_info    0x00000000       0x79 build/default/production/_ext/337302064/ppp.o
 .debug_abbrev  0x00000000       0x26 build/default/production/_ext/337302064/ppp.o
 .debug_aranges
                0x00000000       0x18 build/default/production/_ext/337302064/ppp.o
 .debug_line    0x00000000       0x4f build/default/production/_ext/337302064/ppp.o
 .debug_str     0x00000000      0x2d5 build/default/production/_ext/337302064/ppp.o
 .comment       0x00000000       0x36 build/default/production/_ext/337302064/ppp.o
 .ARM.attributes
                0x00000000       0x32 build/default/production/_ext/337302064/ppp.o
 .text          0x00000000        0x0 build/default/production/_ext/337302064/pppapi.o
 .data          0x00000000        0x0 build/default/production/_ext/337302064/pppapi.o
 .bss           0x00000000        0x0 build/default/production/_ext/337302064/pppapi.o
 .debug_info    0x00000000       0x79 build/default/production/_ext/337302064/pppapi.o
 .debug_abbrev  0x00000000       0x26 build/default/production/_ext/337302064/pppapi.o
 .debug_aranges
                0x00000000       0x18 build/default/production/_ext/337302064/pppapi.o
 .debug_line    0x00000000       0x52 build/default/production/_ext/337302064/pppapi.o
 .debug_str     0x00000000      0x2d8 build/default/production/_ext/337302064/pppapi.o
 .comment       0x00000000       0x36 build/default/production/_ext/337302064/pppapi.o
 .ARM.attributes
                0x00000000       0x32 build/default/production/_ext/337302064/pppapi.o
 .text          0x00000000        0x0 build/default/production/_ext/337302064/pppcrypt.o
 .data          0x00000000        0x0 build/default/production/_ext/337302064/pppcrypt.o
 .bss           0x00000000        0x0 build/default/production/_ext/337302064/pppcrypt.o
 .debug_info    0x00000000       0x79 build/default/production/_ext/337302064/pppcrypt.o
 .debug_abbrev  0x00000000       0x26 build/default/production/_ext/337302064/pppcrypt.o
 .debug_aranges
                0x00000000       0x18 build/default/production/_ext/337302064/pppcrypt.o
 .debug_line    0x00000000       0x54 build/default/production/_ext/337302064/pppcrypt.o
 .debug_str     0x00000000      0x2da build/default/production/_ext/337302064/pppcrypt.o
 .comment       0x00000000       0x36 build/default/production/_ext/337302064/pppcrypt.o
 .ARM.attributes
                0x00000000       0x32 build/default/production/_ext/337302064/pppcrypt.o
 .text          0x00000000        0x0 build/default/production/_ext/337302064/pppoe.o
 .data          0x00000000        0x0 build/default/production/_ext/337302064/pppoe.o
 .bss           0x00000000        0x0 build/default/production/_ext/337302064/pppoe.o
 .debug_info    0x00000000       0x79 build/default/production/_ext/337302064/pppoe.o
 .debug_abbrev  0x00000000       0x26 build/default/production/_ext/337302064/pppoe.o
 .debug_aranges
                0x00000000       0x18 build/default/production/_ext/337302064/pppoe.o
 .debug_line    0x00000000       0x51 build/default/production/_ext/337302064/pppoe.o
 .debug_str     0x00000000      0x2d7 build/default/production/_ext/337302064/pppoe.o
 .comment       0x00000000       0x36 build/default/production/_ext/337302064/pppoe.o
 .ARM.attributes
                0x00000000       0x32 build/default/production/_ext/337302064/pppoe.o
 .text          0x00000000        0x0 build/default/production/_ext/337302064/pppol2tp.o
 .data          0x00000000        0x0 build/default/production/_ext/337302064/pppol2tp.o
 .bss           0x00000000        0x0 build/default/production/_ext/337302064/pppol2tp.o
 .debug_info    0x00000000       0x79 build/default/production/_ext/337302064/pppol2tp.o
 .debug_abbrev  0x00000000       0x26 build/default/production/_ext/337302064/pppol2tp.o
 .debug_aranges
                0x00000000       0x18 build/default/production/_ext/337302064/pppol2tp.o
 .debug_line    0x00000000       0x54 build/default/production/_ext/337302064/pppol2tp.o
 .debug_str     0x00000000      0x2da build/default/production/_ext/337302064/pppol2tp.o
 .comment       0x00000000       0x36 build/default/production/_ext/337302064/pppol2tp.o
 .ARM.attributes
                0x00000000       0x32 build/default/production/_ext/337302064/pppol2tp.o
 .text          0x00000000        0x0 build/default/production/_ext/337302064/pppos.o
 .data          0x00000000        0x0 build/default/production/_ext/337302064/pppos.o
 .bss           0x00000000        0x0 build/default/production/_ext/337302064/pppos.o
 .debug_info    0x00000000       0x79 build/default/production/_ext/337302064/pppos.o
 .debug_abbrev  0x00000000       0x26 build/default/production/_ext/337302064/pppos.o
 .debug_aranges
                0x00000000       0x18 build/default/production/_ext/337302064/pppos.o
 .debug_line    0x00000000       0x51 build/default/production/_ext/337302064/pppos.o
 .debug_str     0x00000000      0x2d7 build/default/production/_ext/337302064/pppos.o
 .comment       0x00000000       0x36 build/default/production/_ext/337302064/pppos.o
 .ARM.attributes
                0x00000000       0x32 build/default/production/_ext/337302064/pppos.o
 .text          0x00000000        0x0 build/default/production/_ext/337302064/upap.o
 .data          0x00000000        0x0 build/default/production/_ext/337302064/upap.o
 .bss           0x00000000        0x0 build/default/production/_ext/337302064/upap.o
 .debug_info    0x00000000       0x79 build/default/production/_ext/337302064/upap.o
 .debug_abbrev  0x00000000       0x26 build/default/production/_ext/337302064/upap.o
 .debug_aranges
                0x00000000       0x18 build/default/production/_ext/337302064/upap.o
 .debug_line    0x00000000       0x50 build/default/production/_ext/337302064/upap.o
 .debug_str     0x00000000      0x2d6 build/default/production/_ext/337302064/upap.o
 .comment       0x00000000       0x36 build/default/production/_ext/337302064/upap.o
 .ARM.attributes
                0x00000000       0x32 build/default/production/_ext/337302064/upap.o
 .text          0x00000000        0x0 build/default/production/_ext/337302064/utils.o
 .data          0x00000000        0x0 build/default/production/_ext/337302064/utils.o
 .bss           0x00000000        0x0 build/default/production/_ext/337302064/utils.o
 .debug_info    0x00000000       0x79 build/default/production/_ext/337302064/utils.o
 .debug_abbrev  0x00000000       0x26 build/default/production/_ext/337302064/utils.o
 .debug_aranges
                0x00000000       0x18 build/default/production/_ext/337302064/utils.o
 .debug_line    0x00000000       0x51 build/default/production/_ext/337302064/utils.o
 .debug_str     0x00000000      0x2d7 build/default/production/_ext/337302064/utils.o
 .comment       0x00000000       0x36 build/default/production/_ext/337302064/utils.o
 .ARM.attributes
                0x00000000       0x32 build/default/production/_ext/337302064/utils.o
 .text          0x00000000        0x0 build/default/production/_ext/337302064/vj.o
 .data          0x00000000        0x0 build/default/production/_ext/337302064/vj.o
 .bss           0x00000000        0x0 build/default/production/_ext/337302064/vj.o
 .debug_info    0x00000000       0x79 build/default/production/_ext/337302064/vj.o
 .debug_abbrev  0x00000000       0x26 build/default/production/_ext/337302064/vj.o
 .debug_aranges
                0x00000000       0x18 build/default/production/_ext/337302064/vj.o
 .debug_line    0x00000000       0x4e build/default/production/_ext/337302064/vj.o
 .debug_str     0x00000000      0x2d4 build/default/production/_ext/337302064/vj.o
 .comment       0x00000000       0x36 build/default/production/_ext/337302064/vj.o
 .ARM.attributes
                0x00000000       0x32 build/default/production/_ext/337302064/vj.o
 .text          0x00000000        0x0 build/default/production/_ext/534298161/slipif.o
 .data          0x00000000        0x0 build/default/production/_ext/534298161/slipif.o
 .bss           0x00000000        0x0 build/default/production/_ext/534298161/slipif.o
 .text.slipif_output
                0x00000000       0xb6 build/default/production/_ext/534298161/slipif.o
 .text.slipif_output_v4
                0x00000000       0x1e build/default/production/_ext/534298161/slipif.o
 .text.slipif_rxbyte
                0x00000000      0x184 build/default/production/_ext/534298161/slipif.o
 .text.slipif_rxbyte_input
                0x00000000       0x3c build/default/production/_ext/534298161/slipif.o
 .text.slipif_loop_thread
                0x00000000       0x34 build/default/production/_ext/534298161/slipif.o
 .rodata        0x00000000        0xc build/default/production/_ext/534298161/slipif.o
 .text.slipif_init
                0x00000000       0xac build/default/production/_ext/534298161/slipif.o
 .text.slipif_poll
                0x00000000       0x3a build/default/production/_ext/534298161/slipif.o
 .debug_info    0x00000000      0xb48 build/default/production/_ext/534298161/slipif.o
 .debug_abbrev  0x00000000      0x2b4 build/default/production/_ext/534298161/slipif.o
 .debug_loc     0x00000000      0x218 build/default/production/_ext/534298161/slipif.o
 .debug_aranges
                0x00000000       0x50 build/default/production/_ext/534298161/slipif.o
 .debug_ranges  0x00000000       0x40 build/default/production/_ext/534298161/slipif.o
 .debug_line    0x00000000      0x41d build/default/production/_ext/534298161/slipif.o
 .debug_str     0x00000000      0x76e build/default/production/_ext/534298161/slipif.o
 .comment       0x00000000       0x36 build/default/production/_ext/534298161/slipif.o
 .debug_frame   0x00000000      0x10c build/default/production/_ext/534298161/slipif.o
 .ARM.attributes
                0x00000000       0x32 build/default/production/_ext/534298161/slipif.o
 .text          0x00000000        0x0 build/default/production/_ext/534298161/zepif.o
 .data          0x00000000        0x0 build/default/production/_ext/534298161/zepif.o
 .bss           0x00000000        0x0 build/default/production/_ext/534298161/zepif.o
 .debug_info    0x00000000       0x79 build/default/production/_ext/534298161/zepif.o
 .debug_abbrev  0x00000000       0x26 build/default/production/_ext/534298161/zepif.o
 .debug_aranges
                0x00000000       0x18 build/default/production/_ext/534298161/zepif.o
 .debug_line    0x00000000       0x4d build/default/production/_ext/534298161/zepif.o
 .debug_str     0x00000000      0x2d3 build/default/production/_ext/534298161/zepif.o
 .comment       0x00000000       0x36 build/default/production/_ext/534298161/zepif.o
 .ARM.attributes
                0x00000000       0x32 build/default/production/_ext/534298161/zepif.o
 .text          0x00000000        0x0 build/default/production/_ext/35151586/audio_device.o
 .data          0x00000000        0x0 build/default/production/_ext/35151586/audio_device.o
 .bss           0x00000000        0x0 build/default/production/_ext/35151586/audio_device.o
 .debug_info    0x00000000       0x25 build/default/production/_ext/35151586/audio_device.o
 .debug_abbrev  0x00000000       0x1b build/default/production/_ext/35151586/audio_device.o
 .debug_aranges
                0x00000000       0x18 build/default/production/_ext/35151586/audio_device.o
 .debug_line    0x00000000       0x5d build/default/production/_ext/35151586/audio_device.o
 .debug_str     0x00000000      0x247 build/default/production/_ext/35151586/audio_device.o
 .comment       0x00000000       0x36 build/default/production/_ext/35151586/audio_device.o
 .ARM.attributes
                0x00000000       0x32 build/default/production/_ext/35151586/audio_device.o
 .text          0x00000000        0x0 build/default/production/_ext/1439067038/bth_device.o
 .data          0x00000000        0x0 build/default/production/_ext/1439067038/bth_device.o
 .bss           0x00000000        0x0 build/default/production/_ext/1439067038/bth_device.o
 .debug_info    0x00000000       0x25 build/default/production/_ext/1439067038/bth_device.o
 .debug_abbrev  0x00000000       0x1b build/default/production/_ext/1439067038/bth_device.o
 .debug_aranges
                0x00000000       0x18 build/default/production/_ext/1439067038/bth_device.o
 .debug_line    0x00000000       0x59 build/default/production/_ext/1439067038/bth_device.o
 .debug_str     0x00000000      0x243 build/default/production/_ext/1439067038/bth_device.o
 .comment       0x00000000       0x36 build/default/production/_ext/1439067038/bth_device.o
 .ARM.attributes
                0x00000000       0x32 build/default/production/_ext/1439067038/bth_device.o
 .text          0x00000000        0x0 build/default/production/_ext/1439066578/cdc_device.o
 .data          0x00000000        0x0 build/default/production/_ext/1439066578/cdc_device.o
 .bss           0x00000000        0x0 build/default/production/_ext/1439066578/cdc_device.o
 .debug_info    0x00000000       0x25 build/default/production/_ext/1439066578/cdc_device.o
 .debug_abbrev  0x00000000       0x1b build/default/production/_ext/1439066578/cdc_device.o
 .debug_aranges
                0x00000000       0x18 build/default/production/_ext/1439066578/cdc_device.o
 .debug_line    0x00000000       0x59 build/default/production/_ext/1439066578/cdc_device.o
 .debug_str     0x00000000      0x243 build/default/production/_ext/1439066578/cdc_device.o
 .comment       0x00000000       0x36 build/default/production/_ext/1439066578/cdc_device.o
 .ARM.attributes
                0x00000000       0x32 build/default/production/_ext/1439066578/cdc_device.o
 .text          0x00000000        0x0 build/default/production/_ext/1439066578/cdc_host.o
 .data          0x00000000        0x0 build/default/production/_ext/1439066578/cdc_host.o
 .bss           0x00000000        0x0 build/default/production/_ext/1439066578/cdc_host.o
 .debug_info    0x00000000       0x6b build/default/production/_ext/1439066578/cdc_host.o
 .debug_abbrev  0x00000000       0x26 build/default/production/_ext/1439066578/cdc_host.o
 .debug_aranges
                0x00000000       0x18 build/default/production/_ext/1439066578/cdc_host.o
 .debug_line    0x00000000       0x57 build/default/production/_ext/1439066578/cdc_host.o
 .debug_str     0x00000000      0x2cc build/default/production/_ext/1439066578/cdc_host.o
 .comment       0x00000000       0x36 build/default/production/_ext/1439066578/cdc_host.o
 .ARM.attributes
                0x00000000       0x32 build/default/production/_ext/1439066578/cdc_host.o
 .text          0x00000000        0x0 build/default/production/_ext/1439065537/dfu_device.o
 .data          0x00000000        0x0 build/default/production/_ext/1439065537/dfu_device.o
 .bss           0x00000000        0x0 build/default/production/_ext/1439065537/dfu_device.o
 .debug_info    0x00000000       0x25 build/default/production/_ext/1439065537/dfu_device.o
 .debug_abbrev  0x00000000       0x1b build/default/production/_ext/1439065537/dfu_device.o
 .debug_aranges
                0x00000000       0x18 build/default/production/_ext/1439065537/dfu_device.o
 .debug_line    0x00000000       0x59 build/default/production/_ext/1439065537/dfu_device.o
 .debug_str     0x00000000      0x243 build/default/production/_ext/1439065537/dfu_device.o
 .comment       0x00000000       0x36 build/default/production/_ext/1439065537/dfu_device.o
 .ARM.attributes
                0x00000000       0x32 build/default/production/_ext/1439065537/dfu_device.o
 .text          0x00000000        0x0 build/default/production/_ext/1439065537/dfu_rt_device.o
 .data          0x00000000        0x0 build/default/production/_ext/1439065537/dfu_rt_device.o
 .bss           0x00000000        0x0 build/default/production/_ext/1439065537/dfu_rt_device.o
 .debug_info    0x00000000       0x25 build/default/production/_ext/1439065537/dfu_rt_device.o
 .debug_abbrev  0x00000000       0x1b build/default/production/_ext/1439065537/dfu_rt_device.o
 .debug_aranges
                0x00000000       0x18 build/default/production/_ext/1439065537/dfu_rt_device.o
 .debug_line    0x00000000       0x5c build/default/production/_ext/1439065537/dfu_rt_device.o
 .debug_str     0x00000000      0x246 build/default/production/_ext/1439065537/dfu_rt_device.o
 .comment       0x00000000       0x36 build/default/production/_ext/1439065537/dfu_rt_device.o
 .ARM.attributes
                0x00000000       0x32 build/default/production/_ext/1439065537/dfu_rt_device.o
 .text          0x00000000        0x0 build/default/production/_ext/1439061617/hid_device.o
 .data          0x00000000        0x0 build/default/production/_ext/1439061617/hid_device.o
 .bss           0x00000000        0x0 build/default/production/_ext/1439061617/hid_device.o
 .debug_info    0x00000000       0x25 build/default/production/_ext/1439061617/hid_device.o
 .debug_abbrev  0x00000000       0x1b build/default/production/_ext/1439061617/hid_device.o
 .debug_aranges
                0x00000000       0x18 build/default/production/_ext/1439061617/hid_device.o
 .debug_line    0x00000000       0x59 build/default/production/_ext/1439061617/hid_device.o
 .debug_str     0x00000000      0x243 build/default/production/_ext/1439061617/hid_device.o
 .comment       0x00000000       0x36 build/default/production/_ext/1439061617/hid_device.o
 .ARM.attributes
                0x00000000       0x32 build/default/production/_ext/1439061617/hid_device.o
 .text          0x00000000        0x0 build/default/production/_ext/1439061617/hid_host.o
 .data          0x00000000        0x0 build/default/production/_ext/1439061617/hid_host.o
 .bss           0x00000000        0x0 build/default/production/_ext/1439061617/hid_host.o
 .debug_info    0x00000000       0x25 build/default/production/_ext/1439061617/hid_host.o
 .debug_abbrev  0x00000000       0x1b build/default/production/_ext/1439061617/hid_host.o
 .debug_aranges
                0x00000000       0x18 build/default/production/_ext/1439061617/hid_host.o
 .debug_line    0x00000000       0x57 build/default/production/_ext/1439061617/hid_host.o
 .debug_str     0x00000000      0x241 build/default/production/_ext/1439061617/hid_host.o
 .comment       0x00000000       0x36 build/default/production/_ext/1439061617/hid_host.o
 .ARM.attributes
                0x00000000       0x32 build/default/production/_ext/1439061617/hid_host.o
 .text          0x00000000        0x0 build/default/production/_ext/1661088107/midi_device.o
 .data          0x00000000        0x0 build/default/production/_ext/1661088107/midi_device.o
 .bss           0x00000000        0x0 build/default/production/_ext/1661088107/midi_device.o
 .debug_info    0x00000000       0x25 build/default/production/_ext/1661088107/midi_device.o
 .debug_abbrev  0x00000000       0x1b build/default/production/_ext/1661088107/midi_device.o
 .debug_aranges
                0x00000000       0x18 build/default/production/_ext/1661088107/midi_device.o
 .debug_line    0x00000000       0x5b build/default/production/_ext/1661088107/midi_device.o
 .debug_str     0x00000000      0x245 build/default/production/_ext/1661088107/midi_device.o
 .comment       0x00000000       0x36 build/default/production/_ext/1661088107/midi_device.o
 .ARM.attributes
                0x00000000       0x32 build/default/production/_ext/1661088107/midi_device.o
 .text          0x00000000        0x0 build/default/production/_ext/1661088107/midi_host.o
 .data          0x00000000        0x0 build/default/production/_ext/1661088107/midi_host.o
 .bss           0x00000000        0x0 build/default/production/_ext/1661088107/midi_host.o
 .debug_info    0x00000000       0x25 build/default/production/_ext/1661088107/midi_host.o
 .debug_abbrev  0x00000000       0x1b build/default/production/_ext/1661088107/midi_host.o
 .debug_aranges
                0x00000000       0x18 build/default/production/_ext/1661088107/midi_host.o
 .debug_line    0x00000000       0x59 build/default/production/_ext/1661088107/midi_host.o
 .debug_str     0x00000000      0x243 build/default/production/_ext/1661088107/midi_host.o
 .comment       0x00000000       0x36 build/default/production/_ext/1661088107/midi_host.o
 .ARM.attributes
                0x00000000       0x32 build/default/production/_ext/1661088107/midi_host.o
 .text          0x00000000        0x0 build/default/production/_ext/1439056503/msc_device.o
 .data          0x00000000        0x0 build/default/production/_ext/1439056503/msc_device.o
 .bss           0x00000000        0x0 build/default/production/_ext/1439056503/msc_device.o
 .debug_info    0x00000000       0x25 build/default/production/_ext/1439056503/msc_device.o
 .debug_abbrev  0x00000000       0x1b build/default/production/_ext/1439056503/msc_device.o
 .debug_aranges
                0x00000000       0x18 build/default/production/_ext/1439056503/msc_device.o
 .debug_line    0x00000000       0x59 build/default/production/_ext/1439056503/msc_device.o
 .debug_str     0x00000000      0x243 build/default/production/_ext/1439056503/msc_device.o
 .comment       0x00000000       0x36 build/default/production/_ext/1439056503/msc_device.o
 .ARM.attributes
                0x00000000       0x32 build/default/production/_ext/1439056503/msc_device.o
 .text          0x00000000        0x0 build/default/production/_ext/1439056503/msc_host.o
 .data          0x00000000        0x0 build/default/production/_ext/1439056503/msc_host.o
 .bss           0x00000000        0x0 build/default/production/_ext/1439056503/msc_host.o
 .debug_info    0x00000000       0x25 build/default/production/_ext/1439056503/msc_host.o
 .debug_abbrev  0x00000000       0x1b build/default/production/_ext/1439056503/msc_host.o
 .debug_aranges
                0x00000000       0x18 build/default/production/_ext/1439056503/msc_host.o
 .debug_line    0x00000000       0x57 build/default/production/_ext/1439056503/msc_host.o
 .debug_str     0x00000000      0x241 build/default/production/_ext/1439056503/msc_host.o
 .comment       0x00000000       0x36 build/default/production/_ext/1439056503/msc_host.o
 .ARM.attributes
                0x00000000       0x32 build/default/production/_ext/1439056503/msc_host.o
 .text          0x00000000        0x0 build/default/production/_ext/1439056459/mtp_device.o
 .data          0x00000000        0x0 build/default/production/_ext/1439056459/mtp_device.o
 .bss           0x00000000        0x0 build/default/production/_ext/1439056459/mtp_device.o
 .debug_info    0x00000000       0x25 build/default/production/_ext/1439056459/mtp_device.o
 .debug_abbrev  0x00000000       0x1b build/default/production/_ext/1439056459/mtp_device.o
 .debug_aranges
                0x00000000       0x18 build/default/production/_ext/1439056459/mtp_device.o
 .debug_line    0x00000000       0x59 build/default/production/_ext/1439056459/mtp_device.o
 .debug_str     0x00000000      0x243 build/default/production/_ext/1439056459/mtp_device.o
 .comment       0x00000000       0x36 build/default/production/_ext/1439056459/mtp_device.o
 .ARM.attributes
                0x00000000       0x32 build/default/production/_ext/1439056459/mtp_device.o
 .text          0x00000000        0x0 build/default/production/_ext/1439055959/ecm_rndis_device.o
 .data          0x00000000        0x0 build/default/production/_ext/1439055959/ecm_rndis_device.o
 .bss           0x00000000        0x0 build/default/production/_ext/1439055959/ecm_rndis_device.o
 .debug_info    0x00000000       0x25 build/default/production/_ext/1439055959/ecm_rndis_device.o
 .debug_abbrev  0x00000000       0x1b build/default/production/_ext/1439055959/ecm_rndis_device.o
 .debug_aranges
                0x00000000       0x18 build/default/production/_ext/1439055959/ecm_rndis_device.o
 .debug_line    0x00000000       0x5f build/default/production/_ext/1439055959/ecm_rndis_device.o
 .debug_str     0x00000000      0x249 build/default/production/_ext/1439055959/ecm_rndis_device.o
 .comment       0x00000000       0x36 build/default/production/_ext/1439055959/ecm_rndis_device.o
 .ARM.attributes
                0x00000000       0x32 build/default/production/_ext/1439055959/ecm_rndis_device.o
 .text          0x00000000        0x0 build/default/production/_ext/1439055959/ncm_device.o
 .data          0x00000000        0x0 build/default/production/_ext/1439055959/ncm_device.o
 .bss           0x00000000        0x0 build/default/production/_ext/1439055959/ncm_device.o
 .text          0x00000000        0x0 build/default/production/_ext/1660386170/usbtmc_device.o
 .data          0x00000000        0x0 build/default/production/_ext/1660386170/usbtmc_device.o
 .bss           0x00000000        0x0 build/default/production/_ext/1660386170/usbtmc_device.o
 .debug_info    0x00000000       0x25 build/default/production/_ext/1660386170/usbtmc_device.o
 .debug_abbrev  0x00000000       0x1b build/default/production/_ext/1660386170/usbtmc_device.o
 .debug_aranges
                0x00000000       0x18 build/default/production/_ext/1660386170/usbtmc_device.o
 .debug_line    0x00000000       0x5f build/default/production/_ext/1660386170/usbtmc_device.o
 .debug_str     0x00000000      0x249 build/default/production/_ext/1660386170/usbtmc_device.o
 .comment       0x00000000       0x36 build/default/production/_ext/1660386170/usbtmc_device.o
 .ARM.attributes
                0x00000000       0x32 build/default/production/_ext/1660386170/usbtmc_device.o
 .text          0x00000000        0x0 build/default/production/_ext/1676428220/vendor_device.o
 .data          0x00000000        0x0 build/default/production/_ext/1676428220/vendor_device.o
 .bss           0x00000000        0x0 build/default/production/_ext/1676428220/vendor_device.o
 .debug_info    0x00000000       0x25 build/default/production/_ext/1676428220/vendor_device.o
 .debug_abbrev  0x00000000       0x1b build/default/production/_ext/1676428220/vendor_device.o
 .debug_aranges
                0x00000000       0x18 build/default/production/_ext/1676428220/vendor_device.o
 .debug_line    0x00000000       0x5f build/default/production/_ext/1676428220/vendor_device.o
 .debug_str     0x00000000      0x249 build/default/production/_ext/1676428220/vendor_device.o
 .comment       0x00000000       0x36 build/default/production/_ext/1676428220/vendor_device.o
 .ARM.attributes
                0x00000000       0x32 build/default/production/_ext/1676428220/vendor_device.o
 .text          0x00000000        0x0 build/default/production/_ext/1676428220/vendor_host.o
 .data          0x00000000        0x0 build/default/production/_ext/1676428220/vendor_host.o
 .bss           0x00000000        0x0 build/default/production/_ext/1676428220/vendor_host.o
 .debug_info    0x00000000       0x25 build/default/production/_ext/1676428220/vendor_host.o
 .debug_abbrev  0x00000000       0x1b build/default/production/_ext/1676428220/vendor_host.o
 .debug_aranges
                0x00000000       0x18 build/default/production/_ext/1676428220/vendor_host.o
 .debug_line    0x00000000       0x5d build/default/production/_ext/1676428220/vendor_host.o
 .debug_str     0x00000000      0x247 build/default/production/_ext/1676428220/vendor_host.o
 .comment       0x00000000       0x36 build/default/production/_ext/1676428220/vendor_host.o
 .ARM.attributes
                0x00000000       0x32 build/default/production/_ext/1676428220/vendor_host.o
 .text          0x00000000        0x0 build/default/production/_ext/54187911/video_device.o
 .data          0x00000000        0x0 build/default/production/_ext/54187911/video_device.o
 .bss           0x00000000        0x0 build/default/production/_ext/54187911/video_device.o
 .debug_info    0x00000000       0x25 build/default/production/_ext/54187911/video_device.o
 .debug_abbrev  0x00000000       0x1b build/default/production/_ext/54187911/video_device.o
 .debug_aranges
                0x00000000       0x18 build/default/production/_ext/54187911/video_device.o
 .debug_line    0x00000000       0x5d build/default/production/_ext/54187911/video_device.o
 .debug_str     0x00000000      0x247 build/default/production/_ext/54187911/video_device.o
 .comment       0x00000000       0x36 build/default/production/_ext/54187911/video_device.o
 .ARM.attributes
                0x00000000       0x32 build/default/production/_ext/54187911/video_device.o
 .text          0x00000000        0x0 build/default/production/_ext/761407912/tusb_fifo.o
 .data          0x00000000        0x0 build/default/production/_ext/761407912/tusb_fifo.o
 .bss           0x00000000        0x0 build/default/production/_ext/761407912/tusb_fifo.o
 .text.tu_fifo_config
                0x00000000      0x258 build/default/production/_ext/761407912/tusb_fifo.o
 .text.tu_fifo_clear
                0x00000000      0x210 build/default/production/_ext/761407912/tusb_fifo.o
 .text.tu_fifo_set_overwritable
                0x00000000      0x22a build/default/production/_ext/761407912/tusb_fifo.o
 .text.tu_fifo_peek_n
                0x00000000      0x128 build/default/production/_ext/761407912/tusb_fifo.o
 .text.tu_fifo_discard_n
                0x00000000      0x18c build/default/production/_ext/761407912/tusb_fifo.o
 .text.ff_peek_local
                0x00000000      0x1bc build/default/production/_ext/761407912/tusb_fifo.o
 .text.tu_fifo_read
                0x00000000      0x142 build/default/production/_ext/761407912/tusb_fifo.o
 .text.tu_fifo_peek
                0x00000000       0x28 build/default/production/_ext/761407912/tusb_fifo.o
 .text.tu_fifo_write
                0x00000000      0x1e4 build/default/production/_ext/761407912/tusb_fifo.o
 .text.tu_fifo_advance_write_pointer
                0x00000000       0x2e build/default/production/_ext/761407912/tusb_fifo.o
 .text.tu_fifo_correct_read_pointer
                0x00000000      0x10e build/default/production/_ext/761407912/tusb_fifo.o
 .text.tu_fifo_advance_read_pointer
                0x00000000       0x2e build/default/production/_ext/761407912/tusb_fifo.o
 .text.tu_fifo_get_read_info
                0x00000000      0x22a build/default/production/_ext/761407912/tusb_fifo.o
 .text.tu_fifo_get_write_info
                0x00000000      0x126 build/default/production/_ext/761407912/tusb_fifo.o
 .text          0x00000000        0x0 build/default/production/_ext/781065747/usbd.o
 .data          0x00000000        0x0 build/default/production/_ext/781065747/usbd.o
 .bss           0x00000000        0x0 build/default/production/_ext/781065747/usbd.o
 .text.tud_descriptor_bos_cb
                0x00000000       0x10 build/default/production/_ext/781065747/usbd.o
 .text.tud_vendor_control_xfer_cb
                0x00000000       0x1e build/default/production/_ext/781065747/usbd.o
 .text.dcd_deinit
                0x00000000       0x18 build/default/production/_ext/781065747/usbd.o
 .text.dcd_connect
                0x00000000       0x16 build/default/production/_ext/781065747/usbd.o
 .text.dcd_disconnect
                0x00000000       0x16 build/default/production/_ext/781065747/usbd.o
 .text.dcd_dcache_clean
                0x00000000       0x18 build/default/production/_ext/781065747/usbd.o
 .text.dcd_dcache_invalidate
                0x00000000       0x18 build/default/production/_ext/781065747/usbd.o
 .text.dcd_dcache_clean_invalidate
                0x00000000       0x18 build/default/production/_ext/781065747/usbd.o
 .text.dcd_edpt_xfer_fifo
                0x00000000       0x24 build/default/production/_ext/781065747/usbd.o
 .text.dcd_configure
                0x00000000       0x1c build/default/production/_ext/781065747/usbd.o
 .text.tud_connected
                0x00000000       0x24 build/default/production/_ext/781065747/usbd.o
 .text.tud_remote_wakeup
                0x00000000       0x38 build/default/production/_ext/781065747/usbd.o
 .text.tud_disconnect
                0x00000000       0x18 build/default/production/_ext/781065747/usbd.o
 .text.tud_connect
                0x00000000       0x18 build/default/production/_ext/781065747/usbd.o
 .text.tud_sof_cb_enable
                0x00000000       0x24 build/default/production/_ext/781065747/usbd.o
 .text.tud_configure
                0x00000000       0x24 build/default/production/_ext/781065747/usbd.o
 .text.tud_deinit
                0x00000000      0x12c build/default/production/_ext/781065747/usbd.o
 .text.tud_task_event_ready
                0x00000000       0x54 build/default/production/_ext/781065747/usbd.o
 .text.usbd_int_set
                0x00000000       0x34 build/default/production/_ext/781065747/usbd.o
 .text.usbd_spin_lock
                0x00000000       0x2c build/default/production/_ext/781065747/usbd.o
 .text.usbd_spin_unlock
                0x00000000       0x2c build/default/production/_ext/781065747/usbd.o
 .text.usbd_defer_func
                0x00000000       0xf0 build/default/production/_ext/781065747/usbd.o
 .text.usbd_edpt_claim
                0x00000000       0x5c build/default/production/_ext/781065747/usbd.o
 .text.usbd_edpt_release
                0x00000000       0x5c build/default/production/_ext/781065747/usbd.o
 .text.usbd_edpt_xfer_fifo
                0x00000000       0x24 build/default/production/_ext/781065747/usbd.o
 .text.usbd_edpt_close
                0x00000000       0x1c build/default/production/_ext/781065747/usbd.o
 .text.usbd_sof_enable
                0x00000000       0xa8 build/default/production/_ext/781065747/usbd.o
 .text.usbd_edpt_iso_alloc
                0x00000000       0x5c build/default/production/_ext/781065747/usbd.o
 .text.usbd_edpt_iso_activate
                0x00000000       0xe4 build/default/production/_ext/781065747/usbd.o
 .text          0x00000000        0x0 build/default/production/_ext/781065747/usbd_control.o
 .data          0x00000000        0x0 build/default/production/_ext/781065747/usbd_control.o
 .bss           0x00000000        0x0 build/default/production/_ext/781065747/usbd_control.o
 .text.dcd_edpt0_status_complete
                0x00000000       0x18 build/default/production/_ext/781065747/usbd_control.o
 .text          0x00000000        0x0 build/default/production/_ext/832225445/hub.o
 .data          0x00000000        0x0 build/default/production/_ext/832225445/hub.o
 .bss           0x00000000        0x0 build/default/production/_ext/832225445/hub.o
 .debug_info    0x00000000       0x25 build/default/production/_ext/832225445/hub.o
 .debug_abbrev  0x00000000       0x1b build/default/production/_ext/832225445/hub.o
 .debug_aranges
                0x00000000       0x18 build/default/production/_ext/832225445/hub.o
 .debug_line    0x00000000       0x4d build/default/production/_ext/832225445/hub.o
 .debug_str     0x00000000      0x237 build/default/production/_ext/832225445/hub.o
 .comment       0x00000000       0x36 build/default/production/_ext/832225445/hub.o
 .ARM.attributes
                0x00000000       0x32 build/default/production/_ext/832225445/hub.o
 .text          0x00000000        0x0 build/default/production/_ext/832225445/usbh.o
 .data          0x00000000        0x0 build/default/production/_ext/832225445/usbh.o
 .bss           0x00000000        0x0 build/default/production/_ext/832225445/usbh.o
 .debug_info    0x00000000       0x25 build/default/production/_ext/832225445/usbh.o
 .debug_abbrev  0x00000000       0x1b build/default/production/_ext/832225445/usbh.o
 .debug_aranges
                0x00000000       0x18 build/default/production/_ext/832225445/usbh.o
 .debug_line    0x00000000       0x4e build/default/production/_ext/832225445/usbh.o
 .debug_str     0x00000000      0x238 build/default/production/_ext/832225445/usbh.o
 .comment       0x00000000       0x36 build/default/production/_ext/832225445/usbh.o
 .ARM.attributes
                0x00000000       0x32 build/default/production/_ext/832225445/usbh.o
 .text          0x00000000        0x0 build/default/production/_ext/1815088828/hcd_max3421.o
 .data          0x00000000        0x0 build/default/production/_ext/1815088828/hcd_max3421.o
 .bss           0x00000000        0x0 build/default/production/_ext/1815088828/hcd_max3421.o
 .debug_info    0x00000000       0x25 build/default/production/_ext/1815088828/hcd_max3421.o
 .debug_abbrev  0x00000000       0x1b build/default/production/_ext/1815088828/hcd_max3421.o
 .debug_aranges
                0x00000000       0x18 build/default/production/_ext/1815088828/hcd_max3421.o
 .debug_line    0x00000000       0x68 build/default/production/_ext/1815088828/hcd_max3421.o
 .debug_str     0x00000000      0x252 build/default/production/_ext/1815088828/hcd_max3421.o
 .comment       0x00000000       0x36 build/default/production/_ext/1815088828/hcd_max3421.o
 .ARM.attributes
                0x00000000       0x32 build/default/production/_ext/1815088828/hcd_max3421.o
 .text          0x00000000        0x0 build/default/production/_ext/256384106/dcd_ft9xx.o
 .data          0x00000000        0x0 build/default/production/_ext/256384106/dcd_ft9xx.o
 .bss           0x00000000        0x0 build/default/production/_ext/256384106/dcd_ft9xx.o
 .debug_info    0x00000000       0x25 build/default/production/_ext/256384106/dcd_ft9xx.o
 .debug_abbrev  0x00000000       0x1b build/default/production/_ext/256384106/dcd_ft9xx.o
 .debug_aranges
                0x00000000       0x18 build/default/production/_ext/256384106/dcd_ft9xx.o
 .debug_line    0x00000000       0x67 build/default/production/_ext/256384106/dcd_ft9xx.o
 .debug_str     0x00000000      0x251 build/default/production/_ext/256384106/dcd_ft9xx.o
 .comment       0x00000000       0x36 build/default/production/_ext/256384106/dcd_ft9xx.o
 .ARM.attributes
                0x00000000       0x32 build/default/production/_ext/256384106/dcd_ft9xx.o
 .text          0x00000000        0x0 build/default/production/_ext/876141423/dcd_ci_fs.o
 .data          0x00000000        0x0 build/default/production/_ext/876141423/dcd_ci_fs.o
 .bss           0x00000000        0x0 build/default/production/_ext/876141423/dcd_ci_fs.o
 .debug_info    0x00000000       0x25 build/default/production/_ext/876141423/dcd_ci_fs.o
 .debug_abbrev  0x00000000       0x1b build/default/production/_ext/876141423/dcd_ci_fs.o
 .debug_aranges
                0x00000000       0x18 build/default/production/_ext/876141423/dcd_ci_fs.o
 .debug_line    0x00000000       0x66 build/default/production/_ext/876141423/dcd_ci_fs.o
 .debug_str     0x00000000      0x250 build/default/production/_ext/876141423/dcd_ci_fs.o
 .comment       0x00000000       0x36 build/default/production/_ext/876141423/dcd_ci_fs.o
 .ARM.attributes
                0x00000000       0x32 build/default/production/_ext/876141423/dcd_ci_fs.o
 .text          0x00000000        0x0 build/default/production/_ext/876141361/dcd_ci_hs.o
 .data          0x00000000        0x0 build/default/production/_ext/876141361/dcd_ci_hs.o
 .bss           0x00000000        0x0 build/default/production/_ext/876141361/dcd_ci_hs.o
 .debug_info    0x00000000       0x25 build/default/production/_ext/876141361/dcd_ci_hs.o
 .debug_abbrev  0x00000000       0x1b build/default/production/_ext/876141361/dcd_ci_hs.o
 .debug_aranges
                0x00000000       0x18 build/default/production/_ext/876141361/dcd_ci_hs.o
 .debug_line    0x00000000       0x66 build/default/production/_ext/876141361/dcd_ci_hs.o
 .debug_str     0x00000000      0x250 build/default/production/_ext/876141361/dcd_ci_hs.o
 .comment       0x00000000       0x36 build/default/production/_ext/876141361/dcd_ci_hs.o
 .ARM.attributes
                0x00000000       0x32 build/default/production/_ext/876141361/dcd_ci_hs.o
 .text          0x00000000        0x0 build/default/production/_ext/876141361/hcd_ci_hs.o
 .data          0x00000000        0x0 build/default/production/_ext/876141361/hcd_ci_hs.o
 .bss           0x00000000        0x0 build/default/production/_ext/876141361/hcd_ci_hs.o
 .debug_info    0x00000000       0x25 build/default/production/_ext/876141361/hcd_ci_hs.o
 .debug_abbrev  0x00000000       0x1b build/default/production/_ext/876141361/hcd_ci_hs.o
 .debug_aranges
                0x00000000       0x18 build/default/production/_ext/876141361/hcd_ci_hs.o
 .debug_line    0x00000000       0x66 build/default/production/_ext/876141361/hcd_ci_hs.o
 .debug_str     0x00000000      0x250 build/default/production/_ext/876141361/hcd_ci_hs.o
 .comment       0x00000000       0x36 build/default/production/_ext/876141361/hcd_ci_hs.o
 .ARM.attributes
                0x00000000       0x32 build/default/production/_ext/876141361/hcd_ci_hs.o
 .text          0x00000000        0x0 build/default/production/_ext/1992673882/dcd_da146xx.o
 .data          0x00000000        0x0 build/default/production/_ext/1992673882/dcd_da146xx.o
 .bss           0x00000000        0x0 build/default/production/_ext/1992673882/dcd_da146xx.o
 .debug_info    0x00000000       0x25 build/default/production/_ext/1992673882/dcd_da146xx.o
 .debug_abbrev  0x00000000       0x1b build/default/production/_ext/1992673882/dcd_da146xx.o
 .debug_aranges
                0x00000000       0x18 build/default/production/_ext/1992673882/dcd_da146xx.o
 .debug_line    0x00000000       0x68 build/default/production/_ext/1992673882/dcd_da146xx.o
 .debug_str     0x00000000      0x252 build/default/production/_ext/1992673882/dcd_da146xx.o
 .comment       0x00000000       0x36 build/default/production/_ext/1992673882/dcd_da146xx.o
 .ARM.attributes
                0x00000000       0x32 build/default/production/_ext/1992673882/dcd_da146xx.o
 .text          0x00000000        0x0 build/default/production/_ext/1432889888/ehci.o
 .data          0x00000000        0x0 build/default/production/_ext/1432889888/ehci.o
 .bss           0x00000000        0x0 build/default/production/_ext/1432889888/ehci.o
 .debug_info    0x00000000       0x25 build/default/production/_ext/1432889888/ehci.o
 .debug_abbrev  0x00000000       0x1b build/default/production/_ext/1432889888/ehci.o
 .debug_aranges
                0x00000000       0x18 build/default/production/_ext/1432889888/ehci.o
 .debug_line    0x00000000       0x57 build/default/production/_ext/1432889888/ehci.o
 .debug_str     0x00000000      0x241 build/default/production/_ext/1432889888/ehci.o
 .comment       0x00000000       0x36 build/default/production/_ext/1432889888/ehci.o
 .ARM.attributes
                0x00000000       0x32 build/default/production/_ext/1432889888/ehci.o
 .text          0x00000000        0x0 build/default/production/_ext/2010713650/dcd_musb.o
 .data          0x00000000        0x0 build/default/production/_ext/2010713650/dcd_musb.o
 .bss           0x00000000        0x0 build/default/production/_ext/2010713650/dcd_musb.o
 .debug_info    0x00000000       0x25 build/default/production/_ext/2010713650/dcd_musb.o
 .debug_abbrev  0x00000000       0x1b build/default/production/_ext/2010713650/dcd_musb.o
 .debug_aranges
                0x00000000       0x18 build/default/production/_ext/2010713650/dcd_musb.o
 .debug_line    0x00000000       0x62 build/default/production/_ext/2010713650/dcd_musb.o
 .debug_str     0x00000000      0x24c build/default/production/_ext/2010713650/dcd_musb.o
 .comment       0x00000000       0x36 build/default/production/_ext/2010713650/dcd_musb.o
 .ARM.attributes
                0x00000000       0x32 build/default/production/_ext/2010713650/dcd_musb.o
 .text          0x00000000        0x0 build/default/production/_ext/2010713650/hcd_musb.o
 .data          0x00000000        0x0 build/default/production/_ext/2010713650/hcd_musb.o
 .bss           0x00000000        0x0 build/default/production/_ext/2010713650/hcd_musb.o
 .debug_info    0x00000000       0x25 build/default/production/_ext/2010713650/hcd_musb.o
 .debug_abbrev  0x00000000       0x1b build/default/production/_ext/2010713650/hcd_musb.o
 .debug_aranges
                0x00000000       0x18 build/default/production/_ext/2010713650/hcd_musb.o
 .debug_line    0x00000000       0x62 build/default/production/_ext/2010713650/hcd_musb.o
 .debug_str     0x00000000      0x24c build/default/production/_ext/2010713650/hcd_musb.o
 .comment       0x00000000       0x36 build/default/production/_ext/2010713650/hcd_musb.o
 .ARM.attributes
                0x00000000       0x32 build/default/production/_ext/2010713650/hcd_musb.o
 .text          0x00000000        0x0 build/default/production/_ext/2093936272/dcd_samx7x.o
 .data          0x00000000        0x0 build/default/production/_ext/2093936272/dcd_samx7x.o
 .bss           0x00000000        0x0 build/default/production/_ext/2093936272/dcd_samx7x.o
 .bss.dma_desc  0x00000000       0x60 build/default/production/_ext/2093936272/dcd_samx7x.o
 .text.dcd_remote_wakeup
                0x00000000       0x28 build/default/production/_ext/2093936272/dcd_samx7x.o
 .text.dcd_disconnect
                0x00000000       0x78 build/default/production/_ext/2093936272/dcd_samx7x.o
 .text.dcd_edpt_iso_alloc
                0x00000000       0x20 build/default/production/_ext/2093936272/dcd_samx7x.o
 .text.dcd_edpt_iso_activate
                0x00000000       0x1a build/default/production/_ext/2093936272/dcd_samx7x.o
 .text.dcd_edpt_xfer_fifo
                0x00000000      0x3d4 build/default/production/_ext/2093936272/dcd_samx7x.o
 .text          0x00000000        0x0 build/default/production/_ext/1756924143/dcd_mm32f327x_otg.o
 .data          0x00000000        0x0 build/default/production/_ext/1756924143/dcd_mm32f327x_otg.o
 .bss           0x00000000        0x0 build/default/production/_ext/1756924143/dcd_mm32f327x_otg.o
 .debug_info    0x00000000       0x25 build/default/production/_ext/1756924143/dcd_mm32f327x_otg.o
 .debug_abbrev  0x00000000       0x1b build/default/production/_ext/1756924143/dcd_mm32f327x_otg.o
 .debug_aranges
                0x00000000       0x18 build/default/production/_ext/1756924143/dcd_mm32f327x_otg.o
 .debug_line    0x00000000       0x6f build/default/production/_ext/1756924143/dcd_mm32f327x_otg.o
 .debug_str     0x00000000      0x259 build/default/production/_ext/1756924143/dcd_mm32f327x_otg.o
 .comment       0x00000000       0x36 build/default/production/_ext/1756924143/dcd_mm32f327x_otg.o
 .ARM.attributes
                0x00000000       0x32 build/default/production/_ext/1756924143/dcd_mm32f327x_otg.o
 .text          0x00000000        0x0 build/default/production/_ext/1501477850/dcd_nrf5x.o
 .data          0x00000000        0x0 build/default/production/_ext/1501477850/dcd_nrf5x.o
 .bss           0x00000000        0x0 build/default/production/_ext/1501477850/dcd_nrf5x.o
 .debug_info    0x00000000       0x25 build/default/production/_ext/1501477850/dcd_nrf5x.o
 .debug_abbrev  0x00000000       0x1b build/default/production/_ext/1501477850/dcd_nrf5x.o
 .debug_aranges
                0x00000000       0x18 build/default/production/_ext/1501477850/dcd_nrf5x.o
 .debug_line    0x00000000       0x64 build/default/production/_ext/1501477850/dcd_nrf5x.o
 .debug_str     0x00000000      0x24e build/default/production/_ext/1501477850/dcd_nrf5x.o
 .comment       0x00000000       0x36 build/default/production/_ext/1501477850/dcd_nrf5x.o
 .ARM.attributes
                0x00000000       0x32 build/default/production/_ext/1501477850/dcd_nrf5x.o
 .text          0x00000000        0x0 build/default/production/_ext/144572742/dcd_nuc120.o
 .data          0x00000000        0x0 build/default/production/_ext/144572742/dcd_nuc120.o
 .bss           0x00000000        0x0 build/default/production/_ext/144572742/dcd_nuc120.o
 .debug_info    0x00000000       0x25 build/default/production/_ext/144572742/dcd_nuc120.o
 .debug_abbrev  0x00000000       0x1b build/default/production/_ext/144572742/dcd_nuc120.o
 .debug_aranges
                0x00000000       0x18 build/default/production/_ext/144572742/dcd_nuc120.o
 .debug_line    0x00000000       0x67 build/default/production/_ext/144572742/dcd_nuc120.o
 .debug_str     0x00000000      0x251 build/default/production/_ext/144572742/dcd_nuc120.o
 .comment       0x00000000       0x36 build/default/production/_ext/144572742/dcd_nuc120.o
 .ARM.attributes
                0x00000000       0x32 build/default/production/_ext/144572742/dcd_nuc120.o
 .text          0x00000000        0x0 build/default/production/_ext/144572743/dcd_nuc121.o
 .data          0x00000000        0x0 build/default/production/_ext/144572743/dcd_nuc121.o
 .bss           0x00000000        0x0 build/default/production/_ext/144572743/dcd_nuc121.o
 .debug_info    0x00000000       0x25 build/default/production/_ext/144572743/dcd_nuc121.o
 .debug_abbrev  0x00000000       0x1b build/default/production/_ext/144572743/dcd_nuc121.o
 .debug_aranges
                0x00000000       0x18 build/default/production/_ext/144572743/dcd_nuc121.o
 .debug_line    0x00000000       0x67 build/default/production/_ext/144572743/dcd_nuc121.o
 .debug_str     0x00000000      0x251 build/default/production/_ext/144572743/dcd_nuc121.o
 .comment       0x00000000       0x36 build/default/production/_ext/144572743/dcd_nuc121.o
 .ARM.attributes
                0x00000000       0x32 build/default/production/_ext/144572743/dcd_nuc121.o
 .text          0x00000000        0x0 build/default/production/_ext/144576529/dcd_nuc505.o
 .data          0x00000000        0x0 build/default/production/_ext/144576529/dcd_nuc505.o
 .bss           0x00000000        0x0 build/default/production/_ext/144576529/dcd_nuc505.o
 .debug_info    0x00000000       0x25 build/default/production/_ext/144576529/dcd_nuc505.o
 .debug_abbrev  0x00000000       0x1b build/default/production/_ext/144576529/dcd_nuc505.o
 .debug_aranges
                0x00000000       0x18 build/default/production/_ext/144576529/dcd_nuc505.o
 .debug_line    0x00000000       0x67 build/default/production/_ext/144576529/dcd_nuc505.o
 .debug_str     0x00000000      0x251 build/default/production/_ext/144576529/dcd_nuc505.o
 .comment       0x00000000       0x36 build/default/production/_ext/144576529/dcd_nuc505.o
 .ARM.attributes
                0x00000000       0x32 build/default/production/_ext/144576529/dcd_nuc505.o
 .text          0x00000000        0x0 build/default/production/_ext/1148959389/dcd_khci.o
 .data          0x00000000        0x0 build/default/production/_ext/1148959389/dcd_khci.o
 .bss           0x00000000        0x0 build/default/production/_ext/1148959389/dcd_khci.o
 .debug_info    0x00000000       0x25 build/default/production/_ext/1148959389/dcd_khci.o
 .debug_abbrev  0x00000000       0x1b build/default/production/_ext/1148959389/dcd_khci.o
 .debug_aranges
                0x00000000       0x18 build/default/production/_ext/1148959389/dcd_khci.o
 .debug_line    0x00000000       0x5f build/default/production/_ext/1148959389/dcd_khci.o
 .debug_str     0x00000000      0x249 build/default/production/_ext/1148959389/dcd_khci.o
 .comment       0x00000000       0x36 build/default/production/_ext/1148959389/dcd_khci.o
 .ARM.attributes
                0x00000000       0x32 build/default/production/_ext/1148959389/dcd_khci.o
 .text          0x00000000        0x0 build/default/production/_ext/1148959389/hcd_khci.o
 .data          0x00000000        0x0 build/default/production/_ext/1148959389/hcd_khci.o
 .bss           0x00000000        0x0 build/default/production/_ext/1148959389/hcd_khci.o
 .debug_info    0x00000000       0x25 build/default/production/_ext/1148959389/hcd_khci.o
 .debug_abbrev  0x00000000       0x1b build/default/production/_ext/1148959389/hcd_khci.o
 .debug_aranges
                0x00000000       0x18 build/default/production/_ext/1148959389/hcd_khci.o
 .debug_line    0x00000000       0x5f build/default/production/_ext/1148959389/hcd_khci.o
 .debug_str     0x00000000      0x249 build/default/production/_ext/1148959389/hcd_khci.o
 .comment       0x00000000       0x36 build/default/production/_ext/1148959389/hcd_khci.o
 .ARM.attributes
                0x00000000       0x32 build/default/production/_ext/1148959389/hcd_khci.o
 .text          0x00000000        0x0 build/default/production/_ext/929376790/dcd_lpc17_40.o
 .data          0x00000000        0x0 build/default/production/_ext/929376790/dcd_lpc17_40.o
 .bss           0x00000000        0x0 build/default/production/_ext/929376790/dcd_lpc17_40.o
 .debug_info    0x00000000       0x25 build/default/production/_ext/929376790/dcd_lpc17_40.o
 .debug_abbrev  0x00000000       0x1b build/default/production/_ext/929376790/dcd_lpc17_40.o
 .debug_aranges
                0x00000000       0x18 build/default/production/_ext/929376790/dcd_lpc17_40.o
 .debug_line    0x00000000       0x67 build/default/production/_ext/929376790/dcd_lpc17_40.o
 .debug_str     0x00000000      0x251 build/default/production/_ext/929376790/dcd_lpc17_40.o
 .comment       0x00000000       0x36 build/default/production/_ext/929376790/dcd_lpc17_40.o
 .ARM.attributes
                0x00000000       0x32 build/default/production/_ext/929376790/dcd_lpc17_40.o
 .text          0x00000000        0x0 build/default/production/_ext/899472023/dcd_lpc_ip3511.o
 .data          0x00000000        0x0 build/default/production/_ext/899472023/dcd_lpc_ip3511.o
 .bss           0x00000000        0x0 build/default/production/_ext/899472023/dcd_lpc_ip3511.o
 .debug_info    0x00000000       0x25 build/default/production/_ext/899472023/dcd_lpc_ip3511.o
 .debug_abbrev  0x00000000       0x1b build/default/production/_ext/899472023/dcd_lpc_ip3511.o
 .debug_aranges
                0x00000000       0x18 build/default/production/_ext/899472023/dcd_lpc_ip3511.o
 .debug_line    0x00000000       0x6b build/default/production/_ext/899472023/dcd_lpc_ip3511.o
 .debug_str     0x00000000      0x255 build/default/production/_ext/899472023/dcd_lpc_ip3511.o
 .comment       0x00000000       0x36 build/default/production/_ext/899472023/dcd_lpc_ip3511.o
 .ARM.attributes
                0x00000000       0x32 build/default/production/_ext/899472023/dcd_lpc_ip3511.o
 .text          0x00000000        0x0 build/default/production/_ext/1433187798/ohci.o
 .data          0x00000000        0x0 build/default/production/_ext/1433187798/ohci.o
 .bss           0x00000000        0x0 build/default/production/_ext/1433187798/ohci.o
 .debug_info    0x00000000       0x25 build/default/production/_ext/1433187798/ohci.o
 .debug_abbrev  0x00000000       0x1b build/default/production/_ext/1433187798/ohci.o
 .debug_aranges
                0x00000000       0x18 build/default/production/_ext/1433187798/ohci.o
 .debug_line    0x00000000       0x57 build/default/production/_ext/1433187798/ohci.o
 .debug_str     0x00000000      0x241 build/default/production/_ext/1433187798/ohci.o
 .comment       0x00000000       0x36 build/default/production/_ext/1433187798/ohci.o
 .ARM.attributes
                0x00000000       0x32 build/default/production/_ext/1433187798/ohci.o
 .text          0x00000000        0x0 build/default/production/_ext/1136298024/dcd_pio_usb.o
 .data          0x00000000        0x0 build/default/production/_ext/1136298024/dcd_pio_usb.o
 .bss           0x00000000        0x0 build/default/production/_ext/1136298024/dcd_pio_usb.o
 .debug_info    0x00000000       0x25 build/default/production/_ext/1136298024/dcd_pio_usb.o
 .debug_abbrev  0x00000000       0x1b build/default/production/_ext/1136298024/dcd_pio_usb.o
 .debug_aranges
                0x00000000       0x18 build/default/production/_ext/1136298024/dcd_pio_usb.o
 .debug_line    0x00000000       0x6d build/default/production/_ext/1136298024/dcd_pio_usb.o
 .debug_str     0x00000000      0x257 build/default/production/_ext/1136298024/dcd_pio_usb.o
 .comment       0x00000000       0x36 build/default/production/_ext/1136298024/dcd_pio_usb.o
 .ARM.attributes
                0x00000000       0x32 build/default/production/_ext/1136298024/dcd_pio_usb.o
 .text          0x00000000        0x0 build/default/production/_ext/1136298024/hcd_pio_usb.o
 .data          0x00000000        0x0 build/default/production/_ext/1136298024/hcd_pio_usb.o
 .bss           0x00000000        0x0 build/default/production/_ext/1136298024/hcd_pio_usb.o
 .debug_info    0x00000000       0x25 build/default/production/_ext/1136298024/hcd_pio_usb.o
 .debug_abbrev  0x00000000       0x1b build/default/production/_ext/1136298024/hcd_pio_usb.o
 .debug_aranges
                0x00000000       0x18 build/default/production/_ext/1136298024/hcd_pio_usb.o
 .debug_line    0x00000000       0x6d build/default/production/_ext/1136298024/hcd_pio_usb.o
 .debug_str     0x00000000      0x257 build/default/production/_ext/1136298024/hcd_pio_usb.o
 .comment       0x00000000       0x36 build/default/production/_ext/1136298024/hcd_pio_usb.o
 .ARM.attributes
                0x00000000       0x32 build/default/production/_ext/1136298024/hcd_pio_usb.o
 .text          0x00000000        0x0 build/default/production/_ext/163751003/dcd_rp2040.o
 .data          0x00000000        0x0 build/default/production/_ext/163751003/dcd_rp2040.o
 .bss           0x00000000        0x0 build/default/production/_ext/163751003/dcd_rp2040.o
 .debug_info    0x00000000       0x25 build/default/production/_ext/163751003/dcd_rp2040.o
 .debug_abbrev  0x00000000       0x1b build/default/production/_ext/163751003/dcd_rp2040.o
 .debug_aranges
                0x00000000       0x18 build/default/production/_ext/163751003/dcd_rp2040.o
 .debug_line    0x00000000       0x6b build/default/production/_ext/163751003/dcd_rp2040.o
 .debug_str     0x00000000      0x255 build/default/production/_ext/163751003/dcd_rp2040.o
 .comment       0x00000000       0x36 build/default/production/_ext/163751003/dcd_rp2040.o
 .ARM.attributes
                0x00000000       0x32 build/default/production/_ext/163751003/dcd_rp2040.o
 .text          0x00000000        0x0 build/default/production/_ext/163751003/hcd_rp2040.o
 .data          0x00000000        0x0 build/default/production/_ext/163751003/hcd_rp2040.o
 .bss           0x00000000        0x0 build/default/production/_ext/163751003/hcd_rp2040.o
 .debug_info    0x00000000       0x25 build/default/production/_ext/163751003/hcd_rp2040.o
 .debug_abbrev  0x00000000       0x1b build/default/production/_ext/163751003/hcd_rp2040.o
 .debug_aranges
                0x00000000       0x18 build/default/production/_ext/163751003/hcd_rp2040.o
 .debug_line    0x00000000       0x6b build/default/production/_ext/163751003/hcd_rp2040.o
 .debug_str     0x00000000      0x255 build/default/production/_ext/163751003/hcd_rp2040.o
 .comment       0x00000000       0x36 build/default/production/_ext/163751003/hcd_rp2040.o
 .ARM.attributes
                0x00000000       0x32 build/default/production/_ext/163751003/hcd_rp2040.o
 .text          0x00000000        0x0 build/default/production/_ext/163751003/rp2040_usb.o
 .data          0x00000000        0x0 build/default/production/_ext/163751003/rp2040_usb.o
 .bss           0x00000000        0x0 build/default/production/_ext/163751003/rp2040_usb.o
 .debug_info    0x00000000       0x25 build/default/production/_ext/163751003/rp2040_usb.o
 .debug_abbrev  0x00000000       0x1b build/default/production/_ext/163751003/rp2040_usb.o
 .debug_aranges
                0x00000000       0x18 build/default/production/_ext/163751003/rp2040_usb.o
 .debug_line    0x00000000       0x6b build/default/production/_ext/163751003/rp2040_usb.o
 .debug_str     0x00000000      0x255 build/default/production/_ext/163751003/rp2040_usb.o
 .comment       0x00000000       0x36 build/default/production/_ext/163751003/rp2040_usb.o
 .ARM.attributes
                0x00000000       0x32 build/default/production/_ext/163751003/rp2040_usb.o
 .text          0x00000000        0x0 build/default/production/_ext/2134692843/dcd_rusb2.o
 .data          0x00000000        0x0 build/default/production/_ext/2134692843/dcd_rusb2.o
 .bss           0x00000000        0x0 build/default/production/_ext/2134692843/dcd_rusb2.o
 .debug_info    0x00000000       0x25 build/default/production/_ext/2134692843/dcd_rusb2.o
 .debug_abbrev  0x00000000       0x1b build/default/production/_ext/2134692843/dcd_rusb2.o
 .debug_aranges
                0x00000000       0x18 build/default/production/_ext/2134692843/dcd_rusb2.o
 .debug_line    0x00000000       0x65 build/default/production/_ext/2134692843/dcd_rusb2.o
 .debug_str     0x00000000      0x24f build/default/production/_ext/2134692843/dcd_rusb2.o
 .comment       0x00000000       0x36 build/default/production/_ext/2134692843/dcd_rusb2.o
 .ARM.attributes
                0x00000000       0x32 build/default/production/_ext/2134692843/dcd_rusb2.o
 .text          0x00000000        0x0 build/default/production/_ext/2134692843/hcd_rusb2.o
 .data          0x00000000        0x0 build/default/production/_ext/2134692843/hcd_rusb2.o
 .bss           0x00000000        0x0 build/default/production/_ext/2134692843/hcd_rusb2.o
 .debug_info    0x00000000       0x25 build/default/production/_ext/2134692843/hcd_rusb2.o
 .debug_abbrev  0x00000000       0x1b build/default/production/_ext/2134692843/hcd_rusb2.o
 .debug_aranges
                0x00000000       0x18 build/default/production/_ext/2134692843/hcd_rusb2.o
 .debug_line    0x00000000       0x65 build/default/production/_ext/2134692843/hcd_rusb2.o
 .debug_str     0x00000000      0x24f build/default/production/_ext/2134692843/hcd_rusb2.o
 .comment       0x00000000       0x36 build/default/production/_ext/2134692843/hcd_rusb2.o
 .ARM.attributes
                0x00000000       0x32 build/default/production/_ext/2134692843/hcd_rusb2.o
 .text          0x00000000        0x0 build/default/production/_ext/2134692843/rusb2_common.o
 .data          0x00000000        0x0 build/default/production/_ext/2134692843/rusb2_common.o
 .bss           0x00000000        0x0 build/default/production/_ext/2134692843/rusb2_common.o
 .debug_info    0x00000000       0x25 build/default/production/_ext/2134692843/rusb2_common.o
 .debug_abbrev  0x00000000       0x1b build/default/production/_ext/2134692843/rusb2_common.o
 .debug_aranges
                0x00000000       0x18 build/default/production/_ext/2134692843/rusb2_common.o
 .debug_line    0x00000000       0x68 build/default/production/_ext/2134692843/rusb2_common.o
 .debug_str     0x00000000      0x252 build/default/production/_ext/2134692843/rusb2_common.o
 .comment       0x00000000       0x36 build/default/production/_ext/2134692843/rusb2_common.o
 .ARM.attributes
                0x00000000       0x32 build/default/production/_ext/2134692843/rusb2_common.o
 .text          0x00000000        0x0 build/default/production/_ext/1900358881/dcd_cxd56.o
 .data          0x00000000        0x0 build/default/production/_ext/1900358881/dcd_cxd56.o
 .bss           0x00000000        0x0 build/default/production/_ext/1900358881/dcd_cxd56.o
 .debug_info    0x00000000       0x25 build/default/production/_ext/1900358881/dcd_cxd56.o
 .debug_abbrev  0x00000000       0x1b build/default/production/_ext/1900358881/dcd_cxd56.o
 .debug_aranges
                0x00000000       0x18 build/default/production/_ext/1900358881/dcd_cxd56.o
 .debug_line    0x00000000       0x62 build/default/production/_ext/1900358881/dcd_cxd56.o
 .debug_str     0x00000000      0x24c build/default/production/_ext/1900358881/dcd_cxd56.o
 .comment       0x00000000       0x36 build/default/production/_ext/1900358881/dcd_cxd56.o
 .ARM.attributes
                0x00000000       0x32 build/default/production/_ext/1900358881/dcd_cxd56.o
 .text          0x00000000        0x0 build/default/production/_ext/530468573/dcd_stm32_fsdev.o
 .data          0x00000000        0x0 build/default/production/_ext/530468573/dcd_stm32_fsdev.o
 .bss           0x00000000        0x0 build/default/production/_ext/530468573/dcd_stm32_fsdev.o
 .debug_info    0x00000000       0x25 build/default/production/_ext/530468573/dcd_stm32_fsdev.o
 .debug_abbrev  0x00000000       0x1b build/default/production/_ext/530468573/dcd_stm32_fsdev.o
 .debug_aranges
                0x00000000       0x18 build/default/production/_ext/530468573/dcd_stm32_fsdev.o
 .debug_line    0x00000000       0x6c build/default/production/_ext/530468573/dcd_stm32_fsdev.o
 .debug_str     0x00000000      0x256 build/default/production/_ext/530468573/dcd_stm32_fsdev.o
 .comment       0x00000000       0x36 build/default/production/_ext/530468573/dcd_stm32_fsdev.o
 .ARM.attributes
                0x00000000       0x32 build/default/production/_ext/530468573/dcd_stm32_fsdev.o
 .text          0x00000000        0x0 build/default/production/_ext/530468573/fsdev_common.o
 .data          0x00000000        0x0 build/default/production/_ext/530468573/fsdev_common.o
 .bss           0x00000000        0x0 build/default/production/_ext/530468573/fsdev_common.o
 .debug_info    0x00000000       0x25 build/default/production/_ext/530468573/fsdev_common.o
 .debug_abbrev  0x00000000       0x1b build/default/production/_ext/530468573/fsdev_common.o
 .debug_aranges
                0x00000000       0x18 build/default/production/_ext/530468573/fsdev_common.o
 .debug_line    0x00000000       0x69 build/default/production/_ext/530468573/fsdev_common.o
 .debug_str     0x00000000      0x253 build/default/production/_ext/530468573/fsdev_common.o
 .comment       0x00000000       0x36 build/default/production/_ext/530468573/fsdev_common.o
 .ARM.attributes
                0x00000000       0x32 build/default/production/_ext/530468573/fsdev_common.o
 .text          0x00000000        0x0 build/default/production/_ext/530468573/hcd_stm32_fsdev.o
 .data          0x00000000        0x0 build/default/production/_ext/530468573/hcd_stm32_fsdev.o
 .bss           0x00000000        0x0 build/default/production/_ext/530468573/hcd_stm32_fsdev.o
 .debug_info    0x00000000       0x25 build/default/production/_ext/530468573/hcd_stm32_fsdev.o
 .debug_abbrev  0x00000000       0x1b build/default/production/_ext/530468573/hcd_stm32_fsdev.o
 .debug_aranges
                0x00000000       0x18 build/default/production/_ext/530468573/hcd_stm32_fsdev.o
 .debug_line    0x00000000       0x6c build/default/production/_ext/530468573/hcd_stm32_fsdev.o
 .debug_str     0x00000000      0x256 build/default/production/_ext/530468573/hcd_stm32_fsdev.o
 .comment       0x00000000       0x36 build/default/production/_ext/530468573/hcd_stm32_fsdev.o
 .ARM.attributes
                0x00000000       0x32 build/default/production/_ext/530468573/hcd_stm32_fsdev.o
 .text          0x00000000        0x0 build/default/production/_ext/2076636782/typec_stm32.o
 .data          0x00000000        0x0 build/default/production/_ext/2076636782/typec_stm32.o
 .bss           0x00000000        0x0 build/default/production/_ext/2076636782/typec_stm32.o
 .debug_info    0x00000000       0x8e build/default/production/_ext/2076636782/typec_stm32.o
 .debug_abbrev  0x00000000       0x26 build/default/production/_ext/2076636782/typec_stm32.o
 .debug_aranges
                0x00000000       0x18 build/default/production/_ext/2076636782/typec_stm32.o
 .debug_line    0x00000000       0x62 build/default/production/_ext/2076636782/typec_stm32.o
 .debug_str     0x00000000      0x2fc build/default/production/_ext/2076636782/typec_stm32.o
 .comment       0x00000000       0x36 build/default/production/_ext/2076636782/typec_stm32.o
 .ARM.attributes
                0x00000000       0x32 build/default/production/_ext/2076636782/typec_stm32.o
 .text          0x00000000        0x0 build/default/production/_ext/1483241286/dcd_sunxi_musb.o
 .data          0x00000000        0x0 build/default/production/_ext/1483241286/dcd_sunxi_musb.o
 .bss           0x00000000        0x0 build/default/production/_ext/1483241286/dcd_sunxi_musb.o
 .debug_info    0x00000000       0x6b build/default/production/_ext/1483241286/dcd_sunxi_musb.o
 .debug_abbrev  0x00000000       0x26 build/default/production/_ext/1483241286/dcd_sunxi_musb.o
 .debug_aranges
                0x00000000       0x18 build/default/production/_ext/1483241286/dcd_sunxi_musb.o
 .debug_line    0x00000000       0x62 build/default/production/_ext/1483241286/dcd_sunxi_musb.o
 .debug_str     0x00000000      0x2d7 build/default/production/_ext/1483241286/dcd_sunxi_musb.o
 .comment       0x00000000       0x36 build/default/production/_ext/1483241286/dcd_sunxi_musb.o
 .ARM.attributes
                0x00000000       0x32 build/default/production/_ext/1483241286/dcd_sunxi_musb.o
 .text          0x00000000        0x0 build/default/production/_ext/758874186/dcd_dwc2.o
 .data          0x00000000        0x0 build/default/production/_ext/758874186/dcd_dwc2.o
 .bss           0x00000000        0x0 build/default/production/_ext/758874186/dcd_dwc2.o
 .debug_info    0x00000000       0x25 build/default/production/_ext/758874186/dcd_dwc2.o
 .debug_abbrev  0x00000000       0x1b build/default/production/_ext/758874186/dcd_dwc2.o
 .debug_aranges
                0x00000000       0x18 build/default/production/_ext/758874186/dcd_dwc2.o
 .debug_line    0x00000000       0x64 build/default/production/_ext/758874186/dcd_dwc2.o
 .debug_str     0x00000000      0x24e build/default/production/_ext/758874186/dcd_dwc2.o
 .comment       0x00000000       0x36 build/default/production/_ext/758874186/dcd_dwc2.o
 .ARM.attributes
                0x00000000       0x32 build/default/production/_ext/758874186/dcd_dwc2.o
 .text          0x00000000        0x0 build/default/production/_ext/758874186/dwc2_common.o
 .data          0x00000000        0x0 build/default/production/_ext/758874186/dwc2_common.o
 .bss           0x00000000        0x0 build/default/production/_ext/758874186/dwc2_common.o
 .debug_info    0x00000000       0x25 build/default/production/_ext/758874186/dwc2_common.o
 .debug_abbrev  0x00000000       0x1b build/default/production/_ext/758874186/dwc2_common.o
 .debug_aranges
                0x00000000       0x18 build/default/production/_ext/758874186/dwc2_common.o
 .debug_line    0x00000000       0x67 build/default/production/_ext/758874186/dwc2_common.o
 .debug_str     0x00000000      0x251 build/default/production/_ext/758874186/dwc2_common.o
 .comment       0x00000000       0x36 build/default/production/_ext/758874186/dwc2_common.o
 .ARM.attributes
                0x00000000       0x32 build/default/production/_ext/758874186/dwc2_common.o
 .text          0x00000000        0x0 build/default/production/_ext/758874186/hcd_dwc2.o
 .data          0x00000000        0x0 build/default/production/_ext/758874186/hcd_dwc2.o
 .bss           0x00000000        0x0 build/default/production/_ext/758874186/hcd_dwc2.o
 .debug_info    0x00000000       0x25 build/default/production/_ext/758874186/hcd_dwc2.o
 .debug_abbrev  0x00000000       0x1b build/default/production/_ext/758874186/hcd_dwc2.o
 .debug_aranges
                0x00000000       0x18 build/default/production/_ext/758874186/hcd_dwc2.o
 .debug_line    0x00000000       0x64 build/default/production/_ext/758874186/hcd_dwc2.o
 .debug_str     0x00000000      0x24e build/default/production/_ext/758874186/hcd_dwc2.o
 .comment       0x00000000       0x36 build/default/production/_ext/758874186/hcd_dwc2.o
 .ARM.attributes
                0x00000000       0x32 build/default/production/_ext/758874186/hcd_dwc2.o
 .text          0x00000000        0x0 build/default/production/_ext/1009432273/dcd_template.o
 .data          0x00000000        0x0 build/default/production/_ext/1009432273/dcd_template.o
 .bss           0x00000000        0x0 build/default/production/_ext/1009432273/dcd_template.o
 .debug_info    0x00000000       0x25 build/default/production/_ext/1009432273/dcd_template.o
 .debug_abbrev  0x00000000       0x1b build/default/production/_ext/1009432273/dcd_template.o
 .debug_aranges
                0x00000000       0x18 build/default/production/_ext/1009432273/dcd_template.o
 .debug_line    0x00000000       0x63 build/default/production/_ext/1009432273/dcd_template.o
 .debug_str     0x00000000      0x24d build/default/production/_ext/1009432273/dcd_template.o
 .comment       0x00000000       0x36 build/default/production/_ext/1009432273/dcd_template.o
 .ARM.attributes
                0x00000000       0x32 build/default/production/_ext/1009432273/dcd_template.o
 .text          0x00000000        0x0 build/default/production/_ext/1009432273/hcd_template.o
 .data          0x00000000        0x0 build/default/production/_ext/1009432273/hcd_template.o
 .bss           0x00000000        0x0 build/default/production/_ext/1009432273/hcd_template.o
 .debug_info    0x00000000       0x25 build/default/production/_ext/1009432273/hcd_template.o
 .debug_abbrev  0x00000000       0x1b build/default/production/_ext/1009432273/hcd_template.o
 .debug_aranges
                0x00000000       0x18 build/default/production/_ext/1009432273/hcd_template.o
 .debug_line    0x00000000       0x63 build/default/production/_ext/1009432273/hcd_template.o
 .debug_str     0x00000000      0x24d build/default/production/_ext/1009432273/hcd_template.o
 .comment       0x00000000       0x36 build/default/production/_ext/1009432273/hcd_template.o
 .ARM.attributes
                0x00000000       0x32 build/default/production/_ext/1009432273/hcd_template.o
 .text          0x00000000        0x0 build/default/production/_ext/1890701145/dcd_msp430x5xx.o
 .data          0x00000000        0x0 build/default/production/_ext/1890701145/dcd_msp430x5xx.o
 .bss           0x00000000        0x0 build/default/production/_ext/1890701145/dcd_msp430x5xx.o
 .debug_info    0x00000000       0x25 build/default/production/_ext/1890701145/dcd_msp430x5xx.o
 .debug_abbrev  0x00000000       0x1b build/default/production/_ext/1890701145/dcd_msp430x5xx.o
 .debug_aranges
                0x00000000       0x18 build/default/production/_ext/1890701145/dcd_msp430x5xx.o
 .debug_line    0x00000000       0x6a build/default/production/_ext/1890701145/dcd_msp430x5xx.o
 .debug_str     0x00000000      0x254 build/default/production/_ext/1890701145/dcd_msp430x5xx.o
 .comment       0x00000000       0x36 build/default/production/_ext/1890701145/dcd_msp430x5xx.o
 .ARM.attributes
                0x00000000       0x32 build/default/production/_ext/1890701145/dcd_msp430x5xx.o
 .text          0x00000000        0x0 build/default/production/_ext/981558915/dcd_eptri.o
 .data          0x00000000        0x0 build/default/production/_ext/981558915/dcd_eptri.o
 .bss           0x00000000        0x0 build/default/production/_ext/981558915/dcd_eptri.o
 .debug_info    0x00000000       0x25 build/default/production/_ext/981558915/dcd_eptri.o
 .debug_abbrev  0x00000000       0x1b build/default/production/_ext/981558915/dcd_eptri.o
 .debug_aranges
                0x00000000       0x18 build/default/production/_ext/981558915/dcd_eptri.o
 .debug_line    0x00000000       0x68 build/default/production/_ext/981558915/dcd_eptri.o
 .debug_str     0x00000000      0x252 build/default/production/_ext/981558915/dcd_eptri.o
 .comment       0x00000000       0x36 build/default/production/_ext/981558915/dcd_eptri.o
 .ARM.attributes
                0x00000000       0x32 build/default/production/_ext/981558915/dcd_eptri.o
 .text          0x00000000        0x0 build/default/production/_ext/2124449381/dcd_ch32_usbfs.o
 .data          0x00000000        0x0 build/default/production/_ext/2124449381/dcd_ch32_usbfs.o
 .bss           0x00000000        0x0 build/default/production/_ext/2124449381/dcd_ch32_usbfs.o
 .debug_info    0x00000000       0x25 build/default/production/_ext/2124449381/dcd_ch32_usbfs.o
 .debug_abbrev  0x00000000       0x1b build/default/production/_ext/2124449381/dcd_ch32_usbfs.o
 .debug_aranges
                0x00000000       0x18 build/default/production/_ext/2124449381/dcd_ch32_usbfs.o
 .debug_line    0x00000000       0x60 build/default/production/_ext/2124449381/dcd_ch32_usbfs.o
 .debug_str     0x00000000      0x24a build/default/production/_ext/2124449381/dcd_ch32_usbfs.o
 .comment       0x00000000       0x36 build/default/production/_ext/2124449381/dcd_ch32_usbfs.o
 .ARM.attributes
                0x00000000       0x32 build/default/production/_ext/2124449381/dcd_ch32_usbfs.o
 .text          0x00000000        0x0 build/default/production/_ext/2124449381/dcd_ch32_usbhs.o
 .data          0x00000000        0x0 build/default/production/_ext/2124449381/dcd_ch32_usbhs.o
 .bss           0x00000000        0x0 build/default/production/_ext/2124449381/dcd_ch32_usbhs.o
 .debug_info    0x00000000       0x25 build/default/production/_ext/2124449381/dcd_ch32_usbhs.o
 .debug_abbrev  0x00000000       0x1b build/default/production/_ext/2124449381/dcd_ch32_usbhs.o
 .debug_aranges
                0x00000000       0x18 build/default/production/_ext/2124449381/dcd_ch32_usbhs.o
 .debug_line    0x00000000       0x60 build/default/production/_ext/2124449381/dcd_ch32_usbhs.o
 .debug_str     0x00000000      0x24a build/default/production/_ext/2124449381/dcd_ch32_usbhs.o
 .comment       0x00000000       0x36 build/default/production/_ext/2124449381/dcd_ch32_usbhs.o
 .ARM.attributes
                0x00000000       0x32 build/default/production/_ext/2124449381/dcd_ch32_usbhs.o
 .text          0x00000000        0x0 build/default/production/_ext/2124449381/hcd_ch32_usbfs.o
 .data          0x00000000        0x0 build/default/production/_ext/2124449381/hcd_ch32_usbfs.o
 .bss           0x00000000        0x0 build/default/production/_ext/2124449381/hcd_ch32_usbfs.o
 .debug_info    0x00000000       0x25 build/default/production/_ext/2124449381/hcd_ch32_usbfs.o
 .debug_abbrev  0x00000000       0x1b build/default/production/_ext/2124449381/hcd_ch32_usbfs.o
 .debug_aranges
                0x00000000       0x18 build/default/production/_ext/2124449381/hcd_ch32_usbfs.o
 .debug_line    0x00000000       0x60 build/default/production/_ext/2124449381/hcd_ch32_usbfs.o
 .debug_str     0x00000000      0x24a build/default/production/_ext/2124449381/hcd_ch32_usbfs.o
 .comment       0x00000000       0x36 build/default/production/_ext/2124449381/hcd_ch32_usbfs.o
 .ARM.attributes
                0x00000000       0x32 build/default/production/_ext/2124449381/hcd_ch32_usbfs.o
 .text          0x00000000        0x0 build/default/production/_ext/1119931634/tusb.o
 .data          0x00000000        0x0 build/default/production/_ext/1119931634/tusb.o
 .bss           0x00000000        0x0 build/default/production/_ext/1119931634/tusb.o
 .text.tusb_time_delay_ms_api
                0x00000000       0x94 build/default/production/_ext/1119931634/tusb.o
 .text.tusb_app_virt_to_phys
                0x00000000       0x16 build/default/production/_ext/1119931634/tusb.o
 .text.tusb_app_phys_to_virt
                0x00000000       0x16 build/default/production/_ext/1119931634/tusb.o
 .text.tusb_inited
                0x00000000       0x22 build/default/production/_ext/1119931634/tusb.o
 .text.tusb_int_handler
                0x00000000       0x34 build/default/production/_ext/1119931634/tusb.o
 .text.tusb_deinit
                0x00000000       0x6c build/default/production/_ext/1119931634/tusb.o
 .text.tu_desc_find
                0x00000000       0x44 build/default/production/_ext/1119931634/tusb.o
 .text.tu_desc_find2
                0x00000000       0x58 build/default/production/_ext/1119931634/tusb.o
 .text.tu_desc_find3
                0x00000000       0x64 build/default/production/_ext/1119931634/tusb.o
 .text.tu_edpt_claim
                0x00000000      0x152 build/default/production/_ext/1119931634/tusb.o
 .text.tu_edpt_release
                0x00000000      0x12e build/default/production/_ext/1119931634/tusb.o
 .text.tu_edpt_stream_init
                0x00000000       0xaa build/default/production/_ext/1119931634/tusb.o
 .text.stream_claim
                0x00000000       0x3a build/default/production/_ext/1119931634/tusb.o
 .text.stream_xfer
                0x00000000       0x66 build/default/production/_ext/1119931634/tusb.o
 .text.stream_release
                0x00000000       0x2e build/default/production/_ext/1119931634/tusb.o
 .text.tu_edpt_stream_write_zlp_if_needed
                0x00000000       0x9c build/default/production/_ext/1119931634/tusb.o
 .text.tu_edpt_stream_write_xfer
                0x00000000       0xfc build/default/production/_ext/1119931634/tusb.o
 .text.tu_edpt_stream_write
                0x00000000       0xb6 build/default/production/_ext/1119931634/tusb.o
 .text.tu_edpt_stream_write_available
                0x00000000       0x74 build/default/production/_ext/1119931634/tusb.o
 .text.tu_edpt_stream_read_xfer
                0x00000000      0x188 build/default/production/_ext/1119931634/tusb.o
 .text.tu_edpt_stream_read
                0x00000000       0x3e build/default/production/_ext/1119931634/tusb.o
 .text          0x00000000        0x0 build/default/production/_ext/40561932/usbc.o
 .data          0x00000000        0x0 build/default/production/_ext/40561932/usbc.o
 .bss           0x00000000        0x0 build/default/production/_ext/40561932/usbc.o
 .debug_info    0x00000000       0x25 build/default/production/_ext/40561932/usbc.o
 .debug_abbrev  0x00000000       0x1b build/default/production/_ext/40561932/usbc.o
 .debug_aranges
                0x00000000       0x18 build/default/production/_ext/40561932/usbc.o
 .debug_line    0x00000000       0x4f build/default/production/_ext/40561932/usbc.o
 .debug_str     0x00000000      0x239 build/default/production/_ext/40561932/usbc.o
 .comment       0x00000000       0x36 build/default/production/_ext/40561932/usbc.o
 .ARM.attributes
                0x00000000       0x32 build/default/production/_ext/40561932/usbc.o
 .text          0x00000000        0x0 build/default/production/_ext/1017385999/sys_arch.o
 .data          0x00000000        0x0 build/default/production/_ext/1017385999/sys_arch.o
 .bss           0x00000000        0x0 build/default/production/_ext/1017385999/sys_arch.o
 .text.sys_jiffies
                0x00000000        0xe build/default/production/_ext/1017385999/sys_arch.o
 .text.sys_arch_msleep
                0x00000000       0x1a build/default/production/_ext/1017385999/sys_arch.o
 .text.sys_mutex_free
                0x00000000       0x34 build/default/production/_ext/1017385999/sys_arch.o
 .text.sys_sem_new
                0x00000000       0x8c build/default/production/_ext/1017385999/sys_arch.o
 .text.sys_sem_signal
                0x00000000       0x20 build/default/production/_ext/1017385999/sys_arch.o
 .text.sys_arch_sem_wait
                0x00000000       0x4a build/default/production/_ext/1017385999/sys_arch.o
 .text.sys_sem_free
                0x00000000       0x34 build/default/production/_ext/1017385999/sys_arch.o
 .text.sys_mbox_new
                0x00000000       0x74 build/default/production/_ext/1017385999/sys_arch.o
 .text.sys_mbox_post
                0x00000000       0x24 build/default/production/_ext/1017385999/sys_arch.o
 .text.sys_mbox_trypost_fromisr
                0x00000000       0x54 build/default/production/_ext/1017385999/sys_arch.o
 .text.sys_arch_mbox_fetch
                0x00000000       0x62 build/default/production/_ext/1017385999/sys_arch.o
 .text.sys_arch_mbox_tryfetch
                0x00000000       0x42 build/default/production/_ext/1017385999/sys_arch.o
 .text.sys_mbox_free
                0x00000000       0x30 build/default/production/_ext/1017385999/sys_arch.o
 .text.sys_thread_new
                0x00000000       0x3a build/default/production/_ext/1017385999/sys_arch.o
 .text          0x00000000        0x0 C:/Program Files/Microchip/xc32/v5.00/bin/bin/../../lib/gcc/pic32c/13.2.1/../../../../pic32c/lib/thumb/v7e-m+dp/hard\libpic32c.a(data_init.o)
 .data          0x00000000        0x0 C:/Program Files/Microchip/xc32/v5.00/bin/bin/../../lib/gcc/pic32c/13.2.1/../../../../pic32c/lib/thumb/v7e-m+dp/hard\libpic32c.a(data_init.o)
 .xc_stack_usage
                0x00000000       0x68 C:/Program Files/Microchip/xc32/v5.00/bin/bin/../../lib/gcc/pic32c/13.2.1/../../../../pic32c/lib/thumb/v7e-m+dp/hard\libpic32c.a(data_init.o)
 .xc_stack_usage.hdr
                0x00000000        0xe C:/Program Files/Microchip/xc32/v5.00/bin/bin/../../lib/gcc/pic32c/13.2.1/../../../../pic32c/lib/thumb/v7e-m+dp/hard\libpic32c.a(data_init.o)
 .text          0x00000000        0x0 C:/Program Files/Microchip/xc32/v5.00/bin/bin/../../lib/gcc/pic32c/13.2.1/../../../../pic32c/lib/thumb/v7e-m+dp/hard\libpic32c.a(_write.o)
 .data          0x00000000        0x0 C:/Program Files/Microchip/xc32/v5.00/bin/bin/../../lib/gcc/pic32c/13.2.1/../../../../pic32c/lib/thumb/v7e-m+dp/hard\libpic32c.a(_write.o)
 .bss           0x00000000        0x0 C:/Program Files/Microchip/xc32/v5.00/bin/bin/../../lib/gcc/pic32c/13.2.1/../../../../pic32c/lib/thumb/v7e-m+dp/hard\libpic32c.a(_write.o)
 .xc_stack_usage
                0x00000000       0x14 C:/Program Files/Microchip/xc32/v5.00/bin/bin/../../lib/gcc/pic32c/13.2.1/../../../../pic32c/lib/thumb/v7e-m+dp/hard\libpic32c.a(_write.o)
 .text._write   0x00000000        0x4 C:/Program Files/Microchip/xc32/v5.00/bin/bin/../../lib/gcc/pic32c/13.2.1/../../../../pic32c/lib/thumb/v7e-m+dp/hard\libpic32c.a(_write.o)
 .xc_stack_usage.hdr
                0x00000000        0xe C:/Program Files/Microchip/xc32/v5.00/bin/bin/../../lib/gcc/pic32c/13.2.1/../../../../pic32c/lib/thumb/v7e-m+dp/hard\libpic32c.a(_write.o)
 .debug_info    0x00000000       0xea C:/Program Files/Microchip/xc32/v5.00/bin/bin/../../lib/gcc/pic32c/13.2.1/../../../../pic32c/lib/thumb/v7e-m+dp/hard\libpic32c.a(_write.o)
 .debug_abbrev  0x00000000       0x9b C:/Program Files/Microchip/xc32/v5.00/bin/bin/../../lib/gcc/pic32c/13.2.1/../../../../pic32c/lib/thumb/v7e-m+dp/hard\libpic32c.a(_write.o)
 .debug_loc     0x00000000       0x81 C:/Program Files/Microchip/xc32/v5.00/bin/bin/../../lib/gcc/pic32c/13.2.1/../../../../pic32c/lib/thumb/v7e-m+dp/hard\libpic32c.a(_write.o)
 .debug_aranges
                0x00000000       0x20 C:/Program Files/Microchip/xc32/v5.00/bin/bin/../../lib/gcc/pic32c/13.2.1/../../../../pic32c/lib/thumb/v7e-m+dp/hard\libpic32c.a(_write.o)
 .debug_ranges  0x00000000       0x10 C:/Program Files/Microchip/xc32/v5.00/bin/bin/../../lib/gcc/pic32c/13.2.1/../../../../pic32c/lib/thumb/v7e-m+dp/hard\libpic32c.a(_write.o)
 .debug_line    0x00000000       0x6b C:/Program Files/Microchip/xc32/v5.00/bin/bin/../../lib/gcc/pic32c/13.2.1/../../../../pic32c/lib/thumb/v7e-m+dp/hard\libpic32c.a(_write.o)
 .debug_str     0x00000000      0x1f5 C:/Program Files/Microchip/xc32/v5.00/bin/bin/../../lib/gcc/pic32c/13.2.1/../../../../pic32c/lib/thumb/v7e-m+dp/hard\libpic32c.a(_write.o)
 .comment       0x00000000       0x36 C:/Program Files/Microchip/xc32/v5.00/bin/bin/../../lib/gcc/pic32c/13.2.1/../../../../pic32c/lib/thumb/v7e-m+dp/hard\libpic32c.a(_write.o)
 .debug_frame   0x00000000       0x20 C:/Program Files/Microchip/xc32/v5.00/bin/bin/../../lib/gcc/pic32c/13.2.1/../../../../pic32c/lib/thumb/v7e-m+dp/hard\libpic32c.a(_write.o)
 .ARM.attributes
                0x00000000       0x32 C:/Program Files/Microchip/xc32/v5.00/bin/bin/../../lib/gcc/pic32c/13.2.1/../../../../pic32c/lib/thumb/v7e-m+dp/hard\libpic32c.a(_write.o)
 .text          0x00000000        0x0 C:/Program Files/Microchip/xc32/v5.00/bin/bin/../../lib/gcc/pic32c/13.2.1/../../../../pic32c/lib/thumb/v7e-m+dp/hard\libc-size-musl.a(memcmp.o)
 .data          0x00000000        0x0 C:/Program Files/Microchip/xc32/v5.00/bin/bin/../../lib/gcc/pic32c/13.2.1/../../../../pic32c/lib/thumb/v7e-m+dp/hard\libc-size-musl.a(memcmp.o)
 .bss           0x00000000        0x0 C:/Program Files/Microchip/xc32/v5.00/bin/bin/../../lib/gcc/pic32c/13.2.1/../../../../pic32c/lib/thumb/v7e-m+dp/hard\libc-size-musl.a(memcmp.o)
 .xc_stack_usage
                0x00000000       0x14 C:/Program Files/Microchip/xc32/v5.00/bin/bin/../../lib/gcc/pic32c/13.2.1/../../../../pic32c/lib/thumb/v7e-m+dp/hard\libc-size-musl.a(memcmp.o)
 .xc_stack_usage.hdr
                0x00000000        0xe C:/Program Files/Microchip/xc32/v5.00/bin/bin/../../lib/gcc/pic32c/13.2.1/../../../../pic32c/lib/thumb/v7e-m+dp/hard\libc-size-musl.a(memcmp.o)
 .text          0x00000000        0x0 C:/Program Files/Microchip/xc32/v5.00/bin/bin/../../lib/gcc/pic32c/13.2.1/../../../../pic32c/lib/thumb/v7e-m+dp/hard\libc-size-musl.a(memcpy.o)
 .data          0x00000000        0x0 C:/Program Files/Microchip/xc32/v5.00/bin/bin/../../lib/gcc/pic32c/13.2.1/../../../../pic32c/lib/thumb/v7e-m+dp/hard\libc-size-musl.a(memcpy.o)
 .bss           0x00000000        0x0 C:/Program Files/Microchip/xc32/v5.00/bin/bin/../../lib/gcc/pic32c/13.2.1/../../../../pic32c/lib/thumb/v7e-m+dp/hard\libc-size-musl.a(memcpy.o)
 .xc_stack_usage
                0x00000000       0x14 C:/Program Files/Microchip/xc32/v5.00/bin/bin/../../lib/gcc/pic32c/13.2.1/../../../../pic32c/lib/thumb/v7e-m+dp/hard\libc-size-musl.a(memcpy.o)
 .xc_stack_usage.hdr
                0x00000000        0xe C:/Program Files/Microchip/xc32/v5.00/bin/bin/../../lib/gcc/pic32c/13.2.1/../../../../pic32c/lib/thumb/v7e-m+dp/hard\libc-size-musl.a(memcpy.o)
 .text          0x00000000        0x0 C:/Program Files/Microchip/xc32/v5.00/bin/bin/../../lib/gcc/pic32c/13.2.1/../../../../pic32c/lib/thumb/v7e-m+dp/hard\libc-size-musl.a(memmove.o)
 .data          0x00000000        0x0 C:/Program Files/Microchip/xc32/v5.00/bin/bin/../../lib/gcc/pic32c/13.2.1/../../../../pic32c/lib/thumb/v7e-m+dp/hard\libc-size-musl.a(memmove.o)
 .bss           0x00000000        0x0 C:/Program Files/Microchip/xc32/v5.00/bin/bin/../../lib/gcc/pic32c/13.2.1/../../../../pic32c/lib/thumb/v7e-m+dp/hard\libc-size-musl.a(memmove.o)
 .xc_stack_usage
                0x00000000       0x15 C:/Program Files/Microchip/xc32/v5.00/bin/bin/../../lib/gcc/pic32c/13.2.1/../../../../pic32c/lib/thumb/v7e-m+dp/hard\libc-size-musl.a(memmove.o)
 .xc_stack_usage.hdr
                0x00000000        0xe C:/Program Files/Microchip/xc32/v5.00/bin/bin/../../lib/gcc/pic32c/13.2.1/../../../../pic32c/lib/thumb/v7e-m+dp/hard\libc-size-musl.a(memmove.o)
 .text          0x00000000        0x0 C:/Program Files/Microchip/xc32/v5.00/bin/bin/../../lib/gcc/pic32c/13.2.1/../../../../pic32c/lib/thumb/v7e-m+dp/hard\libc-size-musl.a(memset.o)
 .data          0x00000000        0x0 C:/Program Files/Microchip/xc32/v5.00/bin/bin/../../lib/gcc/pic32c/13.2.1/../../../../pic32c/lib/thumb/v7e-m+dp/hard\libc-size-musl.a(memset.o)
 .bss           0x00000000        0x0 C:/Program Files/Microchip/xc32/v5.00/bin/bin/../../lib/gcc/pic32c/13.2.1/../../../../pic32c/lib/thumb/v7e-m+dp/hard\libc-size-musl.a(memset.o)
 .xc_stack_usage
                0x00000000       0x14 C:/Program Files/Microchip/xc32/v5.00/bin/bin/../../lib/gcc/pic32c/13.2.1/../../../../pic32c/lib/thumb/v7e-m+dp/hard\libc-size-musl.a(memset.o)
 .xc_stack_usage.hdr
                0x00000000        0xe C:/Program Files/Microchip/xc32/v5.00/bin/bin/../../lib/gcc/pic32c/13.2.1/../../../../pic32c/lib/thumb/v7e-m+dp/hard\libc-size-musl.a(memset.o)
 .text          0x00000000        0x0 C:/Program Files/Microchip/xc32/v5.00/bin/bin/../../lib/gcc/pic32c/13.2.1/../../../../pic32c/lib/thumb/v7e-m+dp/hard\libc-size-musl.a(strlen.o)
 .data          0x00000000        0x0 C:/Program Files/Microchip/xc32/v5.00/bin/bin/../../lib/gcc/pic32c/13.2.1/../../../../pic32c/lib/thumb/v7e-m+dp/hard\libc-size-musl.a(strlen.o)
 .bss           0x00000000        0x0 C:/Program Files/Microchip/xc32/v5.00/bin/bin/../../lib/gcc/pic32c/13.2.1/../../../../pic32c/lib/thumb/v7e-m+dp/hard\libc-size-musl.a(strlen.o)
 .xc_stack_usage
                0x00000000       0x14 C:/Program Files/Microchip/xc32/v5.00/bin/bin/../../lib/gcc/pic32c/13.2.1/../../../../pic32c/lib/thumb/v7e-m+dp/hard\libc-size-musl.a(strlen.o)
 .xc_stack_usage.hdr
                0x00000000        0xe C:/Program Files/Microchip/xc32/v5.00/bin/bin/../../lib/gcc/pic32c/13.2.1/../../../../pic32c/lib/thumb/v7e-m+dp/hard\libc-size-musl.a(strlen.o)
 .text          0x00000000        0x0 C:/Program Files/Microchip/xc32/v5.00/bin/bin/../../lib/gcc/pic32c/13.2.1/../../../../pic32c/lib/thumb/v7e-m+dp/hard\libc-size-musl.a(strstr.o)
 .data          0x00000000        0x0 C:/Program Files/Microchip/xc32/v5.00/bin/bin/../../lib/gcc/pic32c/13.2.1/../../../../pic32c/lib/thumb/v7e-m+dp/hard\libc-size-musl.a(strstr.o)
 .bss           0x00000000        0x0 C:/Program Files/Microchip/xc32/v5.00/bin/bin/../../lib/gcc/pic32c/13.2.1/../../../../pic32c/lib/thumb/v7e-m+dp/hard\libc-size-musl.a(strstr.o)
 .xc_stack_usage
                0x00000000       0x14 C:/Program Files/Microchip/xc32/v5.00/bin/bin/../../lib/gcc/pic32c/13.2.1/../../../../pic32c/lib/thumb/v7e-m+dp/hard\libc-size-musl.a(strstr.o)
 .text.strstr   0x00000000       0x38 C:/Program Files/Microchip/xc32/v5.00/bin/bin/../../lib/gcc/pic32c/13.2.1/../../../../pic32c/lib/thumb/v7e-m+dp/hard\libc-size-musl.a(strstr.o)
 .xc_stack_usage.hdr
                0x00000000        0xe C:/Program Files/Microchip/xc32/v5.00/bin/bin/../../lib/gcc/pic32c/13.2.1/../../../../pic32c/lib/thumb/v7e-m+dp/hard\libc-size-musl.a(strstr.o)
 .debug_info    0x00000000       0xc7 C:/Program Files/Microchip/xc32/v5.00/bin/bin/../../lib/gcc/pic32c/13.2.1/../../../../pic32c/lib/thumb/v7e-m+dp/hard\libc-size-musl.a(strstr.o)
 .debug_abbrev  0x00000000       0xa2 C:/Program Files/Microchip/xc32/v5.00/bin/bin/../../lib/gcc/pic32c/13.2.1/../../../../pic32c/lib/thumb/v7e-m+dp/hard\libc-size-musl.a(strstr.o)
 .debug_loc     0x00000000       0x81 C:/Program Files/Microchip/xc32/v5.00/bin/bin/../../lib/gcc/pic32c/13.2.1/../../../../pic32c/lib/thumb/v7e-m+dp/hard\libc-size-musl.a(strstr.o)
 .debug_aranges
                0x00000000       0x20 C:/Program Files/Microchip/xc32/v5.00/bin/bin/../../lib/gcc/pic32c/13.2.1/../../../../pic32c/lib/thumb/v7e-m+dp/hard\libc-size-musl.a(strstr.o)
 .debug_ranges  0x00000000       0x10 C:/Program Files/Microchip/xc32/v5.00/bin/bin/../../lib/gcc/pic32c/13.2.1/../../../../pic32c/lib/thumb/v7e-m+dp/hard\libc-size-musl.a(strstr.o)
 .debug_line    0x00000000      0x1d3 C:/Program Files/Microchip/xc32/v5.00/bin/bin/../../lib/gcc/pic32c/13.2.1/../../../../pic32c/lib/thumb/v7e-m+dp/hard\libc-size-musl.a(strstr.o)
 .debug_str     0x00000000      0x22e C:/Program Files/Microchip/xc32/v5.00/bin/bin/../../lib/gcc/pic32c/13.2.1/../../../../pic32c/lib/thumb/v7e-m+dp/hard\libc-size-musl.a(strstr.o)
 .comment       0x00000000       0x36 C:/Program Files/Microchip/xc32/v5.00/bin/bin/../../lib/gcc/pic32c/13.2.1/../../../../pic32c/lib/thumb/v7e-m+dp/hard\libc-size-musl.a(strstr.o)
 .note.GNU-stack
                0x00000000        0x0 C:/Program Files/Microchip/xc32/v5.00/bin/bin/../../lib/gcc/pic32c/13.2.1/../../../../pic32c/lib/thumb/v7e-m+dp/hard\libc-size-musl.a(strstr.o)
 .debug_frame   0x00000000       0x28 C:/Program Files/Microchip/xc32/v5.00/bin/bin/../../lib/gcc/pic32c/13.2.1/../../../../pic32c/lib/thumb/v7e-m+dp/hard\libc-size-musl.a(strstr.o)
 .ARM.attributes
                0x00000000       0x34 C:/Program Files/Microchip/xc32/v5.00/bin/bin/../../lib/gcc/pic32c/13.2.1/../../../../pic32c/lib/thumb/v7e-m+dp/hard\libc-size-musl.a(strstr.o)
 .text          0x00000000        0x0 C:/Program Files/Microchip/xc32/v5.00/bin/bin/../../lib/gcc/pic32c/13.2.1/../../../../pic32c/lib/thumb/v7e-m+dp/hard\libc-size-musl.a(strchr.o)
 .data          0x00000000        0x0 C:/Program Files/Microchip/xc32/v5.00/bin/bin/../../lib/gcc/pic32c/13.2.1/../../../../pic32c/lib/thumb/v7e-m+dp/hard\libc-size-musl.a(strchr.o)
 .bss           0x00000000        0x0 C:/Program Files/Microchip/xc32/v5.00/bin/bin/../../lib/gcc/pic32c/13.2.1/../../../../pic32c/lib/thumb/v7e-m+dp/hard\libc-size-musl.a(strchr.o)
 .xc_stack_usage
                0x00000000       0x14 C:/Program Files/Microchip/xc32/v5.00/bin/bin/../../lib/gcc/pic32c/13.2.1/../../../../pic32c/lib/thumb/v7e-m+dp/hard\libc-size-musl.a(strchr.o)
 .xc_stack_usage.hdr
                0x00000000        0xe C:/Program Files/Microchip/xc32/v5.00/bin/bin/../../lib/gcc/pic32c/13.2.1/../../../../pic32c/lib/thumb/v7e-m+dp/hard\libc-size-musl.a(strchr.o)
 .text          0x00000000        0x0 C:/Program Files/Microchip/xc32/v5.00/bin/bin/../../lib/gcc/pic32c/13.2.1/../../../../pic32c/lib/thumb/v7e-m+dp/hard\libc-size-musl.a(strchrnul.o)
 .data          0x00000000        0x0 C:/Program Files/Microchip/xc32/v5.00/bin/bin/../../lib/gcc/pic32c/13.2.1/../../../../pic32c/lib/thumb/v7e-m+dp/hard\libc-size-musl.a(strchrnul.o)
 .bss           0x00000000        0x0 C:/Program Files/Microchip/xc32/v5.00/bin/bin/../../lib/gcc/pic32c/13.2.1/../../../../pic32c/lib/thumb/v7e-m+dp/hard\libc-size-musl.a(strchrnul.o)
 .xc_stack_usage
                0x00000000       0x19 C:/Program Files/Microchip/xc32/v5.00/bin/bin/../../lib/gcc/pic32c/13.2.1/../../../../pic32c/lib/thumb/v7e-m+dp/hard\libc-size-musl.a(strchrnul.o)
 .xc_stack_usage.hdr
                0x00000000        0xe C:/Program Files/Microchip/xc32/v5.00/bin/bin/../../lib/gcc/pic32c/13.2.1/../../../../pic32c/lib/thumb/v7e-m+dp/hard\libc-size-musl.a(strchrnul.o)
 .text          0x00000000        0x0 C:/Program Files/Microchip/xc32/v5.00/bin/bin/../../lib/gcc/pic32c/13.2.1/../../../../pic32c/lib/thumb/v7e-m+dp/hard\libc-size-musl.a(strcmp.o)
 .data          0x00000000        0x0 C:/Program Files/Microchip/xc32/v5.00/bin/bin/../../lib/gcc/pic32c/13.2.1/../../../../pic32c/lib/thumb/v7e-m+dp/hard\libc-size-musl.a(strcmp.o)
 .bss           0x00000000        0x0 C:/Program Files/Microchip/xc32/v5.00/bin/bin/../../lib/gcc/pic32c/13.2.1/../../../../pic32c/lib/thumb/v7e-m+dp/hard\libc-size-musl.a(strcmp.o)
 .xc_stack_usage
                0x00000000       0x14 C:/Program Files/Microchip/xc32/v5.00/bin/bin/../../lib/gcc/pic32c/13.2.1/../../../../pic32c/lib/thumb/v7e-m+dp/hard\libc-size-musl.a(strcmp.o)
 .xc_stack_usage.hdr
                0x00000000        0xe C:/Program Files/Microchip/xc32/v5.00/bin/bin/../../lib/gcc/pic32c/13.2.1/../../../../pic32c/lib/thumb/v7e-m+dp/hard\libc-size-musl.a(strcmp.o)
 .text          0x00000000        0x0 C:/Program Files/Microchip/xc32/v5.00/bin/bin/../../lib/gcc/pic32c/13.2.1/../../../../pic32c/lib/thumb/v7e-m+dp/hard\libc-size-musl.a(strcpy.o)
 .data          0x00000000        0x0 C:/Program Files/Microchip/xc32/v5.00/bin/bin/../../lib/gcc/pic32c/13.2.1/../../../../pic32c/lib/thumb/v7e-m+dp/hard\libc-size-musl.a(strcpy.o)
 .bss           0x00000000        0x0 C:/Program Files/Microchip/xc32/v5.00/bin/bin/../../lib/gcc/pic32c/13.2.1/../../../../pic32c/lib/thumb/v7e-m+dp/hard\libc-size-musl.a(strcpy.o)
 .xc_stack_usage
                0x00000000       0x14 C:/Program Files/Microchip/xc32/v5.00/bin/bin/../../lib/gcc/pic32c/13.2.1/../../../../pic32c/lib/thumb/v7e-m+dp/hard\libc-size-musl.a(strcpy.o)
 .xc_stack_usage.hdr
                0x00000000        0xe C:/Program Files/Microchip/xc32/v5.00/bin/bin/../../lib/gcc/pic32c/13.2.1/../../../../pic32c/lib/thumb/v7e-m+dp/hard\libc-size-musl.a(strcpy.o)
 .text          0x00000000        0x0 C:/Program Files/Microchip/xc32/v5.00/bin/bin/../../lib/gcc/pic32c/13.2.1/../../../../pic32c/lib/thumb/v7e-m+dp/hard\libc-size-musl.a(strncmp.o)
 .data          0x00000000        0x0 C:/Program Files/Microchip/xc32/v5.00/bin/bin/../../lib/gcc/pic32c/13.2.1/../../../../pic32c/lib/thumb/v7e-m+dp/hard\libc-size-musl.a(strncmp.o)
 .bss           0x00000000        0x0 C:/Program Files/Microchip/xc32/v5.00/bin/bin/../../lib/gcc/pic32c/13.2.1/../../../../pic32c/lib/thumb/v7e-m+dp/hard\libc-size-musl.a(strncmp.o)
 .xc_stack_usage
                0x00000000       0x15 C:/Program Files/Microchip/xc32/v5.00/bin/bin/../../lib/gcc/pic32c/13.2.1/../../../../pic32c/lib/thumb/v7e-m+dp/hard\libc-size-musl.a(strncmp.o)
 .text.strncmp  0x00000000       0x28 C:/Program Files/Microchip/xc32/v5.00/bin/bin/../../lib/gcc/pic32c/13.2.1/../../../../pic32c/lib/thumb/v7e-m+dp/hard\libc-size-musl.a(strncmp.o)
 .xc_stack_usage.hdr
                0x00000000        0xe C:/Program Files/Microchip/xc32/v5.00/bin/bin/../../lib/gcc/pic32c/13.2.1/../../../../pic32c/lib/thumb/v7e-m+dp/hard\libc-size-musl.a(strncmp.o)
 .debug_info    0x00000000       0xf2 C:/Program Files/Microchip/xc32/v5.00/bin/bin/../../lib/gcc/pic32c/13.2.1/../../../../pic32c/lib/thumb/v7e-m+dp/hard\libc-size-musl.a(strncmp.o)
 .debug_abbrev  0x00000000       0x91 C:/Program Files/Microchip/xc32/v5.00/bin/bin/../../lib/gcc/pic32c/13.2.1/../../../../pic32c/lib/thumb/v7e-m+dp/hard\libc-size-musl.a(strncmp.o)
 .debug_loc     0x00000000      0x1f9 C:/Program Files/Microchip/xc32/v5.00/bin/bin/../../lib/gcc/pic32c/13.2.1/../../../../pic32c/lib/thumb/v7e-m+dp/hard\libc-size-musl.a(strncmp.o)
 .debug_aranges
                0x00000000       0x20 C:/Program Files/Microchip/xc32/v5.00/bin/bin/../../lib/gcc/pic32c/13.2.1/../../../../pic32c/lib/thumb/v7e-m+dp/hard\libc-size-musl.a(strncmp.o)
 .debug_ranges  0x00000000       0x10 C:/Program Files/Microchip/xc32/v5.00/bin/bin/../../lib/gcc/pic32c/13.2.1/../../../../pic32c/lib/thumb/v7e-m+dp/hard\libc-size-musl.a(strncmp.o)
 .debug_line    0x00000000      0x10d C:/Program Files/Microchip/xc32/v5.00/bin/bin/../../lib/gcc/pic32c/13.2.1/../../../../pic32c/lib/thumb/v7e-m+dp/hard\libc-size-musl.a(strncmp.o)
 .debug_str     0x00000000      0x24a C:/Program Files/Microchip/xc32/v5.00/bin/bin/../../lib/gcc/pic32c/13.2.1/../../../../pic32c/lib/thumb/v7e-m+dp/hard\libc-size-musl.a(strncmp.o)
 .comment       0x00000000       0x36 C:/Program Files/Microchip/xc32/v5.00/bin/bin/../../lib/gcc/pic32c/13.2.1/../../../../pic32c/lib/thumb/v7e-m+dp/hard\libc-size-musl.a(strncmp.o)
 .note.GNU-stack
                0x00000000        0x0 C:/Program Files/Microchip/xc32/v5.00/bin/bin/../../lib/gcc/pic32c/13.2.1/../../../../pic32c/lib/thumb/v7e-m+dp/hard\libc-size-musl.a(strncmp.o)
 .debug_frame   0x00000000       0x2c C:/Program Files/Microchip/xc32/v5.00/bin/bin/../../lib/gcc/pic32c/13.2.1/../../../../pic32c/lib/thumb/v7e-m+dp/hard\libc-size-musl.a(strncmp.o)
 .ARM.attributes
                0x00000000       0x34 C:/Program Files/Microchip/xc32/v5.00/bin/bin/../../lib/gcc/pic32c/13.2.1/../../../../pic32c/lib/thumb/v7e-m+dp/hard\libc-size-musl.a(strncmp.o)
 .text          0x00000000        0x0 C:/Program Files/Microchip/xc32/v5.00/bin/bin/../../lib/gcc/pic32c/13.2.1/../../../../pic32c/lib/thumb/v7e-m+dp/hard\libc-size-musl.a(strncpy.o)
 .data          0x00000000        0x0 C:/Program Files/Microchip/xc32/v5.00/bin/bin/../../lib/gcc/pic32c/13.2.1/../../../../pic32c/lib/thumb/v7e-m+dp/hard\libc-size-musl.a(strncpy.o)
 .bss           0x00000000        0x0 C:/Program Files/Microchip/xc32/v5.00/bin/bin/../../lib/gcc/pic32c/13.2.1/../../../../pic32c/lib/thumb/v7e-m+dp/hard\libc-size-musl.a(strncpy.o)
 .xc_stack_usage
                0x00000000       0x15 C:/Program Files/Microchip/xc32/v5.00/bin/bin/../../lib/gcc/pic32c/13.2.1/../../../../pic32c/lib/thumb/v7e-m+dp/hard\libc-size-musl.a(strncpy.o)
 .xc_stack_usage.hdr
                0x00000000        0xe C:/Program Files/Microchip/xc32/v5.00/bin/bin/../../lib/gcc/pic32c/13.2.1/../../../../pic32c/lib/thumb/v7e-m+dp/hard\libc-size-musl.a(strncpy.o)
 .text          0x00000000        0x0 C:/Program Files/Microchip/xc32/v5.00/bin/bin/../../lib/gcc/pic32c/13.2.1/../../../../pic32c/lib/thumb/v7e-m+dp/hard\libc-size-musl.a(stpcpy.o)
 .data          0x00000000        0x0 C:/Program Files/Microchip/xc32/v5.00/bin/bin/../../lib/gcc/pic32c/13.2.1/../../../../pic32c/lib/thumb/v7e-m+dp/hard\libc-size-musl.a(stpcpy.o)
 .bss           0x00000000        0x0 C:/Program Files/Microchip/xc32/v5.00/bin/bin/../../lib/gcc/pic32c/13.2.1/../../../../pic32c/lib/thumb/v7e-m+dp/hard\libc-size-musl.a(stpcpy.o)
 .xc_stack_usage
                0x00000000       0x14 C:/Program Files/Microchip/xc32/v5.00/bin/bin/../../lib/gcc/pic32c/13.2.1/../../../../pic32c/lib/thumb/v7e-m+dp/hard\libc-size-musl.a(stpcpy.o)
 .xc_stack_usage.hdr
                0x00000000        0xe C:/Program Files/Microchip/xc32/v5.00/bin/bin/../../lib/gcc/pic32c/13.2.1/../../../../pic32c/lib/thumb/v7e-m+dp/hard\libc-size-musl.a(stpcpy.o)
 .text          0x00000000        0x0 C:/Program Files/Microchip/xc32/v5.00/bin/bin/../../lib/gcc/pic32c/13.2.1/../../../../pic32c/lib/thumb/v7e-m+dp/hard\libc-size-musl.a(stpncpy.o)
 .data          0x00000000        0x0 C:/Program Files/Microchip/xc32/v5.00/bin/bin/../../lib/gcc/pic32c/13.2.1/../../../../pic32c/lib/thumb/v7e-m+dp/hard\libc-size-musl.a(stpncpy.o)
 .bss           0x00000000        0x0 C:/Program Files/Microchip/xc32/v5.00/bin/bin/../../lib/gcc/pic32c/13.2.1/../../../../pic32c/lib/thumb/v7e-m+dp/hard\libc-size-musl.a(stpncpy.o)
 .xc_stack_usage
                0x00000000       0x15 C:/Program Files/Microchip/xc32/v5.00/bin/bin/../../lib/gcc/pic32c/13.2.1/../../../../pic32c/lib/thumb/v7e-m+dp/hard\libc-size-musl.a(stpncpy.o)
 .xc_stack_usage.hdr
                0x00000000        0xe C:/Program Files/Microchip/xc32/v5.00/bin/bin/../../lib/gcc/pic32c/13.2.1/../../../../pic32c/lib/thumb/v7e-m+dp/hard\libc-size-musl.a(stpncpy.o)
 .text          0x00000000        0x0 C:/Program Files/Microchip/xc32/v5.00/bin/bin/../../lib/gcc/pic32c/13.2.1/../../../../pic32c/lib/thumb/v7e-m+dp/hard\libc-musl.a(isxdigit.o)
 .data          0x00000000        0x0 C:/Program Files/Microchip/xc32/v5.00/bin/bin/../../lib/gcc/pic32c/13.2.1/../../../../pic32c/lib/thumb/v7e-m+dp/hard\libc-musl.a(isxdigit.o)
 .bss           0x00000000        0x0 C:/Program Files/Microchip/xc32/v5.00/bin/bin/../../lib/gcc/pic32c/13.2.1/../../../../pic32c/lib/thumb/v7e-m+dp/hard\libc-musl.a(isxdigit.o)
 .xc_stack_usage
                0x00000000       0x30 C:/Program Files/Microchip/xc32/v5.00/bin/bin/../../lib/gcc/pic32c/13.2.1/../../../../pic32c/lib/thumb/v7e-m+dp/hard\libc-musl.a(isxdigit.o)
 .text.isxdigit
                0x00000000       0x1c C:/Program Files/Microchip/xc32/v5.00/bin/bin/../../lib/gcc/pic32c/13.2.1/../../../../pic32c/lib/thumb/v7e-m+dp/hard\libc-musl.a(isxdigit.o)
 .text.__isxdigit_l
                0x00000000        0x4 C:/Program Files/Microchip/xc32/v5.00/bin/bin/../../lib/gcc/pic32c/13.2.1/../../../../pic32c/lib/thumb/v7e-m+dp/hard\libc-musl.a(isxdigit.o)
 .xc_stack_usage.hdr
                0x00000000        0xe C:/Program Files/Microchip/xc32/v5.00/bin/bin/../../lib/gcc/pic32c/13.2.1/../../../../pic32c/lib/thumb/v7e-m+dp/hard\libc-musl.a(isxdigit.o)
 .debug_info    0x00000000      0x138 C:/Program Files/Microchip/xc32/v5.00/bin/bin/../../lib/gcc/pic32c/13.2.1/../../../../pic32c/lib/thumb/v7e-m+dp/hard\libc-musl.a(isxdigit.o)
 .debug_abbrev  0x00000000      0x108 C:/Program Files/Microchip/xc32/v5.00/bin/bin/../../lib/gcc/pic32c/13.2.1/../../../../pic32c/lib/thumb/v7e-m+dp/hard\libc-musl.a(isxdigit.o)
 .debug_loc     0x00000000       0x6b C:/Program Files/Microchip/xc32/v5.00/bin/bin/../../lib/gcc/pic32c/13.2.1/../../../../pic32c/lib/thumb/v7e-m+dp/hard\libc-musl.a(isxdigit.o)
 .debug_aranges
                0x00000000       0x28 C:/Program Files/Microchip/xc32/v5.00/bin/bin/../../lib/gcc/pic32c/13.2.1/../../../../pic32c/lib/thumb/v7e-m+dp/hard\libc-musl.a(isxdigit.o)
 .debug_ranges  0x00000000       0x18 C:/Program Files/Microchip/xc32/v5.00/bin/bin/../../lib/gcc/pic32c/13.2.1/../../../../pic32c/lib/thumb/v7e-m+dp/hard\libc-musl.a(isxdigit.o)
 .debug_line    0x00000000      0x168 C:/Program Files/Microchip/xc32/v5.00/bin/bin/../../lib/gcc/pic32c/13.2.1/../../../../pic32c/lib/thumb/v7e-m+dp/hard\libc-musl.a(isxdigit.o)
 .debug_str     0x00000000      0x280 C:/Program Files/Microchip/xc32/v5.00/bin/bin/../../lib/gcc/pic32c/13.2.1/../../../../pic32c/lib/thumb/v7e-m+dp/hard\libc-musl.a(isxdigit.o)
 .comment       0x00000000       0x36 C:/Program Files/Microchip/xc32/v5.00/bin/bin/../../lib/gcc/pic32c/13.2.1/../../../../pic32c/lib/thumb/v7e-m+dp/hard\libc-musl.a(isxdigit.o)
 .note.GNU-stack
                0x00000000        0x0 C:/Program Files/Microchip/xc32/v5.00/bin/bin/../../lib/gcc/pic32c/13.2.1/../../../../pic32c/lib/thumb/v7e-m+dp/hard\libc-musl.a(isxdigit.o)
 .debug_frame   0x00000000       0x30 C:/Program Files/Microchip/xc32/v5.00/bin/bin/../../lib/gcc/pic32c/13.2.1/../../../../pic32c/lib/thumb/v7e-m+dp/hard\libc-musl.a(isxdigit.o)
 .ARM.attributes
                0x00000000       0x34 C:/Program Files/Microchip/xc32/v5.00/bin/bin/../../lib/gcc/pic32c/13.2.1/../../../../pic32c/lib/thumb/v7e-m+dp/hard\libc-musl.a(isxdigit.o)
 .text          0x00000000        0x0 C:/Program Files/Microchip/xc32/v5.00/bin/bin/../../lib/gcc/pic32c/13.2.1/../../../../pic32c/lib/thumb/v7e-m+dp/hard\libc-musl.a(toupper.o)
 .data          0x00000000        0x0 C:/Program Files/Microchip/xc32/v5.00/bin/bin/../../lib/gcc/pic32c/13.2.1/../../../../pic32c/lib/thumb/v7e-m+dp/hard\libc-musl.a(toupper.o)
 .bss           0x00000000        0x0 C:/Program Files/Microchip/xc32/v5.00/bin/bin/../../lib/gcc/pic32c/13.2.1/../../../../pic32c/lib/thumb/v7e-m+dp/hard\libc-musl.a(toupper.o)
 .xc_stack_usage
                0x00000000       0x2e C:/Program Files/Microchip/xc32/v5.00/bin/bin/../../lib/gcc/pic32c/13.2.1/../../../../pic32c/lib/thumb/v7e-m+dp/hard\libc-musl.a(toupper.o)
 .text.__toupper_l
                0x00000000        0x4 C:/Program Files/Microchip/xc32/v5.00/bin/bin/../../lib/gcc/pic32c/13.2.1/../../../../pic32c/lib/thumb/v7e-m+dp/hard\libc-musl.a(toupper.o)
 .xc_stack_usage.hdr
                0x00000000        0xe C:/Program Files/Microchip/xc32/v5.00/bin/bin/../../lib/gcc/pic32c/13.2.1/../../../../pic32c/lib/thumb/v7e-m+dp/hard\libc-musl.a(toupper.o)
 .text          0x00000000        0x0 C:/Program Files/Microchip/xc32/v5.00/bin/bin/../../lib/gcc/pic32c/13.2.1/../../../../pic32c/lib/thumb/v7e-m+dp/hard\libc-musl.a(__libc_start_main.o)
 .data          0x00000000        0x0 C:/Program Files/Microchip/xc32/v5.00/bin/bin/../../lib/gcc/pic32c/13.2.1/../../../../pic32c/lib/thumb/v7e-m+dp/hard\libc-musl.a(__libc_start_main.o)
 .bss           0x00000000        0x0 C:/Program Files/Microchip/xc32/v5.00/bin/bin/../../lib/gcc/pic32c/13.2.1/../../../../pic32c/lib/thumb/v7e-m+dp/hard\libc-musl.a(__libc_start_main.o)
 .xc_stack_usage
                0x00000000       0x34 C:/Program Files/Microchip/xc32/v5.00/bin/bin/../../lib/gcc/pic32c/13.2.1/../../../../pic32c/lib/thumb/v7e-m+dp/hard\libc-musl.a(__libc_start_main.o)
 .xc_stack_usage.hdr
                0x00000000        0xe C:/Program Files/Microchip/xc32/v5.00/bin/bin/../../lib/gcc/pic32c/13.2.1/../../../../pic32c/lib/thumb/v7e-m+dp/hard\libc-musl.a(__libc_start_main.o)
 .text          0x00000000        0x0 C:/Program Files/Microchip/xc32/v5.00/bin/bin/../../lib/gcc/pic32c/13.2.1/../../../../pic32c/lib/thumb/v7e-m+dp/hard\libc-musl.a(libc.o)
 .data          0x00000000        0x0 C:/Program Files/Microchip/xc32/v5.00/bin/bin/../../lib/gcc/pic32c/13.2.1/../../../../pic32c/lib/thumb/v7e-m+dp/hard\libc-musl.a(libc.o)
 .xc_stack_usage.hdr
                0x00000000        0xe C:/Program Files/Microchip/xc32/v5.00/bin/bin/../../lib/gcc/pic32c/13.2.1/../../../../pic32c/lib/thumb/v7e-m+dp/hard\libc-musl.a(libc.o)
 .text          0x00000000        0x0 C:/Program Files/Microchip/xc32/v5.00/bin/bin/../../lib/gcc/pic32c/13.2.1/../../../../pic32c/lib/thumb/v7e-m+dp/hard\libc-musl.a(vsnprintf.o)
 .data          0x00000000        0x0 C:/Program Files/Microchip/xc32/v5.00/bin/bin/../../lib/gcc/pic32c/13.2.1/../../../../pic32c/lib/thumb/v7e-m+dp/hard\libc-musl.a(vsnprintf.o)
 .bss           0x00000000        0x0 C:/Program Files/Microchip/xc32/v5.00/bin/bin/../../lib/gcc/pic32c/13.2.1/../../../../pic32c/lib/thumb/v7e-m+dp/hard\libc-musl.a(vsnprintf.o)
 .xc_stack_usage
                0x00000000       0x17 C:/Program Files/Microchip/xc32/v5.00/bin/bin/../../lib/gcc/pic32c/13.2.1/../../../../pic32c/lib/thumb/v7e-m+dp/hard\libc-musl.a(vsnprintf.o)
 .xc_stack_usage.hdr
                0x00000000        0xe C:/Program Files/Microchip/xc32/v5.00/bin/bin/../../lib/gcc/pic32c/13.2.1/../../../../pic32c/lib/thumb/v7e-m+dp/hard\libc-musl.a(vsnprintf.o)
 .text          0x00000000        0x0 C:/Program Files/Microchip/xc32/v5.00/bin/bin/../../lib/gcc/pic32c/13.2.1/../../../../pic32c/lib/thumb/v7e-m+dp/hard\libc-musl.a(snprintf.o)
 .data          0x00000000        0x0 C:/Program Files/Microchip/xc32/v5.00/bin/bin/../../lib/gcc/pic32c/13.2.1/../../../../pic32c/lib/thumb/v7e-m+dp/hard\libc-musl.a(snprintf.o)
 .bss           0x00000000        0x0 C:/Program Files/Microchip/xc32/v5.00/bin/bin/../../lib/gcc/pic32c/13.2.1/../../../../pic32c/lib/thumb/v7e-m+dp/hard\libc-musl.a(snprintf.o)
 .xc_stack_usage
                0x00000000       0x16 C:/Program Files/Microchip/xc32/v5.00/bin/bin/../../lib/gcc/pic32c/13.2.1/../../../../pic32c/lib/thumb/v7e-m+dp/hard\libc-musl.a(snprintf.o)
 .xc_stack_usage.hdr
                0x00000000        0xe C:/Program Files/Microchip/xc32/v5.00/bin/bin/../../lib/gcc/pic32c/13.2.1/../../../../pic32c/lib/thumb/v7e-m+dp/hard\libc-musl.a(snprintf.o)
 .text          0x00000000        0x0 C:/Program Files/Microchip/xc32/v5.00/bin/bin/../../lib/gcc/pic32c/13.2.1/../../../../pic32c/lib/thumb/v7e-m+dp/hard\libc-musl.a(sprintf.o)
 .data          0x00000000        0x0 C:/Program Files/Microchip/xc32/v5.00/bin/bin/../../lib/gcc/pic32c/13.2.1/../../../../pic32c/lib/thumb/v7e-m+dp/hard\libc-musl.a(sprintf.o)
 .bss           0x00000000        0x0 C:/Program Files/Microchip/xc32/v5.00/bin/bin/../../lib/gcc/pic32c/13.2.1/../../../../pic32c/lib/thumb/v7e-m+dp/hard\libc-musl.a(sprintf.o)
 .xc_stack_usage
                0x00000000       0x15 C:/Program Files/Microchip/xc32/v5.00/bin/bin/../../lib/gcc/pic32c/13.2.1/../../../../pic32c/lib/thumb/v7e-m+dp/hard\libc-musl.a(sprintf.o)
 .xc_stack_usage.hdr
                0x00000000        0xe C:/Program Files/Microchip/xc32/v5.00/bin/bin/../../lib/gcc/pic32c/13.2.1/../../../../pic32c/lib/thumb/v7e-m+dp/hard\libc-musl.a(sprintf.o)
 .text          0x00000000        0x0 C:/Program Files/Microchip/xc32/v5.00/bin/bin/../../lib/gcc/pic32c/13.2.1/../../../../pic32c/lib/thumb/v7e-m+dp/hard\libc-musl.a(vsprintf.o)
 .data          0x00000000        0x0 C:/Program Files/Microchip/xc32/v5.00/bin/bin/../../lib/gcc/pic32c/13.2.1/../../../../pic32c/lib/thumb/v7e-m+dp/hard\libc-musl.a(vsprintf.o)
 .bss           0x00000000        0x0 C:/Program Files/Microchip/xc32/v5.00/bin/bin/../../lib/gcc/pic32c/13.2.1/../../../../pic32c/lib/thumb/v7e-m+dp/hard\libc-musl.a(vsprintf.o)
 .xc_stack_usage
                0x00000000       0x16 C:/Program Files/Microchip/xc32/v5.00/bin/bin/../../lib/gcc/pic32c/13.2.1/../../../../pic32c/lib/thumb/v7e-m+dp/hard\libc-musl.a(vsprintf.o)
 .xc_stack_usage.hdr
                0x00000000        0xe C:/Program Files/Microchip/xc32/v5.00/bin/bin/../../lib/gcc/pic32c/13.2.1/../../../../pic32c/lib/thumb/v7e-m+dp/hard\libc-musl.a(vsprintf.o)
 .text          0x00000000        0x0 C:/Program Files/Microchip/xc32/v5.00/bin/bin/../../lib/gcc/pic32c/13.2.1/../../../../pic32c/lib/thumb/v7e-m+dp/hard\libc-musl.a(atoi.o)
 .data          0x00000000        0x0 C:/Program Files/Microchip/xc32/v5.00/bin/bin/../../lib/gcc/pic32c/13.2.1/../../../../pic32c/lib/thumb/v7e-m+dp/hard\libc-musl.a(atoi.o)
 .bss           0x00000000        0x0 C:/Program Files/Microchip/xc32/v5.00/bin/bin/../../lib/gcc/pic32c/13.2.1/../../../../pic32c/lib/thumb/v7e-m+dp/hard\libc-musl.a(atoi.o)
 .xc_stack_usage
                0x00000000       0x12 C:/Program Files/Microchip/xc32/v5.00/bin/bin/../../lib/gcc/pic32c/13.2.1/../../../../pic32c/lib/thumb/v7e-m+dp/hard\libc-musl.a(atoi.o)
 .xc_stack_usage.hdr
                0x00000000        0xe C:/Program Files/Microchip/xc32/v5.00/bin/bin/../../lib/gcc/pic32c/13.2.1/../../../../pic32c/lib/thumb/v7e-m+dp/hard\libc-musl.a(atoi.o)
 .text          0x00000000        0x0 C:/Program Files/Microchip/xc32/v5.00/bin/bin/../../lib/gcc/pic32c/13.2.1/../../../../pic32c/lib/thumb/v7e-m+dp/hard\libc-musl.a(strtol.o)
 .data          0x00000000        0x0 C:/Program Files/Microchip/xc32/v5.00/bin/bin/../../lib/gcc/pic32c/13.2.1/../../../../pic32c/lib/thumb/v7e-m+dp/hard\libc-musl.a(strtol.o)
 .bss           0x00000000        0x0 C:/Program Files/Microchip/xc32/v5.00/bin/bin/../../lib/gcc/pic32c/13.2.1/../../../../pic32c/lib/thumb/v7e-m+dp/hard\libc-musl.a(strtol.o)
 .xc_stack_usage
                0x00000000       0x96 C:/Program Files/Microchip/xc32/v5.00/bin/bin/../../lib/gcc/pic32c/13.2.1/../../../../pic32c/lib/thumb/v7e-m+dp/hard\libc-musl.a(strtol.o)
 .text.strtoull
                0x00000000       0x16 C:/Program Files/Microchip/xc32/v5.00/bin/bin/../../lib/gcc/pic32c/13.2.1/../../../../pic32c/lib/thumb/v7e-m+dp/hard\libc-musl.a(strtol.o)
 .text.strtoll  0x00000000       0x14 C:/Program Files/Microchip/xc32/v5.00/bin/bin/../../lib/gcc/pic32c/13.2.1/../../../../pic32c/lib/thumb/v7e-m+dp/hard\libc-musl.a(strtol.o)
 .text.strtol   0x00000000       0x14 C:/Program Files/Microchip/xc32/v5.00/bin/bin/../../lib/gcc/pic32c/13.2.1/../../../../pic32c/lib/thumb/v7e-m+dp/hard\libc-musl.a(strtol.o)
 .text.strtoimax
                0x00000000        0x4 C:/Program Files/Microchip/xc32/v5.00/bin/bin/../../lib/gcc/pic32c/13.2.1/../../../../pic32c/lib/thumb/v7e-m+dp/hard\libc-musl.a(strtol.o)
 .text.strtoumax
                0x00000000        0x4 C:/Program Files/Microchip/xc32/v5.00/bin/bin/../../lib/gcc/pic32c/13.2.1/../../../../pic32c/lib/thumb/v7e-m+dp/hard\libc-musl.a(strtol.o)
 .xc_stack_usage.hdr
                0x00000000        0xe C:/Program Files/Microchip/xc32/v5.00/bin/bin/../../lib/gcc/pic32c/13.2.1/../../../../pic32c/lib/thumb/v7e-m+dp/hard\libc-musl.a(strtol.o)
 .text          0x00000000        0x0 C:/Program Files/Microchip/xc32/v5.00/bin/bin/../../lib/gcc/pic32c/13.2.1/../../../../pic32c/lib/thumb/v7e-m+dp/hard\libc-musl.a(__environ.o)
 .data          0x00000000        0x0 C:/Program Files/Microchip/xc32/v5.00/bin/bin/../../lib/gcc/pic32c/13.2.1/../../../../pic32c/lib/thumb/v7e-m+dp/hard\libc-musl.a(__environ.o)
 .xc_stack_usage.hdr
                0x00000000        0xe C:/Program Files/Microchip/xc32/v5.00/bin/bin/../../lib/gcc/pic32c/13.2.1/../../../../pic32c/lib/thumb/v7e-m+dp/hard\libc-musl.a(__environ.o)
 .text          0x00000000        0x0 C:/Program Files/Microchip/xc32/v5.00/bin/bin/../../lib/gcc/pic32c/13.2.1/../../../../pic32c/lib/thumb/v7e-m+dp/hard\libc-musl.a(__errno_location.o)
 .data          0x00000000        0x0 C:/Program Files/Microchip/xc32/v5.00/bin/bin/../../lib/gcc/pic32c/13.2.1/../../../../pic32c/lib/thumb/v7e-m+dp/hard\libc-musl.a(__errno_location.o)
 .xc_stack_usage.hdr
                0x00000000        0xe C:/Program Files/Microchip/xc32/v5.00/bin/bin/../../lib/gcc/pic32c/13.2.1/../../../../pic32c/lib/thumb/v7e-m+dp/hard\libc-musl.a(__errno_location.o)
 .text          0x00000000        0x0 C:/Program Files/Microchip/xc32/v5.00/bin/bin/../../lib/gcc/pic32c/13.2.1/../../../../pic32c/lib/thumb/v7e-m+dp/hard\libc-musl.a(intscan.o)
 .data          0x00000000        0x0 C:/Program Files/Microchip/xc32/v5.00/bin/bin/../../lib/gcc/pic32c/13.2.1/../../../../pic32c/lib/thumb/v7e-m+dp/hard\libc-musl.a(intscan.o)
 .bss           0x00000000        0x0 C:/Program Files/Microchip/xc32/v5.00/bin/bin/../../lib/gcc/pic32c/13.2.1/../../../../pic32c/lib/thumb/v7e-m+dp/hard\libc-musl.a(intscan.o)
 .xc_stack_usage
                0x00000000       0x17 C:/Program Files/Microchip/xc32/v5.00/bin/bin/../../lib/gcc/pic32c/13.2.1/../../../../pic32c/lib/thumb/v7e-m+dp/hard\libc-musl.a(intscan.o)
 .xc_stack_usage.hdr
                0x00000000        0xe C:/Program Files/Microchip/xc32/v5.00/bin/bin/../../lib/gcc/pic32c/13.2.1/../../../../pic32c/lib/thumb/v7e-m+dp/hard\libc-musl.a(intscan.o)
 .text          0x00000000        0x0 C:/Program Files/Microchip/xc32/v5.00/bin/bin/../../lib/gcc/pic32c/13.2.1/../../../../pic32c/lib/thumb/v7e-m+dp/hard\libc-musl.a(shgetc.o)
 .data          0x00000000        0x0 C:/Program Files/Microchip/xc32/v5.00/bin/bin/../../lib/gcc/pic32c/13.2.1/../../../../pic32c/lib/thumb/v7e-m+dp/hard\libc-musl.a(shgetc.o)
 .bss           0x00000000        0x0 C:/Program Files/Microchip/xc32/v5.00/bin/bin/../../lib/gcc/pic32c/13.2.1/../../../../pic32c/lib/thumb/v7e-m+dp/hard\libc-musl.a(shgetc.o)
 .xc_stack_usage
                0x00000000       0x2b C:/Program Files/Microchip/xc32/v5.00/bin/bin/../../lib/gcc/pic32c/13.2.1/../../../../pic32c/lib/thumb/v7e-m+dp/hard\libc-musl.a(shgetc.o)
 .xc_stack_usage.hdr
                0x00000000        0xe C:/Program Files/Microchip/xc32/v5.00/bin/bin/../../lib/gcc/pic32c/13.2.1/../../../../pic32c/lib/thumb/v7e-m+dp/hard\libc-musl.a(shgetc.o)
 .text          0x00000000        0x0 C:/Program Files/Microchip/xc32/v5.00/bin/bin/../../lib/gcc/pic32c/13.2.1/../../../../pic32c/lib/thumb/v7e-m+dp/hard\libc-musl.a(__uflow.o)
 .data          0x00000000        0x0 C:/Program Files/Microchip/xc32/v5.00/bin/bin/../../lib/gcc/pic32c/13.2.1/../../../../pic32c/lib/thumb/v7e-m+dp/hard\libc-musl.a(__uflow.o)
 .bss           0x00000000        0x0 C:/Program Files/Microchip/xc32/v5.00/bin/bin/../../lib/gcc/pic32c/13.2.1/../../../../pic32c/lib/thumb/v7e-m+dp/hard\libc-musl.a(__uflow.o)
 .xc_stack_usage
                0x00000000       0x15 C:/Program Files/Microchip/xc32/v5.00/bin/bin/../../lib/gcc/pic32c/13.2.1/../../../../pic32c/lib/thumb/v7e-m+dp/hard\libc-musl.a(__uflow.o)
 .xc_stack_usage.hdr
                0x00000000        0xe C:/Program Files/Microchip/xc32/v5.00/bin/bin/../../lib/gcc/pic32c/13.2.1/../../../../pic32c/lib/thumb/v7e-m+dp/hard\libc-musl.a(__uflow.o)
 .text          0x00000000        0x0 C:/Program Files/Microchip/xc32/v5.00/bin/bin/../../lib/gcc/pic32c/13.2.1/../../../../pic32c/lib/thumb/v7e-m+dp/hard\libc-musl.a(vfprintf.o)
 .data          0x00000000        0x0 C:/Program Files/Microchip/xc32/v5.00/bin/bin/../../lib/gcc/pic32c/13.2.1/../../../../pic32c/lib/thumb/v7e-m+dp/hard\libc-musl.a(vfprintf.o)
 .bss           0x00000000        0x0 C:/Program Files/Microchip/xc32/v5.00/bin/bin/../../lib/gcc/pic32c/13.2.1/../../../../pic32c/lib/thumb/v7e-m+dp/hard\libc-musl.a(vfprintf.o)
 .xc_stack_usage
                0x00000000       0x38 C:/Program Files/Microchip/xc32/v5.00/bin/bin/../../lib/gcc/pic32c/13.2.1/../../../../pic32c/lib/thumb/v7e-m+dp/hard\libc-musl.a(vfprintf.o)
 __xc_reference_data
                0x00000000        0x4 C:/Program Files/Microchip/xc32/v5.00/bin/bin/../../lib/gcc/pic32c/13.2.1/../../../../pic32c/lib/thumb/v7e-m+dp/hard\libc-musl.a(vfprintf.o)
 .xc_stack_usage.hdr
                0x00000000        0xe C:/Program Files/Microchip/xc32/v5.00/bin/bin/../../lib/gcc/pic32c/13.2.1/../../../../pic32c/lib/thumb/v7e-m+dp/hard\libc-musl.a(vfprintf.o)
 .text          0x00000000        0x0 C:/Program Files/Microchip/xc32/v5.00/bin/bin/../../lib/gcc/pic32c/13.2.1/../../../../pic32c/lib/thumb/v7e-m+dp/hard\libc-musl.a(__toread.o)
 .data          0x00000000        0x0 C:/Program Files/Microchip/xc32/v5.00/bin/bin/../../lib/gcc/pic32c/13.2.1/../../../../pic32c/lib/thumb/v7e-m+dp/hard\libc-musl.a(__toread.o)
 .bss           0x00000000        0x0 C:/Program Files/Microchip/xc32/v5.00/bin/bin/../../lib/gcc/pic32c/13.2.1/../../../../pic32c/lib/thumb/v7e-m+dp/hard\libc-musl.a(__toread.o)
 .xc_stack_usage
                0x00000000       0x3d C:/Program Files/Microchip/xc32/v5.00/bin/bin/../../lib/gcc/pic32c/13.2.1/../../../../pic32c/lib/thumb/v7e-m+dp/hard\libc-musl.a(__toread.o)
 .text.__toread_needs_stdio_exit
                0x00000000        0x4 C:/Program Files/Microchip/xc32/v5.00/bin/bin/../../lib/gcc/pic32c/13.2.1/../../../../pic32c/lib/thumb/v7e-m+dp/hard\libc-musl.a(__toread.o)
 .xc_stack_usage.hdr
                0x00000000        0xe C:/Program Files/Microchip/xc32/v5.00/bin/bin/../../lib/gcc/pic32c/13.2.1/../../../../pic32c/lib/thumb/v7e-m+dp/hard\libc-musl.a(__toread.o)
 .text          0x00000000        0x0 C:/Program Files/Microchip/xc32/v5.00/bin/bin/../../lib/gcc/pic32c/13.2.1/../../../../pic32c/lib/thumb/v7e-m+dp/hard\libc-musl.a(__io_fmt_needed.o)
 .data          0x00000000        0x0 C:/Program Files/Microchip/xc32/v5.00/bin/bin/../../lib/gcc/pic32c/13.2.1/../../../../pic32c/lib/thumb/v7e-m+dp/hard\libc-musl.a(__io_fmt_needed.o)
 .bss           0x00000000        0x0 C:/Program Files/Microchip/xc32/v5.00/bin/bin/../../lib/gcc/pic32c/13.2.1/../../../../pic32c/lib/thumb/v7e-m+dp/hard\libc-musl.a(__io_fmt_needed.o)
 .xc_stack_usage
                0x00000000       0x1d C:/Program Files/Microchip/xc32/v5.00/bin/bin/../../lib/gcc/pic32c/13.2.1/../../../../pic32c/lib/thumb/v7e-m+dp/hard\libc-musl.a(__io_fmt_needed.o)
 __xc_reference_data
                0x00000000       0x58 C:/Program Files/Microchip/xc32/v5.00/bin/bin/../../lib/gcc/pic32c/13.2.1/../../../../pic32c/lib/thumb/v7e-m+dp/hard\libc-musl.a(__io_fmt_needed.o)
 .xc_stack_usage.hdr
                0x00000000        0xe C:/Program Files/Microchip/xc32/v5.00/bin/bin/../../lib/gcc/pic32c/13.2.1/../../../../pic32c/lib/thumb/v7e-m+dp/hard\libc-musl.a(__io_fmt_needed.o)
 .debug_info    0x00000000      0x198 C:/Program Files/Microchip/xc32/v5.00/bin/bin/../../lib/gcc/pic32c/13.2.1/../../../../pic32c/lib/thumb/v7e-m+dp/hard\libc-musl.a(__io_fmt_needed.o)
 .debug_abbrev  0x00000000       0x77 C:/Program Files/Microchip/xc32/v5.00/bin/bin/../../lib/gcc/pic32c/13.2.1/../../../../pic32c/lib/thumb/v7e-m+dp/hard\libc-musl.a(__io_fmt_needed.o)
 .debug_loc     0x00000000       0x2c C:/Program Files/Microchip/xc32/v5.00/bin/bin/../../lib/gcc/pic32c/13.2.1/../../../../pic32c/lib/thumb/v7e-m+dp/hard\libc-musl.a(__io_fmt_needed.o)
 .debug_aranges
                0x00000000       0x20 C:/Program Files/Microchip/xc32/v5.00/bin/bin/../../lib/gcc/pic32c/13.2.1/../../../../pic32c/lib/thumb/v7e-m+dp/hard\libc-musl.a(__io_fmt_needed.o)
 .debug_ranges  0x00000000       0x10 C:/Program Files/Microchip/xc32/v5.00/bin/bin/../../lib/gcc/pic32c/13.2.1/../../../../pic32c/lib/thumb/v7e-m+dp/hard\libc-musl.a(__io_fmt_needed.o)
 .debug_line    0x00000000       0x99 C:/Program Files/Microchip/xc32/v5.00/bin/bin/../../lib/gcc/pic32c/13.2.1/../../../../pic32c/lib/thumb/v7e-m+dp/hard\libc-musl.a(__io_fmt_needed.o)
 .debug_str     0x00000000      0x353 C:/Program Files/Microchip/xc32/v5.00/bin/bin/../../lib/gcc/pic32c/13.2.1/../../../../pic32c/lib/thumb/v7e-m+dp/hard\libc-musl.a(__io_fmt_needed.o)
 .comment       0x00000000       0x36 C:/Program Files/Microchip/xc32/v5.00/bin/bin/../../lib/gcc/pic32c/13.2.1/../../../../pic32c/lib/thumb/v7e-m+dp/hard\libc-musl.a(__io_fmt_needed.o)
 .note.GNU-stack
                0x00000000        0x0 C:/Program Files/Microchip/xc32/v5.00/bin/bin/../../lib/gcc/pic32c/13.2.1/../../../../pic32c/lib/thumb/v7e-m+dp/hard\libc-musl.a(__io_fmt_needed.o)
 .debug_frame   0x00000000       0x2c C:/Program Files/Microchip/xc32/v5.00/bin/bin/../../lib/gcc/pic32c/13.2.1/../../../../pic32c/lib/thumb/v7e-m+dp/hard\libc-musl.a(__io_fmt_needed.o)
 .ARM.attributes
                0x00000000       0x34 C:/Program Files/Microchip/xc32/v5.00/bin/bin/../../lib/gcc/pic32c/13.2.1/../../../../pic32c/lib/thumb/v7e-m+dp/hard\libc-musl.a(__io_fmt_needed.o)
 .text          0x00000000        0x0 C:/Program Files/Microchip/xc32/v5.00/bin/bin/../../lib/gcc/pic32c/13.2.1/../../../../pic32c/lib/thumb/v7e-m+dp/hard\libc-musl.a(__pop_float.o)
 .data          0x00000000        0x0 C:/Program Files/Microchip/xc32/v5.00/bin/bin/../../lib/gcc/pic32c/13.2.1/../../../../pic32c/lib/thumb/v7e-m+dp/hard\libc-musl.a(__pop_float.o)
 .bss           0x00000000        0x0 C:/Program Files/Microchip/xc32/v5.00/bin/bin/../../lib/gcc/pic32c/13.2.1/../../../../pic32c/lib/thumb/v7e-m+dp/hard\libc-musl.a(__pop_float.o)
 .xc_stack_usage
                0x00000000       0x19 C:/Program Files/Microchip/xc32/v5.00/bin/bin/../../lib/gcc/pic32c/13.2.1/../../../../pic32c/lib/thumb/v7e-m+dp/hard\libc-musl.a(__pop_float.o)
 .xc_stack_usage.hdr
                0x00000000        0xe C:/Program Files/Microchip/xc32/v5.00/bin/bin/../../lib/gcc/pic32c/13.2.1/../../../../pic32c/lib/thumb/v7e-m+dp/hard\libc-musl.a(__pop_float.o)
 .text          0x00000000        0x0 C:/Program Files/Microchip/xc32/v5.00/bin/bin/../../lib/gcc/pic32c/13.2.1/../../../../pic32c/lib/thumb/v7e-m+dp/hard\libc-musl.a(__pop_int.o)
 .data          0x00000000        0x0 C:/Program Files/Microchip/xc32/v5.00/bin/bin/../../lib/gcc/pic32c/13.2.1/../../../../pic32c/lib/thumb/v7e-m+dp/hard\libc-musl.a(__pop_int.o)
 .bss           0x00000000        0x0 C:/Program Files/Microchip/xc32/v5.00/bin/bin/../../lib/gcc/pic32c/13.2.1/../../../../pic32c/lib/thumb/v7e-m+dp/hard\libc-musl.a(__pop_int.o)
 .xc_stack_usage
                0x00000000       0x17 C:/Program Files/Microchip/xc32/v5.00/bin/bin/../../lib/gcc/pic32c/13.2.1/../../../../pic32c/lib/thumb/v7e-m+dp/hard\libc-musl.a(__pop_int.o)
 .xc_stack_usage.hdr
                0x00000000        0xe C:/Program Files/Microchip/xc32/v5.00/bin/bin/../../lib/gcc/pic32c/13.2.1/../../../../pic32c/lib/thumb/v7e-m+dp/hard\libc-musl.a(__pop_int.o)
 .text          0x00000000        0x0 C:/Program Files/Microchip/xc32/v5.00/bin/bin/../../lib/gcc/pic32c/13.2.1/../../../../pic32c/lib/thumb/v7e-m+dp/hard\libc-musl.a(__pop_ptr.o)
 .data          0x00000000        0x0 C:/Program Files/Microchip/xc32/v5.00/bin/bin/../../lib/gcc/pic32c/13.2.1/../../../../pic32c/lib/thumb/v7e-m+dp/hard\libc-musl.a(__pop_ptr.o)
 .bss           0x00000000        0x0 C:/Program Files/Microchip/xc32/v5.00/bin/bin/../../lib/gcc/pic32c/13.2.1/../../../../pic32c/lib/thumb/v7e-m+dp/hard\libc-musl.a(__pop_ptr.o)
 .xc_stack_usage
                0x00000000       0x17 C:/Program Files/Microchip/xc32/v5.00/bin/bin/../../lib/gcc/pic32c/13.2.1/../../../../pic32c/lib/thumb/v7e-m+dp/hard\libc-musl.a(__pop_ptr.o)
 .xc_stack_usage.hdr
                0x00000000        0xe C:/Program Files/Microchip/xc32/v5.00/bin/bin/../../lib/gcc/pic32c/13.2.1/../../../../pic32c/lib/thumb/v7e-m+dp/hard\libc-musl.a(__pop_ptr.o)
 .text          0x00000000        0x0 C:/Program Files/Microchip/xc32/v5.00/bin/bin/../../lib/gcc/pic32c/13.2.1/../../../../pic32c/lib/thumb/v7e-m+dp/hard\libc-musl.a(__printf_core.o)
 .data          0x00000000        0x0 C:/Program Files/Microchip/xc32/v5.00/bin/bin/../../lib/gcc/pic32c/13.2.1/../../../../pic32c/lib/thumb/v7e-m+dp/hard\libc-musl.a(__printf_core.o)
 .bss           0x00000000        0x0 C:/Program Files/Microchip/xc32/v5.00/bin/bin/../../lib/gcc/pic32c/13.2.1/../../../../pic32c/lib/thumb/v7e-m+dp/hard\libc-musl.a(__printf_core.o)
 .xc_stack_usage
                0x00000000       0xaf C:/Program Files/Microchip/xc32/v5.00/bin/bin/../../lib/gcc/pic32c/13.2.1/../../../../pic32c/lib/thumb/v7e-m+dp/hard\libc-musl.a(__printf_core.o)
 .text.__dummy_fmt3
                0x00000000        0x4 C:/Program Files/Microchip/xc32/v5.00/bin/bin/../../lib/gcc/pic32c/13.2.1/../../../../pic32c/lib/thumb/v7e-m+dp/hard\libc-musl.a(__printf_core.o)
 .text.__dummy_fmt4
                0x00000000        0x4 C:/Program Files/Microchip/xc32/v5.00/bin/bin/../../lib/gcc/pic32c/13.2.1/../../../../pic32c/lib/thumb/v7e-m+dp/hard\libc-musl.a(__printf_core.o)
 .text.__dummy_fmts
                0x00000000        0x4 C:/Program Files/Microchip/xc32/v5.00/bin/bin/../../lib/gcc/pic32c/13.2.1/../../../../pic32c/lib/thumb/v7e-m+dp/hard\libc-musl.a(__printf_core.o)
 .xc_stack_usage.hdr
                0x00000000        0xe C:/Program Files/Microchip/xc32/v5.00/bin/bin/../../lib/gcc/pic32c/13.2.1/../../../../pic32c/lib/thumb/v7e-m+dp/hard\libc-musl.a(__printf_core.o)
 .text          0x00000000        0x0 C:/Program Files/Microchip/xc32/v5.00/bin/bin/../../lib/gcc/pic32c/13.2.1/../../../../pic32c/lib/thumb/v7e-m+dp/hard\libc-musl.a(__stdio_exit.o)
 .data          0x00000000        0x0 C:/Program Files/Microchip/xc32/v5.00/bin/bin/../../lib/gcc/pic32c/13.2.1/../../../../pic32c/lib/thumb/v7e-m+dp/hard\libc-musl.a(__stdio_exit.o)
 .bss           0x00000000        0x4 C:/Program Files/Microchip/xc32/v5.00/bin/bin/../../lib/gcc/pic32c/13.2.1/../../../../pic32c/lib/thumb/v7e-m+dp/hard\libc-musl.a(__stdio_exit.o)
 .xc_stack_usage
                0x00000000       0x45 C:/Program Files/Microchip/xc32/v5.00/bin/bin/../../lib/gcc/pic32c/13.2.1/../../../../pic32c/lib/thumb/v7e-m+dp/hard\libc-musl.a(__stdio_exit.o)
 .text.__dummy  0x00000000        0x2 C:/Program Files/Microchip/xc32/v5.00/bin/bin/../../lib/gcc/pic32c/13.2.1/../../../../pic32c/lib/thumb/v7e-m+dp/hard\libc-musl.a(__stdio_exit.o)
 .text.__dummy1
                0x00000000        0x4 C:/Program Files/Microchip/xc32/v5.00/bin/bin/../../lib/gcc/pic32c/13.2.1/../../../../pic32c/lib/thumb/v7e-m+dp/hard\libc-musl.a(__stdio_exit.o)
 .text.__stdio_exit
                0x00000000       0x34 C:/Program Files/Microchip/xc32/v5.00/bin/bin/../../lib/gcc/pic32c/13.2.1/../../../../pic32c/lib/thumb/v7e-m+dp/hard\libc-musl.a(__stdio_exit.o)
 .xc_stack_usage.hdr
                0x00000000        0xe C:/Program Files/Microchip/xc32/v5.00/bin/bin/../../lib/gcc/pic32c/13.2.1/../../../../pic32c/lib/thumb/v7e-m+dp/hard\libc-musl.a(__stdio_exit.o)
 .debug_info    0x00000000      0x2dd C:/Program Files/Microchip/xc32/v5.00/bin/bin/../../lib/gcc/pic32c/13.2.1/../../../../pic32c/lib/thumb/v7e-m+dp/hard\libc-musl.a(__stdio_exit.o)
 .debug_abbrev  0x00000000      0x173 C:/Program Files/Microchip/xc32/v5.00/bin/bin/../../lib/gcc/pic32c/13.2.1/../../../../pic32c/lib/thumb/v7e-m+dp/hard\libc-musl.a(__stdio_exit.o)
 .debug_loc     0x00000000       0x4b C:/Program Files/Microchip/xc32/v5.00/bin/bin/../../lib/gcc/pic32c/13.2.1/../../../../pic32c/lib/thumb/v7e-m+dp/hard\libc-musl.a(__stdio_exit.o)
 .debug_aranges
                0x00000000       0x30 C:/Program Files/Microchip/xc32/v5.00/bin/bin/../../lib/gcc/pic32c/13.2.1/../../../../pic32c/lib/thumb/v7e-m+dp/hard\libc-musl.a(__stdio_exit.o)
 .debug_ranges  0x00000000       0x20 C:/Program Files/Microchip/xc32/v5.00/bin/bin/../../lib/gcc/pic32c/13.2.1/../../../../pic32c/lib/thumb/v7e-m+dp/hard\libc-musl.a(__stdio_exit.o)
 .debug_line    0x00000000      0x178 C:/Program Files/Microchip/xc32/v5.00/bin/bin/../../lib/gcc/pic32c/13.2.1/../../../../pic32c/lib/thumb/v7e-m+dp/hard\libc-musl.a(__stdio_exit.o)
 .debug_str     0x00000000      0x349 C:/Program Files/Microchip/xc32/v5.00/bin/bin/../../lib/gcc/pic32c/13.2.1/../../../../pic32c/lib/thumb/v7e-m+dp/hard\libc-musl.a(__stdio_exit.o)
 .comment       0x00000000       0x36 C:/Program Files/Microchip/xc32/v5.00/bin/bin/../../lib/gcc/pic32c/13.2.1/../../../../pic32c/lib/thumb/v7e-m+dp/hard\libc-musl.a(__stdio_exit.o)
 .note.GNU-stack
                0x00000000        0x0 C:/Program Files/Microchip/xc32/v5.00/bin/bin/../../lib/gcc/pic32c/13.2.1/../../../../pic32c/lib/thumb/v7e-m+dp/hard\libc-musl.a(__stdio_exit.o)
 .debug_frame   0x00000000       0x48 C:/Program Files/Microchip/xc32/v5.00/bin/bin/../../lib/gcc/pic32c/13.2.1/../../../../pic32c/lib/thumb/v7e-m+dp/hard\libc-musl.a(__stdio_exit.o)
 .ARM.attributes
                0x00000000       0x34 C:/Program Files/Microchip/xc32/v5.00/bin/bin/../../lib/gcc/pic32c/13.2.1/../../../../pic32c/lib/thumb/v7e-m+dp/hard\libc-musl.a(__stdio_exit.o)
 .text          0x00000000        0x0 C:/Program Files/Microchip/xc32/v5.00/bin/bin/../../lib/gcc/pic32c/13.2.1/../../../../pic32c/lib/thumb/v7e-m+dp/hard\libc-musl.a(tolower.o)
 .data          0x00000000        0x0 C:/Program Files/Microchip/xc32/v5.00/bin/bin/../../lib/gcc/pic32c/13.2.1/../../../../pic32c/lib/thumb/v7e-m+dp/hard\libc-musl.a(tolower.o)
 .bss           0x00000000        0x0 C:/Program Files/Microchip/xc32/v5.00/bin/bin/../../lib/gcc/pic32c/13.2.1/../../../../pic32c/lib/thumb/v7e-m+dp/hard\libc-musl.a(tolower.o)
 .xc_stack_usage
                0x00000000       0x2e C:/Program Files/Microchip/xc32/v5.00/bin/bin/../../lib/gcc/pic32c/13.2.1/../../../../pic32c/lib/thumb/v7e-m+dp/hard\libc-musl.a(tolower.o)
 .text.__tolower_l
                0x00000000        0x4 C:/Program Files/Microchip/xc32/v5.00/bin/bin/../../lib/gcc/pic32c/13.2.1/../../../../pic32c/lib/thumb/v7e-m+dp/hard\libc-musl.a(tolower.o)
 .xc_stack_usage.hdr
                0x00000000        0xe C:/Program Files/Microchip/xc32/v5.00/bin/bin/../../lib/gcc/pic32c/13.2.1/../../../../pic32c/lib/thumb/v7e-m+dp/hard\libc-musl.a(tolower.o)
 .text          0x00000000        0x0 C:/Program Files/Microchip/xc32/v5.00/bin/bin/../../lib/gcc/pic32c/13.2.1/../../../../pic32c/lib/thumb/v7e-m+dp/hard\libc-musl.a(__fmt_a.o)
 .data          0x00000000        0x0 C:/Program Files/Microchip/xc32/v5.00/bin/bin/../../lib/gcc/pic32c/13.2.1/../../../../pic32c/lib/thumb/v7e-m+dp/hard\libc-musl.a(__fmt_a.o)
 .bss           0x00000000        0x0 C:/Program Files/Microchip/xc32/v5.00/bin/bin/../../lib/gcc/pic32c/13.2.1/../../../../pic32c/lib/thumb/v7e-m+dp/hard\libc-musl.a(__fmt_a.o)
 .xc_stack_usage
                0x00000000       0x15 C:/Program Files/Microchip/xc32/v5.00/bin/bin/../../lib/gcc/pic32c/13.2.1/../../../../pic32c/lib/thumb/v7e-m+dp/hard\libc-musl.a(__fmt_a.o)
 .xc_stack_usage.hdr
                0x00000000        0xe C:/Program Files/Microchip/xc32/v5.00/bin/bin/../../lib/gcc/pic32c/13.2.1/../../../../pic32c/lib/thumb/v7e-m+dp/hard\libc-musl.a(__fmt_a.o)
 .text          0x00000000        0x0 C:/Program Files/Microchip/xc32/v5.00/bin/bin/../../lib/gcc/pic32c/13.2.1/../../../../pic32c/lib/thumb/v7e-m+dp/hard\libc-musl.a(__fmt_d.o)
 .data          0x00000000        0x0 C:/Program Files/Microchip/xc32/v5.00/bin/bin/../../lib/gcc/pic32c/13.2.1/../../../../pic32c/lib/thumb/v7e-m+dp/hard\libc-musl.a(__fmt_d.o)
 .bss           0x00000000        0x0 C:/Program Files/Microchip/xc32/v5.00/bin/bin/../../lib/gcc/pic32c/13.2.1/../../../../pic32c/lib/thumb/v7e-m+dp/hard\libc-musl.a(__fmt_d.o)
 .xc_stack_usage
                0x00000000       0x15 C:/Program Files/Microchip/xc32/v5.00/bin/bin/../../lib/gcc/pic32c/13.2.1/../../../../pic32c/lib/thumb/v7e-m+dp/hard\libc-musl.a(__fmt_d.o)
 .xc_stack_usage.hdr
                0x00000000        0xe C:/Program Files/Microchip/xc32/v5.00/bin/bin/../../lib/gcc/pic32c/13.2.1/../../../../pic32c/lib/thumb/v7e-m+dp/hard\libc-musl.a(__fmt_d.o)
 .text          0x00000000        0x0 C:/Program Files/Microchip/xc32/v5.00/bin/bin/../../lib/gcc/pic32c/13.2.1/../../../../pic32c/lib/thumb/v7e-m+dp/hard\libc-musl.a(__fmt_fp.o)
 .data          0x00000000        0x0 C:/Program Files/Microchip/xc32/v5.00/bin/bin/../../lib/gcc/pic32c/13.2.1/../../../../pic32c/lib/thumb/v7e-m+dp/hard\libc-musl.a(__fmt_fp.o)
 .bss           0x00000000        0x0 C:/Program Files/Microchip/xc32/v5.00/bin/bin/../../lib/gcc/pic32c/13.2.1/../../../../pic32c/lib/thumb/v7e-m+dp/hard\libc-musl.a(__fmt_fp.o)
 .xc_stack_usage
                0x00000000       0x16 C:/Program Files/Microchip/xc32/v5.00/bin/bin/../../lib/gcc/pic32c/13.2.1/../../../../pic32c/lib/thumb/v7e-m+dp/hard\libc-musl.a(__fmt_fp.o)
 .xc_stack_usage.hdr
                0x00000000        0xe C:/Program Files/Microchip/xc32/v5.00/bin/bin/../../lib/gcc/pic32c/13.2.1/../../../../pic32c/lib/thumb/v7e-m+dp/hard\libc-musl.a(__fmt_fp.o)
 .text          0x00000000        0x0 C:/Program Files/Microchip/xc32/v5.00/bin/bin/../../lib/gcc/pic32c/13.2.1/../../../../pic32c/lib/thumb/v7e-m+dp/hard\libc-musl.a(__fmt_o.o)
 .data          0x00000000        0x0 C:/Program Files/Microchip/xc32/v5.00/bin/bin/../../lib/gcc/pic32c/13.2.1/../../../../pic32c/lib/thumb/v7e-m+dp/hard\libc-musl.a(__fmt_o.o)
 .bss           0x00000000        0x0 C:/Program Files/Microchip/xc32/v5.00/bin/bin/../../lib/gcc/pic32c/13.2.1/../../../../pic32c/lib/thumb/v7e-m+dp/hard\libc-musl.a(__fmt_o.o)
 .xc_stack_usage
                0x00000000       0x15 C:/Program Files/Microchip/xc32/v5.00/bin/bin/../../lib/gcc/pic32c/13.2.1/../../../../pic32c/lib/thumb/v7e-m+dp/hard\libc-musl.a(__fmt_o.o)
 .xc_stack_usage.hdr
                0x00000000        0xe C:/Program Files/Microchip/xc32/v5.00/bin/bin/../../lib/gcc/pic32c/13.2.1/../../../../pic32c/lib/thumb/v7e-m+dp/hard\libc-musl.a(__fmt_o.o)
 .text          0x00000000        0x0 C:/Program Files/Microchip/xc32/v5.00/bin/bin/../../lib/gcc/pic32c/13.2.1/../../../../pic32c/lib/thumb/v7e-m+dp/hard\libc-musl.a(__fmt_s.o)
 .data          0x00000000        0x0 C:/Program Files/Microchip/xc32/v5.00/bin/bin/../../lib/gcc/pic32c/13.2.1/../../../../pic32c/lib/thumb/v7e-m+dp/hard\libc-musl.a(__fmt_s.o)
 .bss           0x00000000        0x0 C:/Program Files/Microchip/xc32/v5.00/bin/bin/../../lib/gcc/pic32c/13.2.1/../../../../pic32c/lib/thumb/v7e-m+dp/hard\libc-musl.a(__fmt_s.o)
 .xc_stack_usage
                0x00000000       0x15 C:/Program Files/Microchip/xc32/v5.00/bin/bin/../../lib/gcc/pic32c/13.2.1/../../../../pic32c/lib/thumb/v7e-m+dp/hard\libc-musl.a(__fmt_s.o)
 .xc_stack_usage.hdr
                0x00000000        0xe C:/Program Files/Microchip/xc32/v5.00/bin/bin/../../lib/gcc/pic32c/13.2.1/../../../../pic32c/lib/thumb/v7e-m+dp/hard\libc-musl.a(__fmt_s.o)
 .text          0x00000000        0x0 C:/Program Files/Microchip/xc32/v5.00/bin/bin/../../lib/gcc/pic32c/13.2.1/../../../../pic32c/lib/thumb/v7e-m+dp/hard\libc-musl.a(__fmt_u.o)
 .data          0x00000000        0x0 C:/Program Files/Microchip/xc32/v5.00/bin/bin/../../lib/gcc/pic32c/13.2.1/../../../../pic32c/lib/thumb/v7e-m+dp/hard\libc-musl.a(__fmt_u.o)
 .bss           0x00000000        0x0 C:/Program Files/Microchip/xc32/v5.00/bin/bin/../../lib/gcc/pic32c/13.2.1/../../../../pic32c/lib/thumb/v7e-m+dp/hard\libc-musl.a(__fmt_u.o)
 .xc_stack_usage
                0x00000000       0x15 C:/Program Files/Microchip/xc32/v5.00/bin/bin/../../lib/gcc/pic32c/13.2.1/../../../../pic32c/lib/thumb/v7e-m+dp/hard\libc-musl.a(__fmt_u.o)
 .xc_stack_usage.hdr
                0x00000000        0xe C:/Program Files/Microchip/xc32/v5.00/bin/bin/../../lib/gcc/pic32c/13.2.1/../../../../pic32c/lib/thumb/v7e-m+dp/hard\libc-musl.a(__fmt_u.o)
 .text          0x00000000        0x0 C:/Program Files/Microchip/xc32/v5.00/bin/bin/../../lib/gcc/pic32c/13.2.1/../../../../pic32c/lib/thumb/v7e-m+dp/hard\libc-musl.a(__fmt_x.o)
 .data          0x00000000        0x0 C:/Program Files/Microchip/xc32/v5.00/bin/bin/../../lib/gcc/pic32c/13.2.1/../../../../pic32c/lib/thumb/v7e-m+dp/hard\libc-musl.a(__fmt_x.o)
 .bss           0x00000000        0x0 C:/Program Files/Microchip/xc32/v5.00/bin/bin/../../lib/gcc/pic32c/13.2.1/../../../../pic32c/lib/thumb/v7e-m+dp/hard\libc-musl.a(__fmt_x.o)
 .xc_stack_usage
                0x00000000       0x15 C:/Program Files/Microchip/xc32/v5.00/bin/bin/../../lib/gcc/pic32c/13.2.1/../../../../pic32c/lib/thumb/v7e-m+dp/hard\libc-musl.a(__fmt_x.o)
 .xc_stack_usage.hdr
                0x00000000        0xe C:/Program Files/Microchip/xc32/v5.00/bin/bin/../../lib/gcc/pic32c/13.2.1/../../../../pic32c/lib/thumb/v7e-m+dp/hard\libc-musl.a(__fmt_x.o)
 .text          0x00000000        0x0 C:/Program Files/Microchip/xc32/v5.00/bin/bin/../../lib/gcc/pic32c/13.2.1/../../../../pic32c/lib/thumb/v7e-m+dp/hard\libc-musl.a(__cvt_u.o)
 .data          0x00000000        0x0 C:/Program Files/Microchip/xc32/v5.00/bin/bin/../../lib/gcc/pic32c/13.2.1/../../../../pic32c/lib/thumb/v7e-m+dp/hard\libc-musl.a(__cvt_u.o)
 .bss           0x00000000        0x0 C:/Program Files/Microchip/xc32/v5.00/bin/bin/../../lib/gcc/pic32c/13.2.1/../../../../pic32c/lib/thumb/v7e-m+dp/hard\libc-musl.a(__cvt_u.o)
 .xc_stack_usage
                0x00000000       0x15 C:/Program Files/Microchip/xc32/v5.00/bin/bin/../../lib/gcc/pic32c/13.2.1/../../../../pic32c/lib/thumb/v7e-m+dp/hard\libc-musl.a(__cvt_u.o)
 .xc_stack_usage.hdr
                0x00000000        0xe C:/Program Files/Microchip/xc32/v5.00/bin/bin/../../lib/gcc/pic32c/13.2.1/../../../../pic32c/lib/thumb/v7e-m+dp/hard\libc-musl.a(__cvt_u.o)
 .xc_stack_usage.hdr
                0x00000000        0xe C:/Program Files/Microchip/xc32/v5.00/bin/bin/../../lib/gcc/pic32c/13.2.1/../../../../pic32c/lib/thumb/v7e-m+dp/hard\libm-fast-emfloat.a(floor.o)
 .xc_stack_usage
                0x00000000       0x13 C:/Program Files/Microchip/xc32/v5.00/bin/bin/../../lib/gcc/pic32c/13.2.1/../../../../pic32c/lib/thumb/v7e-m+dp/hard\libm-fast-emfloat.a(floor.o)
 .data          0x00000000        0x0 C:/Program Files/Microchip/xc32/v5.00/bin/bin/../../lib/gcc/pic32c/13.2.1/thumb/v7e-m+dp/hard\libgcc.a(_aeabi_uldivmod.o)
 .bss           0x00000000        0x0 C:/Program Files/Microchip/xc32/v5.00/bin/bin/../../lib/gcc/pic32c/13.2.1/thumb/v7e-m+dp/hard\libgcc.a(_aeabi_uldivmod.o)
 .xc_stack_usage.hdr
                0x00000000        0xe C:/Program Files/Microchip/xc32/v5.00/bin/bin/../../lib/gcc/pic32c/13.2.1/thumb/v7e-m+dp/hard\libgcc.a(_aeabi_uldivmod.o)
 .xc_stack_usage
                0x00000000       0x1e C:/Program Files/Microchip/xc32/v5.00/bin/bin/../../lib/gcc/pic32c/13.2.1/thumb/v7e-m+dp/hard\libgcc.a(_aeabi_uldivmod.o)
 .data          0x00000000        0x0 C:/Program Files/Microchip/xc32/v5.00/bin/bin/../../lib/gcc/pic32c/13.2.1/thumb/v7e-m+dp/hard\libgcc.a(_udivmoddi4.o)
 .bss           0x00000000        0x0 C:/Program Files/Microchip/xc32/v5.00/bin/bin/../../lib/gcc/pic32c/13.2.1/thumb/v7e-m+dp/hard\libgcc.a(_udivmoddi4.o)
 .xc_stack_usage
                0x00000000       0x1a C:/Program Files/Microchip/xc32/v5.00/bin/bin/../../lib/gcc/pic32c/13.2.1/thumb/v7e-m+dp/hard\libgcc.a(_udivmoddi4.o)
 .ARM.extab     0x00000000        0x0 C:/Program Files/Microchip/xc32/v5.00/bin/bin/../../lib/gcc/pic32c/13.2.1/thumb/v7e-m+dp/hard\libgcc.a(_udivmoddi4.o)
 .xc_stack_usage.hdr
                0x00000000        0xe C:/Program Files/Microchip/xc32/v5.00/bin/bin/../../lib/gcc/pic32c/13.2.1/thumb/v7e-m+dp/hard\libgcc.a(_udivmoddi4.o)
 .data          0x00000000        0x0 C:/Program Files/Microchip/xc32/v5.00/bin/bin/../../lib/gcc/pic32c/13.2.1/thumb/v7e-m+dp/hard\libgcc.a(_dvmd_tls.o)
 .bss           0x00000000        0x0 C:/Program Files/Microchip/xc32/v5.00/bin/bin/../../lib/gcc/pic32c/13.2.1/thumb/v7e-m+dp/hard\libgcc.a(_dvmd_tls.o)
 .xc_stack_usage.hdr
                0x00000000        0xe C:/Program Files/Microchip/xc32/v5.00/bin/bin/../../lib/gcc/pic32c/13.2.1/thumb/v7e-m+dp/hard\libgcc.a(_dvmd_tls.o)
 .xc_stack_usage
                0x00000000       0x36 C:/Program Files/Microchip/xc32/v5.00/bin/bin/../../lib/gcc/pic32c/13.2.1/thumb/v7e-m+dp/hard\libgcc.a(_dvmd_tls.o)
 .text          0x00000000        0x0 C:/Program Files/Microchip/xc32/v5.00/bin/bin/../../lib/gcc/pic32c/13.2.1/thumb/v7e-m+dp/hard/crtend.o
 .data          0x00000000        0x0 C:/Program Files/Microchip/xc32/v5.00/bin/bin/../../lib/gcc/pic32c/13.2.1/thumb/v7e-m+dp/hard/crtend.o
 .bss           0x00000000        0x0 C:/Program Files/Microchip/xc32/v5.00/bin/bin/../../lib/gcc/pic32c/13.2.1/thumb/v7e-m+dp/hard/crtend.o
 .rodata        0x00000000       0x24 C:/Program Files/Microchip/xc32/v5.00/bin/bin/../../lib/gcc/pic32c/13.2.1/thumb/v7e-m+dp/hard/crtend.o
 .eh_frame      0x00000000        0x4 C:/Program Files/Microchip/xc32/v5.00/bin/bin/../../lib/gcc/pic32c/13.2.1/thumb/v7e-m+dp/hard/crtend.o
 .xc_stack_usage.hdr
                0x00000000        0xe C:/Program Files/Microchip/xc32/v5.00/bin/bin/../../lib/gcc/pic32c/13.2.1/thumb/v7e-m+dp/hard/crtend.o
 .comment       0x00000000       0x36 C:/Program Files/Microchip/xc32/v5.00/bin/bin/../../lib/gcc/pic32c/13.2.1/thumb/v7e-m+dp/hard/crtend.o
 .ARM.attributes
                0x00000000       0x32 C:/Program Files/Microchip/xc32/v5.00/bin/bin/../../lib/gcc/pic32c/13.2.1/thumb/v7e-m+dp/hard/crtend.o
 .text          0x00000000        0x0 C:/Program Files/Microchip/xc32/v5.00/bin/bin/../../lib/gcc/pic32c/13.2.1/thumb/v7e-m+dp/hard/crtn.o
 .data          0x00000000        0x0 C:/Program Files/Microchip/xc32/v5.00/bin/bin/../../lib/gcc/pic32c/13.2.1/thumb/v7e-m+dp/hard/crtn.o
 .bss           0x00000000        0x0 C:/Program Files/Microchip/xc32/v5.00/bin/bin/../../lib/gcc/pic32c/13.2.1/thumb/v7e-m+dp/hard/crtn.o
 .xc_stack_usage.hdr
                0x00000000        0xe C:/Program Files/Microchip/xc32/v5.00/bin/bin/../../lib/gcc/pic32c/13.2.1/thumb/v7e-m+dp/hard/crtn.o
 .text          0x00000000        0x0 C:/Program Files/Microchip/xc32/v5.00/bin/bin/../../lib/gcc/pic32c/13.2.1/../../../../pic32c/lib/thumb/v7e-m+dp/hard\libpic32c.a(pic32_data_init_clear.o)
 .data          0x00000000        0x0 C:/Program Files/Microchip/xc32/v5.00/bin/bin/../../lib/gcc/pic32c/13.2.1/../../../../pic32c/lib/thumb/v7e-m+dp/hard\libpic32c.a(pic32_data_init_clear.o)
 .bss           0x00000000        0x0 C:/Program Files/Microchip/xc32/v5.00/bin/bin/../../lib/gcc/pic32c/13.2.1/../../../../pic32c/lib/thumb/v7e-m+dp/hard\libpic32c.a(pic32_data_init_clear.o)
 .xc_stack_usage
                0x00000000       0x1b C:/Program Files/Microchip/xc32/v5.00/bin/bin/../../lib/gcc/pic32c/13.2.1/../../../../pic32c/lib/thumb/v7e-m+dp/hard\libpic32c.a(pic32_data_init_clear.o)
 .xc_stack_usage.hdr
                0x00000000        0xe C:/Program Files/Microchip/xc32/v5.00/bin/bin/../../lib/gcc/pic32c/13.2.1/../../../../pic32c/lib/thumb/v7e-m+dp/hard\libpic32c.a(pic32_data_init_clear.o)
 .text          0x00000000        0x0 C:/Program Files/Microchip/xc32/v5.00/bin/bin/../../lib/gcc/pic32c/13.2.1/../../../../pic32c/lib/thumb/v7e-m+dp/hard\libpic32c.a(pic32_data_init_copy.o)
 .data          0x00000000        0x0 C:/Program Files/Microchip/xc32/v5.00/bin/bin/../../lib/gcc/pic32c/13.2.1/../../../../pic32c/lib/thumb/v7e-m+dp/hard\libpic32c.a(pic32_data_init_copy.o)
 .bss           0x00000000        0x0 C:/Program Files/Microchip/xc32/v5.00/bin/bin/../../lib/gcc/pic32c/13.2.1/../../../../pic32c/lib/thumb/v7e-m+dp/hard\libpic32c.a(pic32_data_init_copy.o)
 .xc_stack_usage
                0x00000000       0x1a C:/Program Files/Microchip/xc32/v5.00/bin/bin/../../lib/gcc/pic32c/13.2.1/../../../../pic32c/lib/thumb/v7e-m+dp/hard\libpic32c.a(pic32_data_init_copy.o)
 .xc_stack_usage.hdr
                0x00000000        0xe C:/Program Files/Microchip/xc32/v5.00/bin/bin/../../lib/gcc/pic32c/13.2.1/../../../../pic32c/lib/thumb/v7e-m+dp/hard\libpic32c.a(pic32_data_init_copy.o)

Memory Configuration

Name             Origin             Length             Attributes
rom              0x00400000         0x00200000         xrl
ram              0x20400000         0x00060000         xw!r
itcm             0x00000000         0x00000000         xw
dtcm             0x20000000         0x00000000         xw!r
*default*        0x00000000         0xffffffff

Linker script and memory map

LOAD C:/Program Files/Microchip/xc32/v5.00/bin/bin/../../lib/gcc/pic32c/13.2.1/thumb/v7e-m+dp/hard/crti.o
LOAD C:/Program Files/Microchip/xc32/v5.00/bin/bin/../../lib/gcc/pic32c/13.2.1/thumb/v7e-m+dp/hard/crtbegin.o
LOAD build/default/production/_ext/60165520/plib_clk.o
LOAD build/default/production/_ext/60167248/plib_efc.o
LOAD build/default/production/_ext/1865468468/plib_nvic.o
LOAD build/default/production/_ext/60177924/plib_pio.o
LOAD build/default/production/_ext/1827571544/plib_systick.o
LOAD build/default/production/_ext/829342655/plib_tc3.o
LOAD build/default/production/_ext/1865657120/plib_uart2.o
LOAD build/default/production/_ext/163028504/xc32_monitor.o
LOAD build/default/production/_ext/1171490990/initialization.o
LOAD build/default/production/_ext/1171490990/interrupts.o
LOAD build/default/production/_ext/1171490990/exceptions.o
LOAD build/default/production/_ext/1171490990/startup_xc32.o
LOAD build/default/production/_ext/1171490990/libc_syscalls.o
LOAD build/default/production/_ext/249897560/boot_manager.o
LOAD build/default/production/_ext/1778509306/os.o
LOAD build/default/production/_ext/1134253236/simple_shield.o
LOAD build/default/production/_ext/667517761/cli_command.o
LOAD build/default/production/_ext/818259185/cli_setup.o
LOAD build/default/production/_ext/1422079320/embedded_cli.o
LOAD build/default/production/_ext/216470852/uart_dma.o
LOAD build/default/production/_ext/216470852/uart_irq.o
LOAD build/default/production/_ext/1908456078/port.o
LOAD build/default/production/_ext/1562497596/heap_4.o
LOAD build/default/production/_ext/502845695/croutine.o
LOAD build/default/production/_ext/502845695/event_groups.o
LOAD build/default/production/_ext/502845695/list.o
LOAD build/default/production/_ext/502845695/queue.o
LOAD build/default/production/_ext/502845695/stream_buffer.o
LOAD build/default/production/_ext/502845695/tasks.o
LOAD build/default/production/_ext/502845695/timers.o
LOAD build/default/production/_ext/697864676/date_time.o
LOAD build/default/production/_ext/1260377903/ring_buffer.o
LOAD build/default/production/_ext/1226835810/tick.o
LOAD build/default/production/_ext/1360937237/ATSAMV71cm7_it.o
LOAD build/default/production/_ext/1360937237/main.o
LOAD build/default/production/_ext/30620426/app_cli.o
LOAD build/default/production/_ext/1525186148/app_alive.o
LOAD build/default/production/_ext/1026660007/app_root.o
LOAD build/default/production/_ext/1225992677/prnf.o
LOAD build/default/production/_ext/1918720202/app_logging.o
LOAD build/default/production/_ext/1798135708/dmesg.o
LOAD build/default/production/_ext/245638732/fast_ipc.o
LOAD build/default/production/_ext/751336192/xlog.o
LOAD build/default/production/_ext/1389938436/app_network.o
LOAD build/default/production/_ext/30602918/app_usb.o
LOAD build/default/production/_ext/783082040/board_api.o
LOAD build/default/production/_ext/783082040/usb_descriptors.o
LOAD build/default/production/_ext/2037418415/api_lib.o
LOAD build/default/production/_ext/2037418415/api_msg.o
LOAD build/default/production/_ext/2037418415/err.o
LOAD build/default/production/_ext/2037418415/if_api.o
LOAD build/default/production/_ext/2037418415/netbuf.o
LOAD build/default/production/_ext/2037418415/netdb.o
LOAD build/default/production/_ext/2037418415/netifapi.o
LOAD build/default/production/_ext/2037418415/sockets.o
LOAD build/default/production/_ext/2037418415/tcpip.o
LOAD build/default/production/_ext/790253312/altcp_tls_mbedtls.o
LOAD build/default/production/_ext/790253312/altcp_tls_mbedtls_mem.o
LOAD build/default/production/_ext/1037603290/altcp_proxyconnect.o
LOAD build/default/production/_ext/1037603290/fs.o
LOAD build/default/production/_ext/1037603290/httpd.o
LOAD build/default/production/_ext/1037603290/http_client.o
LOAD build/default/production/_ext/309140075/lwiperf.o
LOAD build/default/production/_ext/1037736686/mdns.o
LOAD build/default/production/_ext/1037749366/mqtt.o
LOAD build/default/production/_ext/581206725/netbiosns.o
LOAD build/default/production/_ext/1037924264/smtp.o
LOAD build/default/production/_ext/1037925008/snmpv3.o
LOAD build/default/production/_ext/1037925008/snmpv3_mbedtls.o
LOAD build/default/production/_ext/1037925008/snmp_asn1.o
LOAD build/default/production/_ext/1037925008/snmp_core.o
LOAD build/default/production/_ext/1037925008/snmp_mib2.o
LOAD build/default/production/_ext/1037925008/snmp_mib2_icmp.o
LOAD build/default/production/_ext/1037925008/snmp_mib2_interfaces.o
LOAD build/default/production/_ext/1037925008/snmp_mib2_ip.o
LOAD build/default/production/_ext/1037925008/snmp_mib2_snmp.o
LOAD build/default/production/_ext/1037925008/snmp_mib2_system.o
LOAD build/default/production/_ext/1037925008/snmp_mib2_tcp.o
LOAD build/default/production/_ext/1037925008/snmp_mib2_udp.o
LOAD build/default/production/_ext/1037925008/snmp_msg.o
LOAD build/default/production/_ext/1037925008/snmp_netconn.o
LOAD build/default/production/_ext/1037925008/snmp_pbuf_stream.o
LOAD build/default/production/_ext/1037925008/snmp_raw.o
LOAD build/default/production/_ext/1037925008/snmp_scalar.o
LOAD build/default/production/_ext/1037925008/snmp_snmpv2_framework.o
LOAD build/default/production/_ext/1037925008/snmp_snmpv2_usm.o
LOAD build/default/production/_ext/1037925008/snmp_table.o
LOAD build/default/production/_ext/1037925008/snmp_threadsync.o
LOAD build/default/production/_ext/1037925008/snmp_traps.o
LOAD build/default/production/_ext/1037925225/sntp.o
LOAD build/default/production/_ext/1037947328/tftp_server.o
LOAD build/default/production/_ext/1264479574/altcp.o
LOAD build/default/production/_ext/1264479574/altcp_alloc.o
LOAD build/default/production/_ext/1264479574/altcp_tcp.o
LOAD build/default/production/_ext/1264479574/def.o
LOAD build/default/production/_ext/1264479574/dns.o
LOAD build/default/production/_ext/1264479574/inet_chksum.o
LOAD build/default/production/_ext/1264479574/init.o
LOAD build/default/production/_ext/1264479574/ip.o
LOAD build/default/production/_ext/1349076522/autoip.o
LOAD build/default/production/_ext/1349076522/dhcp.o
LOAD build/default/production/_ext/1349076522/etharp.o
LOAD build/default/production/_ext/1349076522/icmp.o
LOAD build/default/production/_ext/1349076522/igmp.o
LOAD build/default/production/_ext/1349076522/ip4.o
LOAD build/default/production/_ext/1349076522/ip4_addr.o
LOAD build/default/production/_ext/1349076522/ip4_frag.o
LOAD build/default/production/_ext/1349076524/dhcp6.o
LOAD build/default/production/_ext/1349076524/ethip6.o
LOAD build/default/production/_ext/1349076524/icmp6.o
LOAD build/default/production/_ext/1349076524/inet6.o
LOAD build/default/production/_ext/1349076524/ip6.o
LOAD build/default/production/_ext/1349076524/ip6_addr.o
LOAD build/default/production/_ext/1349076524/ip6_frag.o
LOAD build/default/production/_ext/1349076524/mld6.o
LOAD build/default/production/_ext/1349076524/nd6.o
LOAD build/default/production/_ext/1264479574/mem.o
LOAD build/default/production/_ext/1264479574/memp.o
LOAD build/default/production/_ext/1264479574/netif.o
LOAD build/default/production/_ext/1264479574/pbuf.o
LOAD build/default/production/_ext/1264479574/raw.o
LOAD build/default/production/_ext/1264479574/stats.o
LOAD build/default/production/_ext/1264479574/sys.o
LOAD build/default/production/_ext/1264479574/tcp.o
LOAD build/default/production/_ext/1264479574/tcp_in.o
LOAD build/default/production/_ext/1264479574/tcp_out.o
LOAD build/default/production/_ext/1264479574/timeouts.o
LOAD build/default/production/_ext/1264479574/udp.o
LOAD build/default/production/_ext/534298161/bridgeif.o
LOAD build/default/production/_ext/534298161/bridgeif_fdb.o
LOAD build/default/production/_ext/534298161/ethernet.o
LOAD build/default/production/_ext/534298161/lowpan6.o
LOAD build/default/production/_ext/534298161/lowpan6_ble.o
LOAD build/default/production/_ext/534298161/lowpan6_common.o
LOAD build/default/production/_ext/337302064/auth.o
LOAD build/default/production/_ext/337302064/ccp.o
LOAD build/default/production/_ext/337302064/chap-md5.o
LOAD build/default/production/_ext/337302064/chap-new.o
LOAD build/default/production/_ext/337302064/chap_ms.o
LOAD build/default/production/_ext/337302064/demand.o
LOAD build/default/production/_ext/337302064/eap.o
LOAD build/default/production/_ext/337302064/ecp.o
LOAD build/default/production/_ext/337302064/eui64.o
LOAD build/default/production/_ext/337302064/fsm.o
LOAD build/default/production/_ext/337302064/ipcp.o
LOAD build/default/production/_ext/337302064/ipv6cp.o
LOAD build/default/production/_ext/337302064/lcp.o
LOAD build/default/production/_ext/337302064/magic.o
LOAD build/default/production/_ext/337302064/mppe.o
LOAD build/default/production/_ext/337302064/multilink.o
LOAD build/default/production/_ext/1316369165/arc4.o
LOAD build/default/production/_ext/1316369165/des.o
LOAD build/default/production/_ext/1316369165/md4.o
LOAD build/default/production/_ext/1316369165/md5.o
LOAD build/default/production/_ext/1316369165/sha1.o
LOAD build/default/production/_ext/337302064/ppp.o
LOAD build/default/production/_ext/337302064/pppapi.o
LOAD build/default/production/_ext/337302064/pppcrypt.o
LOAD build/default/production/_ext/337302064/pppoe.o
LOAD build/default/production/_ext/337302064/pppol2tp.o
LOAD build/default/production/_ext/337302064/pppos.o
LOAD build/default/production/_ext/337302064/upap.o
LOAD build/default/production/_ext/337302064/utils.o
LOAD build/default/production/_ext/337302064/vj.o
LOAD build/default/production/_ext/534298161/slipif.o
LOAD build/default/production/_ext/534298161/zepif.o
LOAD build/default/production/_ext/35151586/audio_device.o
LOAD build/default/production/_ext/1439067038/bth_device.o
LOAD build/default/production/_ext/1439066578/cdc_device.o
LOAD build/default/production/_ext/1439066578/cdc_host.o
LOAD build/default/production/_ext/1439065537/dfu_device.o
LOAD build/default/production/_ext/1439065537/dfu_rt_device.o
LOAD build/default/production/_ext/1439061617/hid_device.o
LOAD build/default/production/_ext/1439061617/hid_host.o
LOAD build/default/production/_ext/1661088107/midi_device.o
LOAD build/default/production/_ext/1661088107/midi_host.o
LOAD build/default/production/_ext/1439056503/msc_device.o
LOAD build/default/production/_ext/1439056503/msc_host.o
LOAD build/default/production/_ext/1439056459/mtp_device.o
LOAD build/default/production/_ext/1439055959/ecm_rndis_device.o
LOAD build/default/production/_ext/1439055959/ncm_device.o
LOAD build/default/production/_ext/1660386170/usbtmc_device.o
LOAD build/default/production/_ext/1676428220/vendor_device.o
LOAD build/default/production/_ext/1676428220/vendor_host.o
LOAD build/default/production/_ext/54187911/video_device.o
LOAD build/default/production/_ext/761407912/tusb_fifo.o
LOAD build/default/production/_ext/781065747/usbd.o
LOAD build/default/production/_ext/781065747/usbd_control.o
LOAD build/default/production/_ext/832225445/hub.o
LOAD build/default/production/_ext/832225445/usbh.o
LOAD build/default/production/_ext/1815088828/hcd_max3421.o
LOAD build/default/production/_ext/256384106/dcd_ft9xx.o
LOAD build/default/production/_ext/876141423/dcd_ci_fs.o
LOAD build/default/production/_ext/876141361/dcd_ci_hs.o
LOAD build/default/production/_ext/876141361/hcd_ci_hs.o
LOAD build/default/production/_ext/1992673882/dcd_da146xx.o
LOAD build/default/production/_ext/1432889888/ehci.o
LOAD build/default/production/_ext/2010713650/dcd_musb.o
LOAD build/default/production/_ext/2010713650/hcd_musb.o
LOAD build/default/production/_ext/2093936272/dcd_samx7x.o
LOAD build/default/production/_ext/1756924143/dcd_mm32f327x_otg.o
LOAD build/default/production/_ext/1501477850/dcd_nrf5x.o
LOAD build/default/production/_ext/144572742/dcd_nuc120.o
LOAD build/default/production/_ext/144572743/dcd_nuc121.o
LOAD build/default/production/_ext/144576529/dcd_nuc505.o
LOAD build/default/production/_ext/1148959389/dcd_khci.o
LOAD build/default/production/_ext/1148959389/hcd_khci.o
LOAD build/default/production/_ext/929376790/dcd_lpc17_40.o
LOAD build/default/production/_ext/899472023/dcd_lpc_ip3511.o
LOAD build/default/production/_ext/1433187798/ohci.o
LOAD build/default/production/_ext/1136298024/dcd_pio_usb.o
LOAD build/default/production/_ext/1136298024/hcd_pio_usb.o
LOAD build/default/production/_ext/163751003/dcd_rp2040.o
LOAD build/default/production/_ext/163751003/hcd_rp2040.o
LOAD build/default/production/_ext/163751003/rp2040_usb.o
LOAD build/default/production/_ext/2134692843/dcd_rusb2.o
LOAD build/default/production/_ext/2134692843/hcd_rusb2.o
LOAD build/default/production/_ext/2134692843/rusb2_common.o
LOAD build/default/production/_ext/1900358881/dcd_cxd56.o
LOAD build/default/production/_ext/530468573/dcd_stm32_fsdev.o
LOAD build/default/production/_ext/530468573/fsdev_common.o
LOAD build/default/production/_ext/530468573/hcd_stm32_fsdev.o
LOAD build/default/production/_ext/2076636782/typec_stm32.o
LOAD build/default/production/_ext/1483241286/dcd_sunxi_musb.o
LOAD build/default/production/_ext/758874186/dcd_dwc2.o
LOAD build/default/production/_ext/758874186/dwc2_common.o
LOAD build/default/production/_ext/758874186/hcd_dwc2.o
LOAD build/default/production/_ext/1009432273/dcd_template.o
LOAD build/default/production/_ext/1009432273/hcd_template.o
LOAD build/default/production/_ext/1890701145/dcd_msp430x5xx.o
LOAD build/default/production/_ext/981558915/dcd_eptri.o
LOAD build/default/production/_ext/2124449381/dcd_ch32_usbfs.o
LOAD build/default/production/_ext/2124449381/dcd_ch32_usbhs.o
LOAD build/default/production/_ext/2124449381/hcd_ch32_usbfs.o
LOAD build/default/production/_ext/1119931634/tusb.o
LOAD build/default/production/_ext/40561932/usbc.o
LOAD build/default/production/_ext/1017385999/sys_arch.o
                0x00000001                        __MPLAB_BUILD = 0x1
                0x00600000                        __rom_end = (ORIGIN (rom) + LENGTH (rom))
                0x20460000                        __ram_end = (ORIGIN (ram) + LENGTH (ram))

.vectors        0x00400000      0x168
                0x00400000                        . = ALIGN (0x4)
                0x00400000                        _sfixed = .
 *(.vectors .vectors.* .vectors_default .vectors_default.*)
 .vectors       0x00400000      0x168 build/default/production/_ext/1171490990/interrupts.o
                0x00400000                exception_table
 *(.isr_vector)
 *(.reset*)
 *(.after_vectors)

.text           0x00400168       0x20
                0x00400168                        . = ALIGN (0x4)
 *(.glue_7t)
 .glue_7t       0x00400168        0x0 linker stubs
 *(.glue_7)
 .glue_7        0x00400168        0x0 linker stubs
 *(.gnu.linkonce.r.*)
 *(.ARM.extab* .gnu.linkonce.armextab.*)
                0x00400168                        . = ALIGN (0x4)
 *(.init)
 .init          0x00400168        0x4 C:/Program Files/Microchip/xc32/v5.00/bin/bin/../../lib/gcc/pic32c/13.2.1/thumb/v7e-m+dp/hard/crti.o
                0x00400168                _init
 .init          0x0040016c        0x8 C:/Program Files/Microchip/xc32/v5.00/bin/bin/../../lib/gcc/pic32c/13.2.1/thumb/v7e-m+dp/hard/crtn.o
                0x00400174                        . = ALIGN (0x4)
                0x00400174                        __preinit_array_start = .
 *(.preinit_array)
                0x00400174                        __preinit_array_end = .
                0x00400174                        . = ALIGN (0x4)
                0x00400174                        __init_array_start = .
 *(SORT_BY_NAME(.init_array.*))
 *(.init_array)
 .init_array    0x00400174        0x4 C:/Program Files/Microchip/xc32/v5.00/bin/bin/../../lib/gcc/pic32c/13.2.1/thumb/v7e-m+dp/hard/crtbegin.o
                0x00400178                        __init_array_end = .
                0x00400178                        . = ALIGN (0x4)
 *crtbegin.o(.ctors)
 *(EXCLUDE_FILE(*crtend.o) .ctors)
 *(SORT_BY_NAME(.ctors.*))
 *crtend.o(.ctors)
                0x00400178                        . = ALIGN (0x4)
 *(.fini)
 .fini          0x00400178        0x4 C:/Program Files/Microchip/xc32/v5.00/bin/bin/../../lib/gcc/pic32c/13.2.1/thumb/v7e-m+dp/hard/crti.o
                0x00400178                _fini
 .fini          0x0040017c        0x8 C:/Program Files/Microchip/xc32/v5.00/bin/bin/../../lib/gcc/pic32c/13.2.1/thumb/v7e-m+dp/hard/crtn.o
                0x00400184                        . = ALIGN (0x4)
                0x00400184                        __fini_array_start = .
 *(.fini_array)
 .fini_array    0x00400184        0x4 C:/Program Files/Microchip/xc32/v5.00/bin/bin/../../lib/gcc/pic32c/13.2.1/thumb/v7e-m+dp/hard/crtbegin.o
 *(SORT_BY_NAME(.fini_array.*))
                0x00400188                        __fini_array_end = .
 *crtbegin.o(.dtors)
 *(EXCLUDE_FILE(*crtend.o) .dtors)
 *(SORT_BY_NAME(.dtors.*))
 *crtend.o(.dtors)
                0x00400188                        . = ALIGN (0x4)
                0x00400188                        _efixed = .
                [!provide]                        PROVIDE (__exidx_start = .)

.ARM.exidx      0x00400188        0x8
 *(.ARM.exidx* .gnu.linkonce.armexidx.*)
 .ARM.exidx     0x00400188        0x8 C:/Program Files/Microchip/xc32/v5.00/bin/bin/../../lib/gcc/pic32c/13.2.1/thumb/v7e-m+dp/hard\libgcc.a(_udivmoddi4.o)
                [!provide]                        PROVIDE (__exidx_end = .)
                0x00400190                        . = ALIGN (0x4)
                0x00400190                        _etext = .

.bss            0x20400000        0x0
                0x20400000                        . = ALIGN (0x4)
                0x20400000                        __bss_start__ = .
                0x20400000                        _sbss = .
                0x20400000                        _szero = .
 *(COMMON)
                0x20400000                        . = ALIGN (0x4)
                0x20400000                        __bss_end__ = .
                0x20400000                        _ebss = .
                0x20400000                        _ezero = .
                0x20400000                        . = ALIGN (0x4)
                0x20400000                        _end = .
                0x2045ffff                        _ram_end_ = ((ORIGIN (ram) + LENGTH (ram)) - 0x1)
                0x00000200                        _min_heap_size = 0x200
START GROUP
LOAD C:/Program Files/Microchip/xc32/v5.00/bin/bin/../../lib/gcc/pic32c/13.2.1/../../../../pic32c/lib/thumb/v7e-m+dp/hard\libpic32c.a
LOAD C:/Program Files/Microchip/xc32/v5.00/bin/bin/../../lib/gcc/pic32c/13.2.1/../../../../pic32c/lib/thumb/v7e-m+dp/hard\libc-size-musl.a
LOAD C:/Program Files/Microchip/xc32/v5.00/bin/bin/../../lib/gcc/pic32c/13.2.1/../../../../pic32c/lib/thumb/v7e-m+dp/hard\liblmalloc-musl.a
LOAD C:/Program Files/Microchip/xc32/v5.00/bin/bin/../../lib/gcc/pic32c/13.2.1/../../../../pic32c/lib/thumb/v7e-m+dp/hard\libc-musl.a
LOAD C:/Program Files/Microchip/xc32/v5.00/bin/bin/../../lib/gcc/pic32c/13.2.1/../../../../pic32c/lib/thumb/v7e-m+dp/hard\libm-fast-emfloat.a
LOAD C:/Program Files/Microchip/xc32/v5.00/bin/bin/../../lib/gcc/pic32c/13.2.1/../../../../pic32c/lib/thumb/v7e-m+dp/hard\libm-musl.a
END GROUP
LOAD C:/Program Files/Microchip/xc32/v5.00/bin/bin/../../lib/gcc/pic32c/13.2.1/thumb/v7e-m+dp/hard\libgcc.a
LOAD C:/Program Files/Microchip/xc32/v5.00/bin/bin/../../lib/gcc/pic32c/13.2.1/thumb/v7e-m+dp/hard/crtend.o
LOAD C:/Program Files/Microchip/xc32/v5.00/bin/bin/../../lib/gcc/pic32c/13.2.1/thumb/v7e-m+dp/hard/crtn.o
OUTPUT(dist/default/production/03_FreeRTOS.X.production.elf elf32-littlearm)
LOAD linker stubs
LOAD data_init

.note           0x00000000     0x1bc0
 .note          0x00000000       0x18 C:/Program Files/Microchip/xc32/v5.00/bin/bin/../../lib/gcc/pic32c/13.2.1/thumb/v7e-m+dp/hard/crti.o
 .note          0x00000018       0x18 C:/Program Files/Microchip/xc32/v5.00/bin/bin/../../lib/gcc/pic32c/13.2.1/thumb/v7e-m+dp/hard/crtbegin.o
 .note          0x00000030       0x18 build/default/production/_ext/60165520/plib_clk.o
 .note          0x00000048       0x18 build/default/production/_ext/60167248/plib_efc.o
 .note          0x00000060       0x18 build/default/production/_ext/1865468468/plib_nvic.o
 .note          0x00000078       0x18 build/default/production/_ext/60177924/plib_pio.o
 .note          0x00000090       0x18 build/default/production/_ext/1827571544/plib_systick.o
 .note          0x000000a8       0x18 build/default/production/_ext/829342655/plib_tc3.o
 .note          0x000000c0       0x18 build/default/production/_ext/1865657120/plib_uart2.o
 .note          0x000000d8       0x18 build/default/production/_ext/163028504/xc32_monitor.o
 .note          0x000000f0       0x48 build/default/production/_ext/1171490990/initialization.o
 .note          0x00000138       0x18 build/default/production/_ext/1171490990/interrupts.o
 .note          0x00000150       0x18 build/default/production/_ext/1171490990/exceptions.o
 .note          0x00000168       0x18 build/default/production/_ext/1171490990/startup_xc32.o
 .note          0x00000180       0x18 build/default/production/_ext/1171490990/libc_syscalls.o
 .note          0x00000198       0x18 build/default/production/_ext/249897560/boot_manager.o
 .note          0x000001b0       0x18 build/default/production/_ext/1778509306/os.o
 .note          0x000001c8       0x18 build/default/production/_ext/1134253236/simple_shield.o
 .note          0x000001e0       0x18 build/default/production/_ext/667517761/cli_command.o
 .note          0x000001f8       0x18 build/default/production/_ext/818259185/cli_setup.o
 .note          0x00000210       0x18 build/default/production/_ext/1422079320/embedded_cli.o
 .note          0x00000228       0x18 build/default/production/_ext/216470852/uart_dma.o
 .note          0x00000240       0x18 build/default/production/_ext/216470852/uart_irq.o
 .note          0x00000258       0x18 build/default/production/_ext/1908456078/port.o
 .note          0x00000270       0x18 build/default/production/_ext/1562497596/heap_4.o
 .note          0x00000288       0x18 build/default/production/_ext/502845695/croutine.o
 .note          0x000002a0       0x18 build/default/production/_ext/502845695/event_groups.o
 .note          0x000002b8       0x18 build/default/production/_ext/502845695/list.o
 .note          0x000002d0       0x18 build/default/production/_ext/502845695/queue.o
 .note          0x000002e8       0x18 build/default/production/_ext/502845695/stream_buffer.o
 .note          0x00000300       0x18 build/default/production/_ext/502845695/tasks.o
 .note          0x00000318       0x18 build/default/production/_ext/502845695/timers.o
 .note          0x00000330       0x18 build/default/production/_ext/697864676/date_time.o
 .note          0x00000348       0x18 build/default/production/_ext/1260377903/ring_buffer.o
 .note          0x00000360       0x18 build/default/production/_ext/1226835810/tick.o
 .note          0x00000378       0x18 build/default/production/_ext/1360937237/ATSAMV71cm7_it.o
 .note          0x00000390       0x18 build/default/production/_ext/1360937237/main.o
 .note          0x000003a8       0x18 build/default/production/_ext/30620426/app_cli.o
 .note          0x000003c0       0x18 build/default/production/_ext/1525186148/app_alive.o
 .note          0x000003d8       0x18 build/default/production/_ext/1026660007/app_root.o
 .note          0x000003f0       0x18 build/default/production/_ext/1225992677/prnf.o
 .note          0x00000408       0x18 build/default/production/_ext/1918720202/app_logging.o
 .note          0x00000420       0x18 build/default/production/_ext/1798135708/dmesg.o
 .note          0x00000438       0x18 build/default/production/_ext/245638732/fast_ipc.o
 .note          0x00000450       0x18 build/default/production/_ext/751336192/xlog.o
 .note          0x00000468       0x18 build/default/production/_ext/1389938436/app_network.o
 .note          0x00000480       0x18 build/default/production/_ext/30602918/app_usb.o
 .note          0x00000498       0x18 build/default/production/_ext/783082040/board_api.o
 .note          0x000004b0       0x18 build/default/production/_ext/783082040/usb_descriptors.o
 .note          0x000004c8       0x18 build/default/production/_ext/2037418415/api_lib.o
 .note          0x000004e0       0x18 build/default/production/_ext/2037418415/api_msg.o
 .note          0x000004f8       0x18 build/default/production/_ext/2037418415/err.o
 .note          0x00000510       0x18 build/default/production/_ext/2037418415/if_api.o
 .note          0x00000528       0x18 build/default/production/_ext/2037418415/netbuf.o
 .note          0x00000540       0x18 build/default/production/_ext/2037418415/netdb.o
 .note          0x00000558       0x18 build/default/production/_ext/2037418415/netifapi.o
 .note          0x00000570       0x18 build/default/production/_ext/2037418415/sockets.o
 .note          0x00000588       0x18 build/default/production/_ext/2037418415/tcpip.o
 .note          0x000005a0       0x18 build/default/production/_ext/790253312/altcp_tls_mbedtls.o
 .note          0x000005b8       0x18 build/default/production/_ext/790253312/altcp_tls_mbedtls_mem.o
 .note          0x000005d0       0x18 build/default/production/_ext/1037603290/altcp_proxyconnect.o
 .note          0x000005e8       0x18 build/default/production/_ext/1037603290/fs.o
 .note          0x00000600       0x18 build/default/production/_ext/1037603290/httpd.o
 .note          0x00000618       0x18 build/default/production/_ext/1037603290/http_client.o
 .note          0x00000630       0x18 build/default/production/_ext/309140075/lwiperf.o
 .note          0x00000648       0x18 build/default/production/_ext/1037736686/mdns.o
 .note          0x00000660       0x18 build/default/production/_ext/1037749366/mqtt.o
 .note          0x00000678       0x18 build/default/production/_ext/581206725/netbiosns.o
 .note          0x00000690       0x18 build/default/production/_ext/1037924264/smtp.o
 .note          0x000006a8       0x18 build/default/production/_ext/1037925008/snmpv3.o
 .note          0x000006c0       0x18 build/default/production/_ext/1037925008/snmpv3_mbedtls.o
 .note          0x000006d8       0x18 build/default/production/_ext/1037925008/snmp_asn1.o
 .note          0x000006f0       0x18 build/default/production/_ext/1037925008/snmp_core.o
 .note          0x00000708       0x18 build/default/production/_ext/1037925008/snmp_mib2.o
 .note          0x00000720       0x18 build/default/production/_ext/1037925008/snmp_mib2_icmp.o
 .note          0x00000738       0x18 build/default/production/_ext/1037925008/snmp_mib2_interfaces.o
 .note          0x00000750       0x18 build/default/production/_ext/1037925008/snmp_mib2_ip.o
 .note          0x00000768       0x18 build/default/production/_ext/1037925008/snmp_mib2_snmp.o
 .note          0x00000780       0x18 build/default/production/_ext/1037925008/snmp_mib2_system.o
 .note          0x00000798       0x18 build/default/production/_ext/1037925008/snmp_mib2_tcp.o
 .note          0x000007b0       0x18 build/default/production/_ext/1037925008/snmp_mib2_udp.o
 .note          0x000007c8       0x18 build/default/production/_ext/1037925008/snmp_msg.o
 .note          0x000007e0       0x18 build/default/production/_ext/1037925008/snmp_netconn.o
 .note          0x000007f8       0x18 build/default/production/_ext/1037925008/snmp_pbuf_stream.o
 .note          0x00000810       0x18 build/default/production/_ext/1037925008/snmp_raw.o
 .note          0x00000828       0x18 build/default/production/_ext/1037925008/snmp_scalar.o
 .note          0x00000840       0x18 build/default/production/_ext/1037925008/snmp_snmpv2_framework.o
 .note          0x00000858       0x18 build/default/production/_ext/1037925008/snmp_snmpv2_usm.o
 .note          0x00000870       0x18 build/default/production/_ext/1037925008/snmp_table.o
 .note          0x00000888       0x18 build/default/production/_ext/1037925008/snmp_threadsync.o
 .note          0x000008a0       0x18 build/default/production/_ext/1037925008/snmp_traps.o
 .note          0x000008b8       0x18 build/default/production/_ext/1037925225/sntp.o
 .note          0x000008d0       0x18 build/default/production/_ext/1037947328/tftp_server.o
 .note          0x000008e8       0x18 build/default/production/_ext/1264479574/altcp.o
 .note          0x00000900       0x18 build/default/production/_ext/1264479574/altcp_alloc.o
 .note          0x00000918       0x18 build/default/production/_ext/1264479574/altcp_tcp.o
 .note          0x00000930       0x18 build/default/production/_ext/1264479574/def.o
 .note          0x00000948       0x18 build/default/production/_ext/1264479574/dns.o
 .note          0x00000960       0x18 build/default/production/_ext/1264479574/inet_chksum.o
 .note          0x00000978       0x18 build/default/production/_ext/1264479574/init.o
 .note          0x00000990       0x18 build/default/production/_ext/1264479574/ip.o
 .note          0x000009a8       0x18 build/default/production/_ext/1349076522/autoip.o
 .note          0x000009c0       0x18 build/default/production/_ext/1349076522/dhcp.o
 .note          0x000009d8       0x18 build/default/production/_ext/1349076522/etharp.o
 .note          0x000009f0       0x18 build/default/production/_ext/1349076522/icmp.o
 .note          0x00000a08       0x18 build/default/production/_ext/1349076522/igmp.o
 .note          0x00000a20       0x18 build/default/production/_ext/1349076522/ip4.o
 .note          0x00000a38       0x18 build/default/production/_ext/1349076522/ip4_addr.o
 .note          0x00000a50       0x18 build/default/production/_ext/1349076522/ip4_frag.o
 .note          0x00000a68       0x18 build/default/production/_ext/1349076524/dhcp6.o
 .note          0x00000a80       0x18 build/default/production/_ext/1349076524/ethip6.o
 .note          0x00000a98       0x18 build/default/production/_ext/1349076524/icmp6.o
 .note          0x00000ab0       0x18 build/default/production/_ext/1349076524/inet6.o
 .note          0x00000ac8       0x18 build/default/production/_ext/1349076524/ip6.o
 .note          0x00000ae0       0x18 build/default/production/_ext/1349076524/ip6_addr.o
 .note          0x00000af8       0x18 build/default/production/_ext/1349076524/ip6_frag.o
 .note          0x00000b10       0x18 build/default/production/_ext/1349076524/mld6.o
 .note          0x00000b28       0x18 build/default/production/_ext/1349076524/nd6.o
 .note          0x00000b40       0x18 build/default/production/_ext/1264479574/mem.o
 .note          0x00000b58       0x18 build/default/production/_ext/1264479574/memp.o
 .note          0x00000b70       0x18 build/default/production/_ext/1264479574/netif.o
 .note          0x00000b88       0x18 build/default/production/_ext/1264479574/pbuf.o
 .note          0x00000ba0       0x18 build/default/production/_ext/1264479574/raw.o
 .note          0x00000bb8       0x18 build/default/production/_ext/1264479574/stats.o
 .note          0x00000bd0       0x18 build/default/production/_ext/1264479574/sys.o
 .note          0x00000be8       0x18 build/default/production/_ext/1264479574/tcp.o
 .note          0x00000c00       0x18 build/default/production/_ext/1264479574/tcp_in.o
 .note          0x00000c18       0x18 build/default/production/_ext/1264479574/tcp_out.o
 .note          0x00000c30       0x18 build/default/production/_ext/1264479574/timeouts.o
 .note          0x00000c48       0x18 build/default/production/_ext/1264479574/udp.o
 .note          0x00000c60       0x18 build/default/production/_ext/534298161/bridgeif.o
 .note          0x00000c78       0x18 build/default/production/_ext/534298161/bridgeif_fdb.o
 .note          0x00000c90       0x18 build/default/production/_ext/534298161/ethernet.o
 .note          0x00000ca8       0x18 build/default/production/_ext/534298161/lowpan6.o
 .note          0x00000cc0       0x18 build/default/production/_ext/534298161/lowpan6_ble.o
 .note          0x00000cd8       0x18 build/default/production/_ext/534298161/lowpan6_common.o
 .note          0x00000cf0       0x18 build/default/production/_ext/337302064/auth.o
 .note          0x00000d08       0x18 build/default/production/_ext/337302064/ccp.o
 .note          0x00000d20       0x18 build/default/production/_ext/337302064/chap-md5.o
 .note          0x00000d38       0x18 build/default/production/_ext/337302064/chap-new.o
 .note          0x00000d50       0x18 build/default/production/_ext/337302064/chap_ms.o
 .note          0x00000d68       0x18 build/default/production/_ext/337302064/demand.o
 .note          0x00000d80       0x18 build/default/production/_ext/337302064/eap.o
 .note          0x00000d98       0x18 build/default/production/_ext/337302064/ecp.o
 .note          0x00000db0       0x18 build/default/production/_ext/337302064/eui64.o
 .note          0x00000dc8       0x18 build/default/production/_ext/337302064/fsm.o
 .note          0x00000de0       0x18 build/default/production/_ext/337302064/ipcp.o
 .note          0x00000df8       0x18 build/default/production/_ext/337302064/ipv6cp.o
 .note          0x00000e10       0x18 build/default/production/_ext/337302064/lcp.o
 .note          0x00000e28       0x18 build/default/production/_ext/337302064/magic.o
 .note          0x00000e40       0x18 build/default/production/_ext/337302064/mppe.o
 .note          0x00000e58       0x18 build/default/production/_ext/337302064/multilink.o
 .note          0x00000e70       0x18 build/default/production/_ext/1316369165/arc4.o
 .note          0x00000e88       0x18 build/default/production/_ext/1316369165/des.o
 .note          0x00000ea0       0x18 build/default/production/_ext/1316369165/md4.o
 .note          0x00000eb8       0x18 build/default/production/_ext/1316369165/md5.o
 .note          0x00000ed0       0x18 build/default/production/_ext/1316369165/sha1.o
 .note          0x00000ee8       0x18 build/default/production/_ext/337302064/ppp.o
 .note          0x00000f00       0x18 build/default/production/_ext/337302064/pppapi.o
 .note          0x00000f18       0x18 build/default/production/_ext/337302064/pppcrypt.o
 .note          0x00000f30       0x18 build/default/production/_ext/337302064/pppoe.o
 .note          0x00000f48       0x18 build/default/production/_ext/337302064/pppol2tp.o
 .note          0x00000f60       0x18 build/default/production/_ext/337302064/pppos.o
 .note          0x00000f78       0x18 build/default/production/_ext/337302064/upap.o
 .note          0x00000f90       0x18 build/default/production/_ext/337302064/utils.o
 .note          0x00000fa8       0x18 build/default/production/_ext/337302064/vj.o
 .note          0x00000fc0       0x18 build/default/production/_ext/534298161/slipif.o
 .note          0x00000fd8       0x18 build/default/production/_ext/534298161/zepif.o
 .note          0x00000ff0       0x18 build/default/production/_ext/35151586/audio_device.o
 .note          0x00001008       0x18 build/default/production/_ext/1439067038/bth_device.o
 .note          0x00001020       0x18 build/default/production/_ext/1439066578/cdc_device.o
 .note          0x00001038       0x18 build/default/production/_ext/1439066578/cdc_host.o
 .note          0x00001050       0x18 build/default/production/_ext/1439065537/dfu_device.o
 .note          0x00001068       0x18 build/default/production/_ext/1439065537/dfu_rt_device.o
 .note          0x00001080       0x18 build/default/production/_ext/1439061617/hid_device.o
 .note          0x00001098       0x18 build/default/production/_ext/1439061617/hid_host.o
 .note          0x000010b0       0x18 build/default/production/_ext/1661088107/midi_device.o
 .note          0x000010c8       0x18 build/default/production/_ext/1661088107/midi_host.o
 .note          0x000010e0       0x18 build/default/production/_ext/1439056503/msc_device.o
 .note          0x000010f8       0x18 build/default/production/_ext/1439056503/msc_host.o
 .note          0x00001110       0x18 build/default/production/_ext/1439056459/mtp_device.o
 .note          0x00001128       0x18 build/default/production/_ext/1439055959/ecm_rndis_device.o
 .note          0x00001140       0x18 build/default/production/_ext/1439055959/ncm_device.o
 .note          0x00001158       0x18 build/default/production/_ext/1660386170/usbtmc_device.o
 .note          0x00001170       0x18 build/default/production/_ext/1676428220/vendor_device.o
 .note          0x00001188       0x18 build/default/production/_ext/1676428220/vendor_host.o
 .note          0x000011a0       0x18 build/default/production/_ext/54187911/video_device.o
 .note          0x000011b8       0x18 build/default/production/_ext/761407912/tusb_fifo.o
 .note          0x000011d0       0x18 build/default/production/_ext/781065747/usbd.o
 .note          0x000011e8       0x18 build/default/production/_ext/781065747/usbd_control.o
 .note          0x00001200       0x18 build/default/production/_ext/832225445/hub.o
 .note          0x00001218       0x18 build/default/production/_ext/832225445/usbh.o
 .note          0x00001230       0x18 build/default/production/_ext/1815088828/hcd_max3421.o
 .note          0x00001248       0x18 build/default/production/_ext/256384106/dcd_ft9xx.o
 .note          0x00001260       0x18 build/default/production/_ext/876141423/dcd_ci_fs.o
 .note          0x00001278       0x18 build/default/production/_ext/876141361/dcd_ci_hs.o
 .note          0x00001290       0x18 build/default/production/_ext/876141361/hcd_ci_hs.o
 .note          0x000012a8       0x18 build/default/production/_ext/1992673882/dcd_da146xx.o
 .note          0x000012c0       0x18 build/default/production/_ext/1432889888/ehci.o
 .note          0x000012d8       0x18 build/default/production/_ext/2010713650/dcd_musb.o
 .note          0x000012f0       0x18 build/default/production/_ext/2010713650/hcd_musb.o
 .note          0x00001308       0x18 build/default/production/_ext/2093936272/dcd_samx7x.o
 .note          0x00001320       0x18 build/default/production/_ext/1756924143/dcd_mm32f327x_otg.o
 .note          0x00001338       0x18 build/default/production/_ext/1501477850/dcd_nrf5x.o
 .note          0x00001350       0x18 build/default/production/_ext/144572742/dcd_nuc120.o
 .note          0x00001368       0x18 build/default/production/_ext/144572743/dcd_nuc121.o
 .note          0x00001380       0x18 build/default/production/_ext/144576529/dcd_nuc505.o
 .note          0x00001398       0x18 build/default/production/_ext/1148959389/dcd_khci.o
 .note          0x000013b0       0x18 build/default/production/_ext/1148959389/hcd_khci.o
 .note          0x000013c8       0x18 build/default/production/_ext/929376790/dcd_lpc17_40.o
 .note          0x000013e0       0x18 build/default/production/_ext/899472023/dcd_lpc_ip3511.o
 .note          0x000013f8       0x18 build/default/production/_ext/1433187798/ohci.o
 .note          0x00001410       0x18 build/default/production/_ext/1136298024/dcd_pio_usb.o
 .note          0x00001428       0x18 build/default/production/_ext/1136298024/hcd_pio_usb.o
 .note          0x00001440       0x18 build/default/production/_ext/163751003/dcd_rp2040.o
 .note          0x00001458       0x18 build/default/production/_ext/163751003/hcd_rp2040.o
 .note          0x00001470       0x18 build/default/production/_ext/163751003/rp2040_usb.o
 .note          0x00001488       0x18 build/default/production/_ext/2134692843/dcd_rusb2.o
 .note          0x000014a0       0x18 build/default/production/_ext/2134692843/hcd_rusb2.o
 .note          0x000014b8       0x18 build/default/production/_ext/2134692843/rusb2_common.o
 .note          0x000014d0       0x18 build/default/production/_ext/1900358881/dcd_cxd56.o
 .note          0x000014e8       0x18 build/default/production/_ext/530468573/dcd_stm32_fsdev.o
 .note          0x00001500       0x18 build/default/production/_ext/530468573/fsdev_common.o
 .note          0x00001518       0x18 build/default/production/_ext/530468573/hcd_stm32_fsdev.o
 .note          0x00001530       0x18 build/default/production/_ext/2076636782/typec_stm32.o
 .note          0x00001548       0x18 build/default/production/_ext/1483241286/dcd_sunxi_musb.o
 .note          0x00001560       0x18 build/default/production/_ext/758874186/dcd_dwc2.o
 .note          0x00001578       0x18 build/default/production/_ext/758874186/dwc2_common.o
 .note          0x00001590       0x18 build/default/production/_ext/758874186/hcd_dwc2.o
 .note          0x000015a8       0x18 build/default/production/_ext/1009432273/dcd_template.o
 .note          0x000015c0       0x18 build/default/production/_ext/1009432273/hcd_template.o
 .note          0x000015d8       0x18 build/default/production/_ext/1890701145/dcd_msp430x5xx.o
 .note          0x000015f0       0x18 build/default/production/_ext/981558915/dcd_eptri.o
 .note          0x00001608       0x18 build/default/production/_ext/2124449381/dcd_ch32_usbfs.o
 .note          0x00001620       0x18 build/default/production/_ext/2124449381/dcd_ch32_usbhs.o
 .note          0x00001638       0x18 build/default/production/_ext/2124449381/hcd_ch32_usbfs.o
 .note          0x00001650       0x18 build/default/production/_ext/1119931634/tusb.o
 .note          0x00001668       0x18 build/default/production/_ext/40561932/usbc.o
 .note          0x00001680       0x18 build/default/production/_ext/1017385999/sys_arch.o
 .note          0x00001698       0x18 C:/Program Files/Microchip/xc32/v5.00/bin/bin/../../lib/gcc/pic32c/13.2.1/../../../../pic32c/lib/thumb/v7e-m+dp/hard\libpic32c.a(data_init.o)
 .note          0x000016b0       0x18 C:/Program Files/Microchip/xc32/v5.00/bin/bin/../../lib/gcc/pic32c/13.2.1/../../../../pic32c/lib/thumb/v7e-m+dp/hard\libpic32c.a(_write.o)
 .note          0x000016c8       0x18 C:/Program Files/Microchip/xc32/v5.00/bin/bin/../../lib/gcc/pic32c/13.2.1/../../../../pic32c/lib/thumb/v7e-m+dp/hard\libc-size-musl.a(memcmp.o)
 .note          0x000016e0       0x18 C:/Program Files/Microchip/xc32/v5.00/bin/bin/../../lib/gcc/pic32c/13.2.1/../../../../pic32c/lib/thumb/v7e-m+dp/hard\libc-size-musl.a(memcpy.o)
 .note          0x000016f8       0x18 C:/Program Files/Microchip/xc32/v5.00/bin/bin/../../lib/gcc/pic32c/13.2.1/../../../../pic32c/lib/thumb/v7e-m+dp/hard\libc-size-musl.a(memmove.o)
 .note          0x00001710       0x18 C:/Program Files/Microchip/xc32/v5.00/bin/bin/../../lib/gcc/pic32c/13.2.1/../../../../pic32c/lib/thumb/v7e-m+dp/hard\libc-size-musl.a(memset.o)
 .note          0x00001728       0x18 C:/Program Files/Microchip/xc32/v5.00/bin/bin/../../lib/gcc/pic32c/13.2.1/../../../../pic32c/lib/thumb/v7e-m+dp/hard\libc-size-musl.a(strlen.o)
 .note          0x00001740       0x18 C:/Program Files/Microchip/xc32/v5.00/bin/bin/../../lib/gcc/pic32c/13.2.1/../../../../pic32c/lib/thumb/v7e-m+dp/hard\libc-size-musl.a(strstr.o)
 .note          0x00001758       0x18 C:/Program Files/Microchip/xc32/v5.00/bin/bin/../../lib/gcc/pic32c/13.2.1/../../../../pic32c/lib/thumb/v7e-m+dp/hard\libc-size-musl.a(strchr.o)
 .note          0x00001770       0x18 C:/Program Files/Microchip/xc32/v5.00/bin/bin/../../lib/gcc/pic32c/13.2.1/../../../../pic32c/lib/thumb/v7e-m+dp/hard\libc-size-musl.a(strchrnul.o)
 .note          0x00001788       0x18 C:/Program Files/Microchip/xc32/v5.00/bin/bin/../../lib/gcc/pic32c/13.2.1/../../../../pic32c/lib/thumb/v7e-m+dp/hard\libc-size-musl.a(strcmp.o)
 .note          0x000017a0       0x18 C:/Program Files/Microchip/xc32/v5.00/bin/bin/../../lib/gcc/pic32c/13.2.1/../../../../pic32c/lib/thumb/v7e-m+dp/hard\libc-size-musl.a(strcpy.o)
 .note          0x000017b8       0x18 C:/Program Files/Microchip/xc32/v5.00/bin/bin/../../lib/gcc/pic32c/13.2.1/../../../../pic32c/lib/thumb/v7e-m+dp/hard\libc-size-musl.a(strncmp.o)
 .note          0x000017d0       0x18 C:/Program Files/Microchip/xc32/v5.00/bin/bin/../../lib/gcc/pic32c/13.2.1/../../../../pic32c/lib/thumb/v7e-m+dp/hard\libc-size-musl.a(strncpy.o)
 .note          0x000017e8       0x18 C:/Program Files/Microchip/xc32/v5.00/bin/bin/../../lib/gcc/pic32c/13.2.1/../../../../pic32c/lib/thumb/v7e-m+dp/hard\libc-size-musl.a(stpcpy.o)
 .note          0x00001800       0x18 C:/Program Files/Microchip/xc32/v5.00/bin/bin/../../lib/gcc/pic32c/13.2.1/../../../../pic32c/lib/thumb/v7e-m+dp/hard\libc-size-musl.a(stpncpy.o)
 .note          0x00001818       0x18 C:/Program Files/Microchip/xc32/v5.00/bin/bin/../../lib/gcc/pic32c/13.2.1/../../../../pic32c/lib/thumb/v7e-m+dp/hard\libc-musl.a(isxdigit.o)
 .note          0x00001830       0x18 C:/Program Files/Microchip/xc32/v5.00/bin/bin/../../lib/gcc/pic32c/13.2.1/../../../../pic32c/lib/thumb/v7e-m+dp/hard\libc-musl.a(toupper.o)
 .note          0x00001848       0x18 C:/Program Files/Microchip/xc32/v5.00/bin/bin/../../lib/gcc/pic32c/13.2.1/../../../../pic32c/lib/thumb/v7e-m+dp/hard\libc-musl.a(__libc_start_main.o)
 .note          0x00001860       0x18 C:/Program Files/Microchip/xc32/v5.00/bin/bin/../../lib/gcc/pic32c/13.2.1/../../../../pic32c/lib/thumb/v7e-m+dp/hard\libc-musl.a(libc.o)
 .note          0x00001878       0x18 C:/Program Files/Microchip/xc32/v5.00/bin/bin/../../lib/gcc/pic32c/13.2.1/../../../../pic32c/lib/thumb/v7e-m+dp/hard\libc-musl.a(vsnprintf.o)
 .note          0x00001890       0x18 C:/Program Files/Microchip/xc32/v5.00/bin/bin/../../lib/gcc/pic32c/13.2.1/../../../../pic32c/lib/thumb/v7e-m+dp/hard\libc-musl.a(snprintf.o)
 .note          0x000018a8       0x18 C:/Program Files/Microchip/xc32/v5.00/bin/bin/../../lib/gcc/pic32c/13.2.1/../../../../pic32c/lib/thumb/v7e-m+dp/hard\libc-musl.a(sprintf.o)
 .note          0x000018c0       0x18 C:/Program Files/Microchip/xc32/v5.00/bin/bin/../../lib/gcc/pic32c/13.2.1/../../../../pic32c/lib/thumb/v7e-m+dp/hard\libc-musl.a(vsprintf.o)
 .note          0x000018d8       0x18 C:/Program Files/Microchip/xc32/v5.00/bin/bin/../../lib/gcc/pic32c/13.2.1/../../../../pic32c/lib/thumb/v7e-m+dp/hard\libc-musl.a(atoi.o)
 .note          0x000018f0       0x18 C:/Program Files/Microchip/xc32/v5.00/bin/bin/../../lib/gcc/pic32c/13.2.1/../../../../pic32c/lib/thumb/v7e-m+dp/hard\libc-musl.a(strtol.o)
 .note          0x00001908       0x18 C:/Program Files/Microchip/xc32/v5.00/bin/bin/../../lib/gcc/pic32c/13.2.1/../../../../pic32c/lib/thumb/v7e-m+dp/hard\libc-musl.a(__environ.o)
 .note          0x00001920       0x18 C:/Program Files/Microchip/xc32/v5.00/bin/bin/../../lib/gcc/pic32c/13.2.1/../../../../pic32c/lib/thumb/v7e-m+dp/hard\libc-musl.a(__errno_location.o)
 .note          0x00001938       0x18 C:/Program Files/Microchip/xc32/v5.00/bin/bin/../../lib/gcc/pic32c/13.2.1/../../../../pic32c/lib/thumb/v7e-m+dp/hard\libc-musl.a(intscan.o)
 .note          0x00001950       0x18 C:/Program Files/Microchip/xc32/v5.00/bin/bin/../../lib/gcc/pic32c/13.2.1/../../../../pic32c/lib/thumb/v7e-m+dp/hard\libc-musl.a(shgetc.o)
 .note          0x00001968       0x18 C:/Program Files/Microchip/xc32/v5.00/bin/bin/../../lib/gcc/pic32c/13.2.1/../../../../pic32c/lib/thumb/v7e-m+dp/hard\libc-musl.a(__uflow.o)
 .note          0x00001980       0x18 C:/Program Files/Microchip/xc32/v5.00/bin/bin/../../lib/gcc/pic32c/13.2.1/../../../../pic32c/lib/thumb/v7e-m+dp/hard\libc-musl.a(vfprintf.o)
 .note          0x00001998       0x18 C:/Program Files/Microchip/xc32/v5.00/bin/bin/../../lib/gcc/pic32c/13.2.1/../../../../pic32c/lib/thumb/v7e-m+dp/hard\libc-musl.a(__toread.o)
 .note          0x000019b0       0x18 C:/Program Files/Microchip/xc32/v5.00/bin/bin/../../lib/gcc/pic32c/13.2.1/../../../../pic32c/lib/thumb/v7e-m+dp/hard\libc-musl.a(__io_fmt_needed.o)
 .note          0x000019c8       0x18 C:/Program Files/Microchip/xc32/v5.00/bin/bin/../../lib/gcc/pic32c/13.2.1/../../../../pic32c/lib/thumb/v7e-m+dp/hard\libc-musl.a(__pop_float.o)
 .note          0x000019e0       0x18 C:/Program Files/Microchip/xc32/v5.00/bin/bin/../../lib/gcc/pic32c/13.2.1/../../../../pic32c/lib/thumb/v7e-m+dp/hard\libc-musl.a(__pop_int.o)
 .note          0x000019f8       0x18 C:/Program Files/Microchip/xc32/v5.00/bin/bin/../../lib/gcc/pic32c/13.2.1/../../../../pic32c/lib/thumb/v7e-m+dp/hard\libc-musl.a(__pop_ptr.o)
 .note          0x00001a10       0x18 C:/Program Files/Microchip/xc32/v5.00/bin/bin/../../lib/gcc/pic32c/13.2.1/../../../../pic32c/lib/thumb/v7e-m+dp/hard\libc-musl.a(__printf_core.o)
 .note          0x00001a28       0x18 C:/Program Files/Microchip/xc32/v5.00/bin/bin/../../lib/gcc/pic32c/13.2.1/../../../../pic32c/lib/thumb/v7e-m+dp/hard\libc-musl.a(__stdio_exit.o)
 .note          0x00001a40       0x18 C:/Program Files/Microchip/xc32/v5.00/bin/bin/../../lib/gcc/pic32c/13.2.1/../../../../pic32c/lib/thumb/v7e-m+dp/hard\libc-musl.a(tolower.o)
 .note          0x00001a58       0x18 C:/Program Files/Microchip/xc32/v5.00/bin/bin/../../lib/gcc/pic32c/13.2.1/../../../../pic32c/lib/thumb/v7e-m+dp/hard\libc-musl.a(__fmt_a.o)
 .note          0x00001a70       0x18 C:/Program Files/Microchip/xc32/v5.00/bin/bin/../../lib/gcc/pic32c/13.2.1/../../../../pic32c/lib/thumb/v7e-m+dp/hard\libc-musl.a(__fmt_d.o)
 .note          0x00001a88       0x18 C:/Program Files/Microchip/xc32/v5.00/bin/bin/../../lib/gcc/pic32c/13.2.1/../../../../pic32c/lib/thumb/v7e-m+dp/hard\libc-musl.a(__fmt_fp.o)
 .note          0x00001aa0       0x18 C:/Program Files/Microchip/xc32/v5.00/bin/bin/../../lib/gcc/pic32c/13.2.1/../../../../pic32c/lib/thumb/v7e-m+dp/hard\libc-musl.a(__fmt_o.o)
 .note          0x00001ab8       0x18 C:/Program Files/Microchip/xc32/v5.00/bin/bin/../../lib/gcc/pic32c/13.2.1/../../../../pic32c/lib/thumb/v7e-m+dp/hard\libc-musl.a(__fmt_s.o)
 .note          0x00001ad0       0x18 C:/Program Files/Microchip/xc32/v5.00/bin/bin/../../lib/gcc/pic32c/13.2.1/../../../../pic32c/lib/thumb/v7e-m+dp/hard\libc-musl.a(__fmt_u.o)
 .note          0x00001ae8       0x18 C:/Program Files/Microchip/xc32/v5.00/bin/bin/../../lib/gcc/pic32c/13.2.1/../../../../pic32c/lib/thumb/v7e-m+dp/hard\libc-musl.a(__fmt_x.o)
 .note          0x00001b00       0x18 C:/Program Files/Microchip/xc32/v5.00/bin/bin/../../lib/gcc/pic32c/13.2.1/../../../../pic32c/lib/thumb/v7e-m+dp/hard\libc-musl.a(__cvt_u.o)
 .note          0x00001b18       0x18 C:/Program Files/Microchip/xc32/v5.00/bin/bin/../../lib/gcc/pic32c/13.2.1/thumb/v7e-m+dp/hard\libgcc.a(_aeabi_uldivmod.o)
 .note          0x00001b30       0x18 C:/Program Files/Microchip/xc32/v5.00/bin/bin/../../lib/gcc/pic32c/13.2.1/thumb/v7e-m+dp/hard\libgcc.a(_udivmoddi4.o)
 .note          0x00001b48       0x18 C:/Program Files/Microchip/xc32/v5.00/bin/bin/../../lib/gcc/pic32c/13.2.1/thumb/v7e-m+dp/hard\libgcc.a(_dvmd_tls.o)
 .note          0x00001b60       0x18 C:/Program Files/Microchip/xc32/v5.00/bin/bin/../../lib/gcc/pic32c/13.2.1/thumb/v7e-m+dp/hard/crtend.o
 .note          0x00001b78       0x18 C:/Program Files/Microchip/xc32/v5.00/bin/bin/../../lib/gcc/pic32c/13.2.1/thumb/v7e-m+dp/hard/crtn.o
 .note          0x00001b90       0x18 C:/Program Files/Microchip/xc32/v5.00/bin/bin/../../lib/gcc/pic32c/13.2.1/../../../../pic32c/lib/thumb/v7e-m+dp/hard\libpic32c.a(pic32_data_init_clear.o)
 .note          0x00001ba8       0x18 C:/Program Files/Microchip/xc32/v5.00/bin/bin/../../lib/gcc/pic32c/13.2.1/../../../../pic32c/lib/thumb/v7e-m+dp/hard\libpic32c.a(pic32_data_init_copy.o)

.ARM.attributes
                0x00000000       0x32
 .ARM.attributes
                0x00000000       0x20 C:/Program Files/Microchip/xc32/v5.00/bin/bin/../../lib/gcc/pic32c/13.2.1/thumb/v7e-m+dp/hard/crti.o
 .ARM.attributes
                0x00000020       0x32 C:/Program Files/Microchip/xc32/v5.00/bin/bin/../../lib/gcc/pic32c/13.2.1/thumb/v7e-m+dp/hard/crtbegin.o
 .ARM.attributes
                0x00000052       0x32 build/default/production/_ext/60165520/plib_clk.o
 .ARM.attributes
                0x00000084       0x32 build/default/production/_ext/60167248/plib_efc.o
 .ARM.attributes
                0x000000b6       0x32 build/default/production/_ext/1865468468/plib_nvic.o
 .ARM.attributes
                0x000000e8       0x32 build/default/production/_ext/60177924/plib_pio.o
 .ARM.attributes
                0x0000011a       0x32 build/default/production/_ext/1827571544/plib_systick.o
 .ARM.attributes
                0x0000014c       0x32 build/default/production/_ext/829342655/plib_tc3.o
 .ARM.attributes
                0x0000017e       0x32 build/default/production/_ext/1865657120/plib_uart2.o
 .ARM.attributes
                0x000001b0       0x32 build/default/production/_ext/1171490990/initialization.o
 .ARM.attributes
                0x000001e2       0x32 build/default/production/_ext/1171490990/interrupts.o
 .ARM.attributes
                0x00000214       0x32 build/default/production/_ext/1171490990/exceptions.o
 .ARM.attributes
                0x00000246       0x32 build/default/production/_ext/1171490990/startup_xc32.o
 .ARM.attributes
                0x00000278       0x32 build/default/production/_ext/249897560/boot_manager.o
 .ARM.attributes
                0x000002aa       0x32 build/default/production/_ext/1778509306/os.o
 .ARM.attributes
                0x000002dc       0x32 build/default/production/_ext/1134253236/simple_shield.o
 .ARM.attributes
                0x0000030e       0x32 build/default/production/_ext/667517761/cli_command.o
 .ARM.attributes
                0x00000340       0x32 build/default/production/_ext/818259185/cli_setup.o
 .ARM.attributes
                0x00000372       0x32 build/default/production/_ext/1422079320/embedded_cli.o
 .ARM.attributes
                0x000003a4       0x32 build/default/production/_ext/216470852/uart_irq.o
 .ARM.attributes
                0x000003d6       0x32 build/default/production/_ext/1908456078/port.o
 .ARM.attributes
                0x00000408       0x32 build/default/production/_ext/1562497596/heap_4.o
 .ARM.attributes
                0x0000043a       0x32 build/default/production/_ext/502845695/list.o
 .ARM.attributes
                0x0000046c       0x32 build/default/production/_ext/502845695/queue.o
 .ARM.attributes
                0x0000049e       0x32 build/default/production/_ext/502845695/stream_buffer.o
 .ARM.attributes
                0x000004d0       0x32 build/default/production/_ext/502845695/tasks.o
 .ARM.attributes
                0x00000502       0x32 build/default/production/_ext/502845695/timers.o
 .ARM.attributes
                0x00000534       0x32 build/default/production/_ext/697864676/date_time.o
 .ARM.attributes
                0x00000566       0x32 build/default/production/_ext/1260377903/ring_buffer.o
 .ARM.attributes
                0x00000598       0x32 build/default/production/_ext/1226835810/tick.o
 .ARM.attributes
                0x000005ca       0x32 build/default/production/_ext/1360937237/ATSAMV71cm7_it.o
 .ARM.attributes
                0x000005fc       0x32 build/default/production/_ext/1360937237/main.o
 .ARM.attributes
                0x0000062e       0x32 build/default/production/_ext/30620426/app_cli.o
 .ARM.attributes
                0x00000660       0x32 build/default/production/_ext/1525186148/app_alive.o
 .ARM.attributes
                0x00000692       0x32 build/default/production/_ext/1026660007/app_root.o
 .ARM.attributes
                0x000006c4       0x32 build/default/production/_ext/1918720202/app_logging.o
 .ARM.attributes
                0x000006f6       0x32 build/default/production/_ext/1798135708/dmesg.o
 .ARM.attributes
                0x00000728       0x32 build/default/production/_ext/751336192/xlog.o
 .ARM.attributes
                0x0000075a       0x32 build/default/production/_ext/1389938436/app_network.o
 .ARM.attributes
                0x0000078c       0x32 build/default/production/_ext/30602918/app_usb.o
 .ARM.attributes
                0x000007be       0x32 build/default/production/_ext/783082040/board_api.o
 .ARM.attributes
                0x000007f0       0x32 build/default/production/_ext/783082040/usb_descriptors.o
 .ARM.attributes
                0x00000822       0x32 build/default/production/_ext/2037418415/tcpip.o
 .ARM.attributes
                0x00000854       0x32 build/default/production/_ext/1264479574/def.o
 .ARM.attributes
                0x00000886       0x32 build/default/production/_ext/1264479574/inet_chksum.o
 .ARM.attributes
                0x000008b8       0x32 build/default/production/_ext/1264479574/init.o
 .ARM.attributes
                0x000008ea       0x32 build/default/production/_ext/1264479574/ip.o
 .ARM.attributes
                0x0000091c       0x32 build/default/production/_ext/1349076522/etharp.o
 .ARM.attributes
                0x0000094e       0x32 build/default/production/_ext/1349076522/icmp.o
 .ARM.attributes
                0x00000980       0x32 build/default/production/_ext/1349076522/ip4.o
 .ARM.attributes
                0x000009b2       0x32 build/default/production/_ext/1349076522/ip4_addr.o
 .ARM.attributes
                0x000009e4       0x32 build/default/production/_ext/1349076522/ip4_frag.o
 .ARM.attributes
                0x00000a16       0x32 build/default/production/_ext/1264479574/mem.o
 .ARM.attributes
                0x00000a48       0x32 build/default/production/_ext/1264479574/memp.o
 .ARM.attributes
                0x00000a7a       0x32 build/default/production/_ext/1264479574/netif.o
 .ARM.attributes
                0x00000aac       0x32 build/default/production/_ext/1264479574/pbuf.o
 .ARM.attributes
                0x00000ade       0x32 build/default/production/_ext/1264479574/raw.o
 .ARM.attributes
                0x00000b10       0x32 build/default/production/_ext/1264479574/stats.o
 .ARM.attributes
                0x00000b42       0x32 build/default/production/_ext/1264479574/tcp.o
 .ARM.attributes
                0x00000b74       0x32 build/default/production/_ext/1264479574/tcp_in.o
 .ARM.attributes
                0x00000ba6       0x32 build/default/production/_ext/1264479574/tcp_out.o
 .ARM.attributes
                0x00000bd8       0x32 build/default/production/_ext/1264479574/timeouts.o
 .ARM.attributes
                0x00000c0a       0x32 build/default/production/_ext/1264479574/udp.o
 .ARM.attributes
                0x00000c3c       0x32 build/default/production/_ext/534298161/ethernet.o
 .ARM.attributes
                0x00000c6e       0x32 build/default/production/_ext/1439055959/ncm_device.o
 .ARM.attributes
                0x00000ca0       0x32 build/default/production/_ext/761407912/tusb_fifo.o
 .ARM.attributes
                0x00000cd2       0x32 build/default/production/_ext/781065747/usbd.o
 .ARM.attributes
                0x00000d04       0x32 build/default/production/_ext/781065747/usbd_control.o
 .ARM.attributes
                0x00000d36       0x32 build/default/production/_ext/2093936272/dcd_samx7x.o
 .ARM.attributes
                0x00000d68       0x32 build/default/production/_ext/1119931634/tusb.o
 .ARM.attributes
                0x00000d9a       0x32 build/default/production/_ext/1017385999/sys_arch.o
 .ARM.attributes
                0x00000dcc       0x32 C:/Program Files/Microchip/xc32/v5.00/bin/bin/../../lib/gcc/pic32c/13.2.1/../../../../pic32c/lib/thumb/v7e-m+dp/hard\libpic32c.a(data_init.o)
 .ARM.attributes
                0x00000dfe       0x34 C:/Program Files/Microchip/xc32/v5.00/bin/bin/../../lib/gcc/pic32c/13.2.1/../../../../pic32c/lib/thumb/v7e-m+dp/hard\libc-size-musl.a(memcmp.o)
 .ARM.attributes
                0x00000e32       0x34 C:/Program Files/Microchip/xc32/v5.00/bin/bin/../../lib/gcc/pic32c/13.2.1/../../../../pic32c/lib/thumb/v7e-m+dp/hard\libc-size-musl.a(memcpy.o)
 .ARM.attributes
                0x00000e66       0x34 C:/Program Files/Microchip/xc32/v5.00/bin/bin/../../lib/gcc/pic32c/13.2.1/../../../../pic32c/lib/thumb/v7e-m+dp/hard\libc-size-musl.a(memmove.o)
 .ARM.attributes
                0x00000e9a       0x34 C:/Program Files/Microchip/xc32/v5.00/bin/bin/../../lib/gcc/pic32c/13.2.1/../../../../pic32c/lib/thumb/v7e-m+dp/hard\libc-size-musl.a(memset.o)
 .ARM.attributes
                0x00000ece       0x34 C:/Program Files/Microchip/xc32/v5.00/bin/bin/../../lib/gcc/pic32c/13.2.1/../../../../pic32c/lib/thumb/v7e-m+dp/hard\libc-size-musl.a(strlen.o)
 .ARM.attributes
                0x00000f02       0x34 C:/Program Files/Microchip/xc32/v5.00/bin/bin/../../lib/gcc/pic32c/13.2.1/../../../../pic32c/lib/thumb/v7e-m+dp/hard\libc-size-musl.a(strchr.o)
 .ARM.attributes
                0x00000f36       0x34 C:/Program Files/Microchip/xc32/v5.00/bin/bin/../../lib/gcc/pic32c/13.2.1/../../../../pic32c/lib/thumb/v7e-m+dp/hard\libc-size-musl.a(strchrnul.o)
 .ARM.attributes
                0x00000f6a       0x34 C:/Program Files/Microchip/xc32/v5.00/bin/bin/../../lib/gcc/pic32c/13.2.1/../../../../pic32c/lib/thumb/v7e-m+dp/hard\libc-size-musl.a(strcmp.o)
 .ARM.attributes
                0x00000f9e       0x34 C:/Program Files/Microchip/xc32/v5.00/bin/bin/../../lib/gcc/pic32c/13.2.1/../../../../pic32c/lib/thumb/v7e-m+dp/hard\libc-size-musl.a(strcpy.o)
 .ARM.attributes
                0x00000fd2       0x34 C:/Program Files/Microchip/xc32/v5.00/bin/bin/../../lib/gcc/pic32c/13.2.1/../../../../pic32c/lib/thumb/v7e-m+dp/hard\libc-size-musl.a(strncpy.o)
 .ARM.attributes
                0x00001006       0x34 C:/Program Files/Microchip/xc32/v5.00/bin/bin/../../lib/gcc/pic32c/13.2.1/../../../../pic32c/lib/thumb/v7e-m+dp/hard\libc-size-musl.a(stpcpy.o)
 .ARM.attributes
                0x0000103a       0x34 C:/Program Files/Microchip/xc32/v5.00/bin/bin/../../lib/gcc/pic32c/13.2.1/../../../../pic32c/lib/thumb/v7e-m+dp/hard\libc-size-musl.a(stpncpy.o)
 .ARM.attributes
                0x0000106e       0x34 C:/Program Files/Microchip/xc32/v5.00/bin/bin/../../lib/gcc/pic32c/13.2.1/../../../../pic32c/lib/thumb/v7e-m+dp/hard\libc-musl.a(toupper.o)
 .ARM.attributes
                0x000010a2       0x34 C:/Program Files/Microchip/xc32/v5.00/bin/bin/../../lib/gcc/pic32c/13.2.1/../../../../pic32c/lib/thumb/v7e-m+dp/hard\libc-musl.a(__libc_start_main.o)
 .ARM.attributes
                0x000010d6       0x34 C:/Program Files/Microchip/xc32/v5.00/bin/bin/../../lib/gcc/pic32c/13.2.1/../../../../pic32c/lib/thumb/v7e-m+dp/hard\libc-musl.a(libc.o)
 .ARM.attributes
                0x0000110a       0x34 C:/Program Files/Microchip/xc32/v5.00/bin/bin/../../lib/gcc/pic32c/13.2.1/../../../../pic32c/lib/thumb/v7e-m+dp/hard\libc-musl.a(vsnprintf.o)
 .ARM.attributes
                0x0000113e       0x34 C:/Program Files/Microchip/xc32/v5.00/bin/bin/../../lib/gcc/pic32c/13.2.1/../../../../pic32c/lib/thumb/v7e-m+dp/hard\libc-musl.a(snprintf.o)
 .ARM.attributes
                0x00001172       0x34 C:/Program Files/Microchip/xc32/v5.00/bin/bin/../../lib/gcc/pic32c/13.2.1/../../../../pic32c/lib/thumb/v7e-m+dp/hard\libc-musl.a(sprintf.o)
 .ARM.attributes
                0x000011a6       0x34 C:/Program Files/Microchip/xc32/v5.00/bin/bin/../../lib/gcc/pic32c/13.2.1/../../../../pic32c/lib/thumb/v7e-m+dp/hard\libc-musl.a(vsprintf.o)
 .ARM.attributes
                0x000011da       0x34 C:/Program Files/Microchip/xc32/v5.00/bin/bin/../../lib/gcc/pic32c/13.2.1/../../../../pic32c/lib/thumb/v7e-m+dp/hard\libc-musl.a(atoi.o)
 .ARM.attributes
                0x0000120e       0x34 C:/Program Files/Microchip/xc32/v5.00/bin/bin/../../lib/gcc/pic32c/13.2.1/../../../../pic32c/lib/thumb/v7e-m+dp/hard\libc-musl.a(strtol.o)
 .ARM.attributes
                0x00001242       0x34 C:/Program Files/Microchip/xc32/v5.00/bin/bin/../../lib/gcc/pic32c/13.2.1/../../../../pic32c/lib/thumb/v7e-m+dp/hard\libc-musl.a(__environ.o)
 .ARM.attributes
                0x00001276       0x34 C:/Program Files/Microchip/xc32/v5.00/bin/bin/../../lib/gcc/pic32c/13.2.1/../../../../pic32c/lib/thumb/v7e-m+dp/hard\libc-musl.a(__errno_location.o)
 .ARM.attributes
                0x000012aa       0x34 C:/Program Files/Microchip/xc32/v5.00/bin/bin/../../lib/gcc/pic32c/13.2.1/../../../../pic32c/lib/thumb/v7e-m+dp/hard\libc-musl.a(intscan.o)
 .ARM.attributes
                0x000012de       0x34 C:/Program Files/Microchip/xc32/v5.00/bin/bin/../../lib/gcc/pic32c/13.2.1/../../../../pic32c/lib/thumb/v7e-m+dp/hard\libc-musl.a(shgetc.o)
 .ARM.attributes
                0x00001312       0x34 C:/Program Files/Microchip/xc32/v5.00/bin/bin/../../lib/gcc/pic32c/13.2.1/../../../../pic32c/lib/thumb/v7e-m+dp/hard\libc-musl.a(__uflow.o)
 .ARM.attributes
                0x00001346       0x34 C:/Program Files/Microchip/xc32/v5.00/bin/bin/../../lib/gcc/pic32c/13.2.1/../../../../pic32c/lib/thumb/v7e-m+dp/hard\libc-musl.a(vfprintf.o)
 .ARM.attributes
                0x0000137a       0x34 C:/Program Files/Microchip/xc32/v5.00/bin/bin/../../lib/gcc/pic32c/13.2.1/../../../../pic32c/lib/thumb/v7e-m+dp/hard\libc-musl.a(__toread.o)
 .ARM.attributes
                0x000013ae       0x34 C:/Program Files/Microchip/xc32/v5.00/bin/bin/../../lib/gcc/pic32c/13.2.1/../../../../pic32c/lib/thumb/v7e-m+dp/hard\libc-musl.a(__pop_float.o)
 .ARM.attributes
                0x000013e2       0x34 C:/Program Files/Microchip/xc32/v5.00/bin/bin/../../lib/gcc/pic32c/13.2.1/../../../../pic32c/lib/thumb/v7e-m+dp/hard\libc-musl.a(__pop_int.o)
 .ARM.attributes
                0x00001416       0x34 C:/Program Files/Microchip/xc32/v5.00/bin/bin/../../lib/gcc/pic32c/13.2.1/../../../../pic32c/lib/thumb/v7e-m+dp/hard\libc-musl.a(__pop_ptr.o)
 .ARM.attributes
                0x0000144a       0x34 C:/Program Files/Microchip/xc32/v5.00/bin/bin/../../lib/gcc/pic32c/13.2.1/../../../../pic32c/lib/thumb/v7e-m+dp/hard\libc-musl.a(__printf_core.o)
 .ARM.attributes
                0x0000147e       0x34 C:/Program Files/Microchip/xc32/v5.00/bin/bin/../../lib/gcc/pic32c/13.2.1/../../../../pic32c/lib/thumb/v7e-m+dp/hard\libc-musl.a(tolower.o)
 .ARM.attributes
                0x000014b2       0x34 C:/Program Files/Microchip/xc32/v5.00/bin/bin/../../lib/gcc/pic32c/13.2.1/../../../../pic32c/lib/thumb/v7e-m+dp/hard\libc-musl.a(__fmt_a.o)
 .ARM.attributes
                0x000014e6       0x34 C:/Program Files/Microchip/xc32/v5.00/bin/bin/../../lib/gcc/pic32c/13.2.1/../../../../pic32c/lib/thumb/v7e-m+dp/hard\libc-musl.a(__fmt_d.o)
 .ARM.attributes
                0x0000151a       0x34 C:/Program Files/Microchip/xc32/v5.00/bin/bin/../../lib/gcc/pic32c/13.2.1/../../../../pic32c/lib/thumb/v7e-m+dp/hard\libc-musl.a(__fmt_fp.o)
 .ARM.attributes
                0x0000154e       0x34 C:/Program Files/Microchip/xc32/v5.00/bin/bin/../../lib/gcc/pic32c/13.2.1/../../../../pic32c/lib/thumb/v7e-m+dp/hard\libc-musl.a(__fmt_o.o)
 .ARM.attributes
                0x00001582       0x34 C:/Program Files/Microchip/xc32/v5.00/bin/bin/../../lib/gcc/pic32c/13.2.1/../../../../pic32c/lib/thumb/v7e-m+dp/hard\libc-musl.a(__fmt_s.o)
 .ARM.attributes
                0x000015b6       0x34 C:/Program Files/Microchip/xc32/v5.00/bin/bin/../../lib/gcc/pic32c/13.2.1/../../../../pic32c/lib/thumb/v7e-m+dp/hard\libc-musl.a(__fmt_u.o)
 .ARM.attributes
                0x000015ea       0x34 C:/Program Files/Microchip/xc32/v5.00/bin/bin/../../lib/gcc/pic32c/13.2.1/../../../../pic32c/lib/thumb/v7e-m+dp/hard\libc-musl.a(__fmt_x.o)
 .ARM.attributes
                0x0000161e       0x34 C:/Program Files/Microchip/xc32/v5.00/bin/bin/../../lib/gcc/pic32c/13.2.1/../../../../pic32c/lib/thumb/v7e-m+dp/hard\libc-musl.a(__cvt_u.o)
 .ARM.attributes
                0x00001652       0x32 C:/Program Files/Microchip/xc32/v5.00/bin/bin/../../lib/gcc/pic32c/13.2.1/../../../../pic32c/lib/thumb/v7e-m+dp/hard\libm-fast-emfloat.a(floor.o)
 .ARM.attributes
                0x00001684       0x20 C:/Program Files/Microchip/xc32/v5.00/bin/bin/../../lib/gcc/pic32c/13.2.1/thumb/v7e-m+dp/hard\libgcc.a(_aeabi_uldivmod.o)
 .ARM.attributes
                0x000016a4       0x32 C:/Program Files/Microchip/xc32/v5.00/bin/bin/../../lib/gcc/pic32c/13.2.1/thumb/v7e-m+dp/hard\libgcc.a(_udivmoddi4.o)
 .ARM.attributes
                0x000016d6       0x20 C:/Program Files/Microchip/xc32/v5.00/bin/bin/../../lib/gcc/pic32c/13.2.1/thumb/v7e-m+dp/hard\libgcc.a(_dvmd_tls.o)
 .ARM.attributes
                0x000016f6       0x20 C:/Program Files/Microchip/xc32/v5.00/bin/bin/../../lib/gcc/pic32c/13.2.1/thumb/v7e-m+dp/hard/crtn.o
 .ARM.attributes
                0x00001716       0x32 C:/Program Files/Microchip/xc32/v5.00/bin/bin/../../lib/gcc/pic32c/13.2.1/../../../../pic32c/lib/thumb/v7e-m+dp/hard\libpic32c.a(pic32_data_init_clear.o)
 .ARM.attributes
                0x00001748       0x32 C:/Program Files/Microchip/xc32/v5.00/bin/bin/../../lib/gcc/pic32c/13.2.1/../../../../pic32c/lib/thumb/v7e-m+dp/hard\libpic32c.a(pic32_data_init_copy.o)

.comment        0x00000000       0x35
 .comment       0x00000000       0x35 C:/Program Files/Microchip/xc32/v5.00/bin/bin/../../lib/gcc/pic32c/13.2.1/thumb/v7e-m+dp/hard/crtbegin.o
                                 0x36 (size before relaxing)
 .comment       0x00000035       0x36 build/default/production/_ext/60165520/plib_clk.o
 .comment       0x00000035       0x36 build/default/production/_ext/60167248/plib_efc.o
 .comment       0x00000035       0x36 build/default/production/_ext/1865468468/plib_nvic.o
 .comment       0x00000035       0x36 build/default/production/_ext/60177924/plib_pio.o
 .comment       0x00000035       0x36 build/default/production/_ext/1827571544/plib_systick.o
 .comment       0x00000035       0x36 build/default/production/_ext/829342655/plib_tc3.o
 .comment       0x00000035       0x36 build/default/production/_ext/1865657120/plib_uart2.o
 .comment       0x00000035       0x36 build/default/production/_ext/1171490990/initialization.o
 .comment       0x00000035       0x36 build/default/production/_ext/1171490990/interrupts.o
 .comment       0x00000035       0x36 build/default/production/_ext/1171490990/exceptions.o
 .comment       0x00000035       0x36 build/default/production/_ext/1171490990/startup_xc32.o
 .comment       0x00000035       0x36 build/default/production/_ext/249897560/boot_manager.o
 .comment       0x00000035       0x36 build/default/production/_ext/1778509306/os.o
 .comment       0x00000035       0x36 build/default/production/_ext/1134253236/simple_shield.o
 .comment       0x00000035       0x36 build/default/production/_ext/667517761/cli_command.o
 .comment       0x00000035       0x36 build/default/production/_ext/818259185/cli_setup.o
 .comment       0x00000035       0x36 build/default/production/_ext/1422079320/embedded_cli.o
 .comment       0x00000035       0x36 build/default/production/_ext/216470852/uart_irq.o
 .comment       0x00000035       0x36 build/default/production/_ext/1908456078/port.o
 .comment       0x00000035       0x36 build/default/production/_ext/1562497596/heap_4.o
 .comment       0x00000035       0x36 build/default/production/_ext/502845695/list.o
 .comment       0x00000035       0x36 build/default/production/_ext/502845695/queue.o
 .comment       0x00000035       0x36 build/default/production/_ext/502845695/stream_buffer.o
 .comment       0x00000035       0x36 build/default/production/_ext/502845695/tasks.o
 .comment       0x00000035       0x36 build/default/production/_ext/502845695/timers.o
 .comment       0x00000035       0x36 build/default/production/_ext/697864676/date_time.o
 .comment       0x00000035       0x36 build/default/production/_ext/1260377903/ring_buffer.o
 .comment       0x00000035       0x36 build/default/production/_ext/1226835810/tick.o
 .comment       0x00000035       0x36 build/default/production/_ext/1360937237/ATSAMV71cm7_it.o
 .comment       0x00000035       0x36 build/default/production/_ext/1360937237/main.o
 .comment       0x00000035       0x36 build/default/production/_ext/30620426/app_cli.o
 .comment       0x00000035       0x36 build/default/production/_ext/1525186148/app_alive.o
 .comment       0x00000035       0x36 build/default/production/_ext/1026660007/app_root.o
 .comment       0x00000035       0x36 build/default/production/_ext/1918720202/app_logging.o
 .comment       0x00000035       0x36 build/default/production/_ext/1798135708/dmesg.o
 .comment       0x00000035       0x36 build/default/production/_ext/751336192/xlog.o
 .comment       0x00000035       0x36 build/default/production/_ext/1389938436/app_network.o
 .comment       0x00000035       0x36 build/default/production/_ext/30602918/app_usb.o
 .comment       0x00000035       0x36 build/default/production/_ext/783082040/board_api.o
 .comment       0x00000035       0x36 build/default/production/_ext/783082040/usb_descriptors.o
 .comment       0x00000035       0x36 build/default/production/_ext/2037418415/tcpip.o
 .comment       0x00000035       0x36 build/default/production/_ext/1264479574/def.o
 .comment       0x00000035       0x36 build/default/production/_ext/1264479574/inet_chksum.o
 .comment       0x00000035       0x36 build/default/production/_ext/1264479574/init.o
 .comment       0x00000035       0x36 build/default/production/_ext/1264479574/ip.o
 .comment       0x00000035       0x36 build/default/production/_ext/1349076522/etharp.o
 .comment       0x00000035       0x36 build/default/production/_ext/1349076522/icmp.o
 .comment       0x00000035       0x36 build/default/production/_ext/1349076522/ip4.o
 .comment       0x00000035       0x36 build/default/production/_ext/1349076522/ip4_addr.o
 .comment       0x00000035       0x36 build/default/production/_ext/1349076522/ip4_frag.o
 .comment       0x00000035       0x36 build/default/production/_ext/1264479574/mem.o
 .comment       0x00000035       0x36 build/default/production/_ext/1264479574/memp.o
 .comment       0x00000035       0x36 build/default/production/_ext/1264479574/netif.o
 .comment       0x00000035       0x36 build/default/production/_ext/1264479574/pbuf.o
 .comment       0x00000035       0x36 build/default/production/_ext/1264479574/raw.o
 .comment       0x00000035       0x36 build/default/production/_ext/1264479574/stats.o
 .comment       0x00000035       0x36 build/default/production/_ext/1264479574/tcp.o
 .comment       0x00000035       0x36 build/default/production/_ext/1264479574/tcp_in.o
 .comment       0x00000035       0x36 build/default/production/_ext/1264479574/tcp_out.o
 .comment       0x00000035       0x36 build/default/production/_ext/1264479574/timeouts.o
 .comment       0x00000035       0x36 build/default/production/_ext/1264479574/udp.o
 .comment       0x00000035       0x36 build/default/production/_ext/534298161/ethernet.o
 .comment       0x00000035       0x36 build/default/production/_ext/1439055959/ncm_device.o
 .comment       0x00000035       0x36 build/default/production/_ext/761407912/tusb_fifo.o
 .comment       0x00000035       0x36 build/default/production/_ext/781065747/usbd.o
 .comment       0x00000035       0x36 build/default/production/_ext/781065747/usbd_control.o
 .comment       0x00000035       0x36 build/default/production/_ext/2093936272/dcd_samx7x.o
 .comment       0x00000035       0x36 build/default/production/_ext/1119931634/tusb.o
 .comment       0x00000035       0x36 build/default/production/_ext/1017385999/sys_arch.o
 .comment       0x00000035       0x36 C:/Program Files/Microchip/xc32/v5.00/bin/bin/../../lib/gcc/pic32c/13.2.1/../../../../pic32c/lib/thumb/v7e-m+dp/hard\libpic32c.a(data_init.o)
 .comment       0x00000035       0x36 C:/Program Files/Microchip/xc32/v5.00/bin/bin/../../lib/gcc/pic32c/13.2.1/../../../../pic32c/lib/thumb/v7e-m+dp/hard\libc-size-musl.a(memcmp.o)
 .comment       0x00000035       0x36 C:/Program Files/Microchip/xc32/v5.00/bin/bin/../../lib/gcc/pic32c/13.2.1/../../../../pic32c/lib/thumb/v7e-m+dp/hard\libc-size-musl.a(memcpy.o)
 .comment       0x00000035       0x36 C:/Program Files/Microchip/xc32/v5.00/bin/bin/../../lib/gcc/pic32c/13.2.1/../../../../pic32c/lib/thumb/v7e-m+dp/hard\libc-size-musl.a(memmove.o)
 .comment       0x00000035       0x36 C:/Program Files/Microchip/xc32/v5.00/bin/bin/../../lib/gcc/pic32c/13.2.1/../../../../pic32c/lib/thumb/v7e-m+dp/hard\libc-size-musl.a(memset.o)
 .comment       0x00000035       0x36 C:/Program Files/Microchip/xc32/v5.00/bin/bin/../../lib/gcc/pic32c/13.2.1/../../../../pic32c/lib/thumb/v7e-m+dp/hard\libc-size-musl.a(strlen.o)
 .comment       0x00000035       0x36 C:/Program Files/Microchip/xc32/v5.00/bin/bin/../../lib/gcc/pic32c/13.2.1/../../../../pic32c/lib/thumb/v7e-m+dp/hard\libc-size-musl.a(strchr.o)
 .comment       0x00000035       0x36 C:/Program Files/Microchip/xc32/v5.00/bin/bin/../../lib/gcc/pic32c/13.2.1/../../../../pic32c/lib/thumb/v7e-m+dp/hard\libc-size-musl.a(strchrnul.o)
 .comment       0x00000035       0x36 C:/Program Files/Microchip/xc32/v5.00/bin/bin/../../lib/gcc/pic32c/13.2.1/../../../../pic32c/lib/thumb/v7e-m+dp/hard\libc-size-musl.a(strcmp.o)
 .comment       0x00000035       0x36 C:/Program Files/Microchip/xc32/v5.00/bin/bin/../../lib/gcc/pic32c/13.2.1/../../../../pic32c/lib/thumb/v7e-m+dp/hard\libc-size-musl.a(strcpy.o)
 .comment       0x00000035       0x36 C:/Program Files/Microchip/xc32/v5.00/bin/bin/../../lib/gcc/pic32c/13.2.1/../../../../pic32c/lib/thumb/v7e-m+dp/hard\libc-size-musl.a(strncpy.o)
 .comment       0x00000035       0x36 C:/Program Files/Microchip/xc32/v5.00/bin/bin/../../lib/gcc/pic32c/13.2.1/../../../../pic32c/lib/thumb/v7e-m+dp/hard\libc-size-musl.a(stpcpy.o)
 .comment       0x00000035       0x36 C:/Program Files/Microchip/xc32/v5.00/bin/bin/../../lib/gcc/pic32c/13.2.1/../../../../pic32c/lib/thumb/v7e-m+dp/hard\libc-size-musl.a(stpncpy.o)
 .comment       0x00000035       0x36 C:/Program Files/Microchip/xc32/v5.00/bin/bin/../../lib/gcc/pic32c/13.2.1/../../../../pic32c/lib/thumb/v7e-m+dp/hard\libc-musl.a(toupper.o)
 .comment       0x00000035       0x36 C:/Program Files/Microchip/xc32/v5.00/bin/bin/../../lib/gcc/pic32c/13.2.1/../../../../pic32c/lib/thumb/v7e-m+dp/hard\libc-musl.a(__libc_start_main.o)
 .comment       0x00000035       0x36 C:/Program Files/Microchip/xc32/v5.00/bin/bin/../../lib/gcc/pic32c/13.2.1/../../../../pic32c/lib/thumb/v7e-m+dp/hard\libc-musl.a(libc.o)
 .comment       0x00000035       0x36 C:/Program Files/Microchip/xc32/v5.00/bin/bin/../../lib/gcc/pic32c/13.2.1/../../../../pic32c/lib/thumb/v7e-m+dp/hard\libc-musl.a(vsnprintf.o)
 .comment       0x00000035       0x36 C:/Program Files/Microchip/xc32/v5.00/bin/bin/../../lib/gcc/pic32c/13.2.1/../../../../pic32c/lib/thumb/v7e-m+dp/hard\libc-musl.a(snprintf.o)
 .comment       0x00000035       0x36 C:/Program Files/Microchip/xc32/v5.00/bin/bin/../../lib/gcc/pic32c/13.2.1/../../../../pic32c/lib/thumb/v7e-m+dp/hard\libc-musl.a(sprintf.o)
 .comment       0x00000035       0x36 C:/Program Files/Microchip/xc32/v5.00/bin/bin/../../lib/gcc/pic32c/13.2.1/../../../../pic32c/lib/thumb/v7e-m+dp/hard\libc-musl.a(vsprintf.o)
 .comment       0x00000035       0x36 C:/Program Files/Microchip/xc32/v5.00/bin/bin/../../lib/gcc/pic32c/13.2.1/../../../../pic32c/lib/thumb/v7e-m+dp/hard\libc-musl.a(atoi.o)
 .comment       0x00000035       0x36 C:/Program Files/Microchip/xc32/v5.00/bin/bin/../../lib/gcc/pic32c/13.2.1/../../../../pic32c/lib/thumb/v7e-m+dp/hard\libc-musl.a(strtol.o)
 .comment       0x00000035       0x36 C:/Program Files/Microchip/xc32/v5.00/bin/bin/../../lib/gcc/pic32c/13.2.1/../../../../pic32c/lib/thumb/v7e-m+dp/hard\libc-musl.a(__environ.o)
 .comment       0x00000035       0x36 C:/Program Files/Microchip/xc32/v5.00/bin/bin/../../lib/gcc/pic32c/13.2.1/../../../../pic32c/lib/thumb/v7e-m+dp/hard\libc-musl.a(__errno_location.o)
 .comment       0x00000035       0x36 C:/Program Files/Microchip/xc32/v5.00/bin/bin/../../lib/gcc/pic32c/13.2.1/../../../../pic32c/lib/thumb/v7e-m+dp/hard\libc-musl.a(intscan.o)
 .comment       0x00000035       0x36 C:/Program Files/Microchip/xc32/v5.00/bin/bin/../../lib/gcc/pic32c/13.2.1/../../../../pic32c/lib/thumb/v7e-m+dp/hard\libc-musl.a(shgetc.o)
 .comment       0x00000035       0x36 C:/Program Files/Microchip/xc32/v5.00/bin/bin/../../lib/gcc/pic32c/13.2.1/../../../../pic32c/lib/thumb/v7e-m+dp/hard\libc-musl.a(__uflow.o)
 .comment       0x00000035       0x36 C:/Program Files/Microchip/xc32/v5.00/bin/bin/../../lib/gcc/pic32c/13.2.1/../../../../pic32c/lib/thumb/v7e-m+dp/hard\libc-musl.a(vfprintf.o)
 .comment       0x00000035       0x36 C:/Program Files/Microchip/xc32/v5.00/bin/bin/../../lib/gcc/pic32c/13.2.1/../../../../pic32c/lib/thumb/v7e-m+dp/hard\libc-musl.a(__toread.o)
 .comment       0x00000035       0x36 C:/Program Files/Microchip/xc32/v5.00/bin/bin/../../lib/gcc/pic32c/13.2.1/../../../../pic32c/lib/thumb/v7e-m+dp/hard\libc-musl.a(__pop_float.o)
 .comment       0x00000035       0x36 C:/Program Files/Microchip/xc32/v5.00/bin/bin/../../lib/gcc/pic32c/13.2.1/../../../../pic32c/lib/thumb/v7e-m+dp/hard\libc-musl.a(__pop_int.o)
 .comment       0x00000035       0x36 C:/Program Files/Microchip/xc32/v5.00/bin/bin/../../lib/gcc/pic32c/13.2.1/../../../../pic32c/lib/thumb/v7e-m+dp/hard\libc-musl.a(__pop_ptr.o)
 .comment       0x00000035       0x36 C:/Program Files/Microchip/xc32/v5.00/bin/bin/../../lib/gcc/pic32c/13.2.1/../../../../pic32c/lib/thumb/v7e-m+dp/hard\libc-musl.a(__printf_core.o)
 .comment       0x00000035       0x36 C:/Program Files/Microchip/xc32/v5.00/bin/bin/../../lib/gcc/pic32c/13.2.1/../../../../pic32c/lib/thumb/v7e-m+dp/hard\libc-musl.a(tolower.o)
 .comment       0x00000035       0x36 C:/Program Files/Microchip/xc32/v5.00/bin/bin/../../lib/gcc/pic32c/13.2.1/../../../../pic32c/lib/thumb/v7e-m+dp/hard\libc-musl.a(__fmt_a.o)
 .comment       0x00000035       0x36 C:/Program Files/Microchip/xc32/v5.00/bin/bin/../../lib/gcc/pic32c/13.2.1/../../../../pic32c/lib/thumb/v7e-m+dp/hard\libc-musl.a(__fmt_d.o)
 .comment       0x00000035       0x36 C:/Program Files/Microchip/xc32/v5.00/bin/bin/../../lib/gcc/pic32c/13.2.1/../../../../pic32c/lib/thumb/v7e-m+dp/hard\libc-musl.a(__fmt_fp.o)
 .comment       0x00000035       0x36 C:/Program Files/Microchip/xc32/v5.00/bin/bin/../../lib/gcc/pic32c/13.2.1/../../../../pic32c/lib/thumb/v7e-m+dp/hard\libc-musl.a(__fmt_o.o)
 .comment       0x00000035       0x36 C:/Program Files/Microchip/xc32/v5.00/bin/bin/../../lib/gcc/pic32c/13.2.1/../../../../pic32c/lib/thumb/v7e-m+dp/hard\libc-musl.a(__fmt_s.o)
 .comment       0x00000035       0x36 C:/Program Files/Microchip/xc32/v5.00/bin/bin/../../lib/gcc/pic32c/13.2.1/../../../../pic32c/lib/thumb/v7e-m+dp/hard\libc-musl.a(__fmt_u.o)
 .comment       0x00000035       0x36 C:/Program Files/Microchip/xc32/v5.00/bin/bin/../../lib/gcc/pic32c/13.2.1/../../../../pic32c/lib/thumb/v7e-m+dp/hard\libc-musl.a(__fmt_x.o)
 .comment       0x00000035       0x36 C:/Program Files/Microchip/xc32/v5.00/bin/bin/../../lib/gcc/pic32c/13.2.1/../../../../pic32c/lib/thumb/v7e-m+dp/hard\libc-musl.a(__cvt_u.o)
 .comment       0x00000035       0x36 C:/Program Files/Microchip/xc32/v5.00/bin/bin/../../lib/gcc/pic32c/13.2.1/../../../../pic32c/lib/thumb/v7e-m+dp/hard\libm-fast-emfloat.a(floor.o)
 .comment       0x00000035       0x36 C:/Program Files/Microchip/xc32/v5.00/bin/bin/../../lib/gcc/pic32c/13.2.1/thumb/v7e-m+dp/hard\libgcc.a(_udivmoddi4.o)
 .comment       0x00000035       0x36 C:/Program Files/Microchip/xc32/v5.00/bin/bin/../../lib/gcc/pic32c/13.2.1/../../../../pic32c/lib/thumb/v7e-m+dp/hard\libpic32c.a(pic32_data_init_clear.o)
 .comment       0x00000035       0x36 C:/Program Files/Microchip/xc32/v5.00/bin/bin/../../lib/gcc/pic32c/13.2.1/../../../../pic32c/lib/thumb/v7e-m+dp/hard\libpic32c.a(pic32_data_init_copy.o)

.debug_info     0x00000000    0x4010f
 .debug_info    0x00000000      0x5ab build/default/production/_ext/60165520/plib_clk.o
 .debug_info    0x000005ab      0x520 build/default/production/_ext/60167248/plib_efc.o
 .debug_info    0x00000acb      0xb7c build/default/production/_ext/1865468468/plib_nvic.o
 .debug_info    0x00001647      0x9ef build/default/production/_ext/60177924/plib_pio.o
 .debug_info    0x00002036      0x493 build/default/production/_ext/1827571544/plib_systick.o
 .debug_info    0x000024c9      0x477 build/default/production/_ext/829342655/plib_tc3.o
 .debug_info    0x00002940      0x756 build/default/production/_ext/1865657120/plib_uart2.o
 .debug_info    0x00003096      0x19f build/default/production/_ext/1171490990/initialization.o
 .debug_info    0x00003235      0x70c build/default/production/_ext/1171490990/interrupts.o
 .debug_info    0x00003941      0x11c build/default/production/_ext/1171490990/exceptions.o
 .debug_info    0x00003a5d      0x84b build/default/production/_ext/1171490990/startup_xc32.o
 .debug_info    0x000042a8      0x2f3 build/default/production/_ext/249897560/boot_manager.o
 .debug_info    0x0000459b      0x9f6 build/default/production/_ext/1778509306/os.o
 .debug_info    0x00004f91      0x5db build/default/production/_ext/1134253236/simple_shield.o
 .debug_info    0x0000556c      0xfe1 build/default/production/_ext/667517761/cli_command.o
 .debug_info    0x0000654d      0x639 build/default/production/_ext/818259185/cli_setup.o
 .debug_info    0x00006b86     0x1769 build/default/production/_ext/1422079320/embedded_cli.o
 .debug_info    0x000082ef      0xc01 build/default/production/_ext/216470852/uart_irq.o
 .debug_info    0x00008ef0      0x5aa build/default/production/_ext/1908456078/port.o
 .debug_info    0x0000949a      0x67c build/default/production/_ext/1562497596/heap_4.o
 .debug_info    0x00009b16      0x30c build/default/production/_ext/502845695/list.o
 .debug_info    0x00009e22     0x1ffb build/default/production/_ext/502845695/queue.o
 .debug_info    0x0000be1d     0x1943 build/default/production/_ext/502845695/stream_buffer.o
 .debug_info    0x0000d760     0x3269 build/default/production/_ext/502845695/tasks.o
 .debug_info    0x000109c9     0x182c build/default/production/_ext/502845695/timers.o
 .debug_info    0x000121f5      0x84c build/default/production/_ext/697864676/date_time.o
 .debug_info    0x00012a41      0x898 build/default/production/_ext/1260377903/ring_buffer.o
 .debug_info    0x000132d9       0xce build/default/production/_ext/1226835810/tick.o
 .debug_info    0x000133a7      0x775 build/default/production/_ext/1360937237/ATSAMV71cm7_it.o
 .debug_info    0x00013b1c      0x10b build/default/production/_ext/1360937237/main.o
 .debug_info    0x00013c27      0x791 build/default/production/_ext/30620426/app_cli.o
 .debug_info    0x000143b8      0x913 build/default/production/_ext/1525186148/app_alive.o
 .debug_info    0x00014ccb      0x4a1 build/default/production/_ext/1026660007/app_root.o
 .debug_info    0x0001516c      0x4c4 build/default/production/_ext/1918720202/app_logging.o
 .debug_info    0x00015630      0x975 build/default/production/_ext/1798135708/dmesg.o
 .debug_info    0x00015fa5      0x443 build/default/production/_ext/751336192/xlog.o
 .debug_info    0x000163e8     0x1a00 build/default/production/_ext/1389938436/app_network.o
 .debug_info    0x00017de8      0x41a build/default/production/_ext/30602918/app_usb.o
 .debug_info    0x00018202      0x2b2 build/default/production/_ext/783082040/board_api.o
 .debug_info    0x000184b4      0xab6 build/default/production/_ext/783082040/usb_descriptors.o
 .debug_info    0x00018f6a      0xce1 build/default/production/_ext/2037418415/tcpip.o
 .debug_info    0x00019c4b      0x3b9 build/default/production/_ext/1264479574/def.o
 .debug_info    0x0001a004      0x64e build/default/production/_ext/1264479574/inet_chksum.o
 .debug_info    0x0001a652      0x113 build/default/production/_ext/1264479574/init.o
 .debug_info    0x0001a765      0x51b build/default/production/_ext/1264479574/ip.o
 .debug_info    0x0001ac80     0x124d build/default/production/_ext/1349076522/etharp.o
 .debug_info    0x0001becd      0xc43 build/default/production/_ext/1349076522/icmp.o
 .debug_info    0x0001cb10      0xded build/default/production/_ext/1349076522/ip4.o
 .debug_info    0x0001d8fd      0x72e build/default/production/_ext/1349076522/ip4_addr.o
 .debug_info    0x0001e02b     0x114f build/default/production/_ext/1349076522/ip4_frag.o
 .debug_info    0x0001f17a      0x97b build/default/production/_ext/1264479574/mem.o
 .debug_info    0x0001faf5      0xaad build/default/production/_ext/1264479574/memp.o
 .debug_info    0x000205a2      0xcc3 build/default/production/_ext/1264479574/netif.o
 .debug_info    0x00021265     0x1afb build/default/production/_ext/1264479574/pbuf.o
 .debug_info    0x00022d60      0xd76 build/default/production/_ext/1264479574/raw.o
 .debug_info    0x00023ad6      0x38d build/default/production/_ext/1264479574/stats.o
 .debug_info    0x00023e63     0x22d0 build/default/production/_ext/1264479574/tcp.o
 .debug_info    0x00026133     0x1a0d build/default/production/_ext/1264479574/tcp_in.o
 .debug_info    0x00027b40     0x1e3f build/default/production/_ext/1264479574/tcp_out.o
 .debug_info    0x0002997f      0xdb8 build/default/production/_ext/1264479574/timeouts.o
 .debug_info    0x0002a737     0x1288 build/default/production/_ext/1264479574/udp.o
 .debug_info    0x0002b9bf      0x9e0 build/default/production/_ext/534298161/ethernet.o
 .debug_info    0x0002c39f     0x1849 build/default/production/_ext/1439055959/ncm_device.o
 .debug_info    0x0002dbe8     0x1c95 build/default/production/_ext/761407912/tusb_fifo.o
 .debug_info    0x0002f87d     0x3976 build/default/production/_ext/781065747/usbd.o
 .debug_info    0x000331f3      0x80e build/default/production/_ext/781065747/usbd_control.o
 .debug_info    0x00033a01     0x2aff build/default/production/_ext/2093936272/dcd_samx7x.o
 .debug_info    0x00036500     0x1b28 build/default/production/_ext/1119931634/tusb.o
 .debug_info    0x00038028      0xcfd build/default/production/_ext/1017385999/sys_arch.o
 .debug_info    0x00038d25      0x212 C:/Program Files/Microchip/xc32/v5.00/bin/bin/../../lib/gcc/pic32c/13.2.1/../../../../pic32c/lib/thumb/v7e-m+dp/hard\libpic32c.a(data_init.o)
 .debug_info    0x00038f37       0xe1 C:/Program Files/Microchip/xc32/v5.00/bin/bin/../../lib/gcc/pic32c/13.2.1/../../../../pic32c/lib/thumb/v7e-m+dp/hard\libc-size-musl.a(memcmp.o)
 .debug_info    0x00039018       0xff C:/Program Files/Microchip/xc32/v5.00/bin/bin/../../lib/gcc/pic32c/13.2.1/../../../../pic32c/lib/thumb/v7e-m+dp/hard\libc-size-musl.a(memcpy.o)
 .debug_info    0x00039117       0xf6 C:/Program Files/Microchip/xc32/v5.00/bin/bin/../../lib/gcc/pic32c/13.2.1/../../../../pic32c/lib/thumb/v7e-m+dp/hard\libc-size-musl.a(memmove.o)
 .debug_info    0x0003920d       0xc2 C:/Program Files/Microchip/xc32/v5.00/bin/bin/../../lib/gcc/pic32c/13.2.1/../../../../pic32c/lib/thumb/v7e-m+dp/hard\libc-size-musl.a(memset.o)
 .debug_info    0x000392cf       0xab C:/Program Files/Microchip/xc32/v5.00/bin/bin/../../lib/gcc/pic32c/13.2.1/../../../../pic32c/lib/thumb/v7e-m+dp/hard\libc-size-musl.a(strlen.o)
 .debug_info    0x0003937a       0xeb C:/Program Files/Microchip/xc32/v5.00/bin/bin/../../lib/gcc/pic32c/13.2.1/../../../../pic32c/lib/thumb/v7e-m+dp/hard\libc-size-musl.a(strchr.o)
 .debug_info    0x00039465      0x133 C:/Program Files/Microchip/xc32/v5.00/bin/bin/../../lib/gcc/pic32c/13.2.1/../../../../pic32c/lib/thumb/v7e-m+dp/hard\libc-size-musl.a(strchrnul.o)
 .debug_info    0x00039598       0x95 C:/Program Files/Microchip/xc32/v5.00/bin/bin/../../lib/gcc/pic32c/13.2.1/../../../../pic32c/lib/thumb/v7e-m+dp/hard\libc-size-musl.a(strcmp.o)
 .debug_info    0x0003962d       0xdd C:/Program Files/Microchip/xc32/v5.00/bin/bin/../../lib/gcc/pic32c/13.2.1/../../../../pic32c/lib/thumb/v7e-m+dp/hard\libc-size-musl.a(strcpy.o)
 .debug_info    0x0003970a      0x109 C:/Program Files/Microchip/xc32/v5.00/bin/bin/../../lib/gcc/pic32c/13.2.1/../../../../pic32c/lib/thumb/v7e-m+dp/hard\libc-size-musl.a(strncpy.o)
 .debug_info    0x00039813       0xac C:/Program Files/Microchip/xc32/v5.00/bin/bin/../../lib/gcc/pic32c/13.2.1/../../../../pic32c/lib/thumb/v7e-m+dp/hard\libc-size-musl.a(stpcpy.o)
 .debug_info    0x000398bf       0xe8 C:/Program Files/Microchip/xc32/v5.00/bin/bin/../../lib/gcc/pic32c/13.2.1/../../../../pic32c/lib/thumb/v7e-m+dp/hard\libc-size-musl.a(stpncpy.o)
 .debug_info    0x000399a7      0x138 C:/Program Files/Microchip/xc32/v5.00/bin/bin/../../lib/gcc/pic32c/13.2.1/../../../../pic32c/lib/thumb/v7e-m+dp/hard\libc-musl.a(toupper.o)
 .debug_info    0x00039adf      0x2fb C:/Program Files/Microchip/xc32/v5.00/bin/bin/../../lib/gcc/pic32c/13.2.1/../../../../pic32c/lib/thumb/v7e-m+dp/hard\libc-musl.a(__libc_start_main.o)
 .debug_info    0x00039dda      0x276 C:/Program Files/Microchip/xc32/v5.00/bin/bin/../../lib/gcc/pic32c/13.2.1/../../../../pic32c/lib/thumb/v7e-m+dp/hard\libc-musl.a(libc.o)
 .debug_info    0x0003a050      0x45b C:/Program Files/Microchip/xc32/v5.00/bin/bin/../../lib/gcc/pic32c/13.2.1/../../../../pic32c/lib/thumb/v7e-m+dp/hard\libc-musl.a(vsnprintf.o)
 .debug_info    0x0003a4ab      0x170 C:/Program Files/Microchip/xc32/v5.00/bin/bin/../../lib/gcc/pic32c/13.2.1/../../../../pic32c/lib/thumb/v7e-m+dp/hard\libc-musl.a(snprintf.o)
 .debug_info    0x0003a61b      0x140 C:/Program Files/Microchip/xc32/v5.00/bin/bin/../../lib/gcc/pic32c/13.2.1/../../../../pic32c/lib/thumb/v7e-m+dp/hard\libc-musl.a(sprintf.o)
 .debug_info    0x0003a75b      0x14f C:/Program Files/Microchip/xc32/v5.00/bin/bin/../../lib/gcc/pic32c/13.2.1/../../../../pic32c/lib/thumb/v7e-m+dp/hard\libc-musl.a(vsprintf.o)
 .debug_info    0x0003a8aa       0xef C:/Program Files/Microchip/xc32/v5.00/bin/bin/../../lib/gcc/pic32c/13.2.1/../../../../pic32c/lib/thumb/v7e-m+dp/hard\libc-musl.a(atoi.o)
 .debug_info    0x0003a999      0x7b0 C:/Program Files/Microchip/xc32/v5.00/bin/bin/../../lib/gcc/pic32c/13.2.1/../../../../pic32c/lib/thumb/v7e-m+dp/hard\libc-musl.a(strtol.o)
 .debug_info    0x0003b149       0x97 C:/Program Files/Microchip/xc32/v5.00/bin/bin/../../lib/gcc/pic32c/13.2.1/../../../../pic32c/lib/thumb/v7e-m+dp/hard\libc-musl.a(__environ.o)
 .debug_info    0x0003b1e0       0x5b C:/Program Files/Microchip/xc32/v5.00/bin/bin/../../lib/gcc/pic32c/13.2.1/../../../../pic32c/lib/thumb/v7e-m+dp/hard\libc-musl.a(__errno_location.o)
 .debug_info    0x0003b23b      0x5a9 C:/Program Files/Microchip/xc32/v5.00/bin/bin/../../lib/gcc/pic32c/13.2.1/../../../../pic32c/lib/thumb/v7e-m+dp/hard\libc-musl.a(intscan.o)
 .debug_info    0x0003b7e4      0x3a3 C:/Program Files/Microchip/xc32/v5.00/bin/bin/../../lib/gcc/pic32c/13.2.1/../../../../pic32c/lib/thumb/v7e-m+dp/hard\libc-musl.a(shgetc.o)
 .debug_info    0x0003bb87      0x383 C:/Program Files/Microchip/xc32/v5.00/bin/bin/../../lib/gcc/pic32c/13.2.1/../../../../pic32c/lib/thumb/v7e-m+dp/hard\libc-musl.a(__uflow.o)
 .debug_info    0x0003bf0a      0x42c C:/Program Files/Microchip/xc32/v5.00/bin/bin/../../lib/gcc/pic32c/13.2.1/../../../../pic32c/lib/thumb/v7e-m+dp/hard\libc-musl.a(vfprintf.o)
 .debug_info    0x0003c336      0x377 C:/Program Files/Microchip/xc32/v5.00/bin/bin/../../lib/gcc/pic32c/13.2.1/../../../../pic32c/lib/thumb/v7e-m+dp/hard\libc-musl.a(__toread.o)
 .debug_info    0x0003c6ad      0x162 C:/Program Files/Microchip/xc32/v5.00/bin/bin/../../lib/gcc/pic32c/13.2.1/../../../../pic32c/lib/thumb/v7e-m+dp/hard\libc-musl.a(__pop_float.o)
 .debug_info    0x0003c80f      0x183 C:/Program Files/Microchip/xc32/v5.00/bin/bin/../../lib/gcc/pic32c/13.2.1/../../../../pic32c/lib/thumb/v7e-m+dp/hard\libc-musl.a(__pop_int.o)
 .debug_info    0x0003c992      0x187 C:/Program Files/Microchip/xc32/v5.00/bin/bin/../../lib/gcc/pic32c/13.2.1/../../../../pic32c/lib/thumb/v7e-m+dp/hard\libc-musl.a(__pop_ptr.o)
 .debug_info    0x0003cb19      0xaff C:/Program Files/Microchip/xc32/v5.00/bin/bin/../../lib/gcc/pic32c/13.2.1/../../../../pic32c/lib/thumb/v7e-m+dp/hard\libc-musl.a(__printf_core.o)
 .debug_info    0x0003d618      0x138 C:/Program Files/Microchip/xc32/v5.00/bin/bin/../../lib/gcc/pic32c/13.2.1/../../../../pic32c/lib/thumb/v7e-m+dp/hard\libc-musl.a(tolower.o)
 .debug_info    0x0003d750      0x709 C:/Program Files/Microchip/xc32/v5.00/bin/bin/../../lib/gcc/pic32c/13.2.1/../../../../pic32c/lib/thumb/v7e-m+dp/hard\libc-musl.a(__fmt_a.o)
 .debug_info    0x0003de59      0x36e C:/Program Files/Microchip/xc32/v5.00/bin/bin/../../lib/gcc/pic32c/13.2.1/../../../../pic32c/lib/thumb/v7e-m+dp/hard\libc-musl.a(__fmt_d.o)
 .debug_info    0x0003e1c7      0x671 C:/Program Files/Microchip/xc32/v5.00/bin/bin/../../lib/gcc/pic32c/13.2.1/../../../../pic32c/lib/thumb/v7e-m+dp/hard\libc-musl.a(__fmt_fp.o)
 .debug_info    0x0003e838      0x33f C:/Program Files/Microchip/xc32/v5.00/bin/bin/../../lib/gcc/pic32c/13.2.1/../../../../pic32c/lib/thumb/v7e-m+dp/hard\libc-musl.a(__fmt_o.o)
 .debug_info    0x0003eb77      0x2e3 C:/Program Files/Microchip/xc32/v5.00/bin/bin/../../lib/gcc/pic32c/13.2.1/../../../../pic32c/lib/thumb/v7e-m+dp/hard\libc-musl.a(__fmt_s.o)
 .debug_info    0x0003ee5a      0x33f C:/Program Files/Microchip/xc32/v5.00/bin/bin/../../lib/gcc/pic32c/13.2.1/../../../../pic32c/lib/thumb/v7e-m+dp/hard\libc-musl.a(__fmt_u.o)
 .debug_info    0x0003f199      0x3a1 C:/Program Files/Microchip/xc32/v5.00/bin/bin/../../lib/gcc/pic32c/13.2.1/../../../../pic32c/lib/thumb/v7e-m+dp/hard\libc-musl.a(__fmt_x.o)
 .debug_info    0x0003f53a      0x1ed C:/Program Files/Microchip/xc32/v5.00/bin/bin/../../lib/gcc/pic32c/13.2.1/../../../../pic32c/lib/thumb/v7e-m+dp/hard\libc-musl.a(__cvt_u.o)
 .debug_info    0x0003f727       0x35 C:/Program Files/Microchip/xc32/v5.00/bin/bin/../../lib/gcc/pic32c/13.2.1/thumb/v7e-m+dp/hard\libgcc.a(_aeabi_uldivmod.o)
 .debug_info    0x0003f75c      0x73c C:/Program Files/Microchip/xc32/v5.00/bin/bin/../../lib/gcc/pic32c/13.2.1/thumb/v7e-m+dp/hard\libgcc.a(_udivmoddi4.o)
 .debug_info    0x0003fe98       0x41 C:/Program Files/Microchip/xc32/v5.00/bin/bin/../../lib/gcc/pic32c/13.2.1/thumb/v7e-m+dp/hard\libgcc.a(_dvmd_tls.o)
 .debug_info    0x0003fed9      0x110 C:/Program Files/Microchip/xc32/v5.00/bin/bin/../../lib/gcc/pic32c/13.2.1/../../../../pic32c/lib/thumb/v7e-m+dp/hard\libpic32c.a(pic32_data_init_clear.o)
 .debug_info    0x0003ffe9      0x126 C:/Program Files/Microchip/xc32/v5.00/bin/bin/../../lib/gcc/pic32c/13.2.1/../../../../pic32c/lib/thumb/v7e-m+dp/hard\libpic32c.a(pic32_data_init_copy.o)

.debug_abbrev   0x00000000     0xd1f2
 .debug_abbrev  0x00000000      0x12c build/default/production/_ext/60165520/plib_clk.o
 .debug_abbrev  0x0000012c      0x1b4 build/default/production/_ext/60167248/plib_efc.o
 .debug_abbrev  0x000002e0      0x22c build/default/production/_ext/1865468468/plib_nvic.o
 .debug_abbrev  0x0000050c      0x12b build/default/production/_ext/60177924/plib_pio.o
 .debug_abbrev  0x00000637      0x170 build/default/production/_ext/1827571544/plib_systick.o
 .debug_abbrev  0x000007a7      0x153 build/default/production/_ext/829342655/plib_tc3.o
 .debug_abbrev  0x000008fa      0x254 build/default/production/_ext/1865657120/plib_uart2.o
 .debug_abbrev  0x00000b4e       0xbd build/default/production/_ext/1171490990/initialization.o
 .debug_abbrev  0x00000c0b       0xd3 build/default/production/_ext/1171490990/interrupts.o
 .debug_abbrev  0x00000cde       0x49 build/default/production/_ext/1171490990/exceptions.o
 .debug_abbrev  0x00000d27      0x232 build/default/production/_ext/1171490990/startup_xc32.o
 .debug_abbrev  0x00000f59      0x161 build/default/production/_ext/249897560/boot_manager.o
 .debug_abbrev  0x000010ba      0x23b build/default/production/_ext/1778509306/os.o
 .debug_abbrev  0x000012f5      0x22e build/default/production/_ext/1134253236/simple_shield.o
 .debug_abbrev  0x00001523      0x2e7 build/default/production/_ext/667517761/cli_command.o
 .debug_abbrev  0x0000180a      0x1d6 build/default/production/_ext/818259185/cli_setup.o
 .debug_abbrev  0x000019e0      0x216 build/default/production/_ext/1422079320/embedded_cli.o
 .debug_abbrev  0x00001bf6      0x29c build/default/production/_ext/216470852/uart_irq.o
 .debug_abbrev  0x00001e92      0x27e build/default/production/_ext/1908456078/port.o
 .debug_abbrev  0x00002110      0x25c build/default/production/_ext/1562497596/heap_4.o
 .debug_abbrev  0x0000236c       0xf9 build/default/production/_ext/502845695/list.o
 .debug_abbrev  0x00002465      0x371 build/default/production/_ext/502845695/queue.o
 .debug_abbrev  0x000027d6      0x30b build/default/production/_ext/502845695/stream_buffer.o
 .debug_abbrev  0x00002ae1      0x399 build/default/production/_ext/502845695/tasks.o
 .debug_abbrev  0x00002e7a      0x35f build/default/production/_ext/502845695/timers.o
 .debug_abbrev  0x000031d9      0x269 build/default/production/_ext/697864676/date_time.o
 .debug_abbrev  0x00003442      0x17b build/default/production/_ext/1260377903/ring_buffer.o
 .debug_abbrev  0x000035bd       0x8b build/default/production/_ext/1226835810/tick.o
 .debug_abbrev  0x00003648      0x139 build/default/production/_ext/1360937237/ATSAMV71cm7_it.o
 .debug_abbrev  0x00003781       0xbe build/default/production/_ext/1360937237/main.o
 .debug_abbrev  0x0000383f      0x252 build/default/production/_ext/30620426/app_cli.o
 .debug_abbrev  0x00003a91      0x1a1 build/default/production/_ext/1525186148/app_alive.o
 .debug_abbrev  0x00003c32      0x18a build/default/production/_ext/1026660007/app_root.o
 .debug_abbrev  0x00003dbc      0x19d build/default/production/_ext/1918720202/app_logging.o
 .debug_abbrev  0x00003f59      0x277 build/default/production/_ext/1798135708/dmesg.o
 .debug_abbrev  0x000041d0      0x1b2 build/default/production/_ext/751336192/xlog.o
 .debug_abbrev  0x00004382      0x3dd build/default/production/_ext/1389938436/app_network.o
 .debug_abbrev  0x0000475f      0x1a8 build/default/production/_ext/30602918/app_usb.o
 .debug_abbrev  0x00004907      0x179 build/default/production/_ext/783082040/board_api.o
 .debug_abbrev  0x00004a80      0x24d build/default/production/_ext/783082040/usb_descriptors.o
 .debug_abbrev  0x00004ccd      0x330 build/default/production/_ext/2037418415/tcpip.o
 .debug_abbrev  0x00004ffd      0x145 build/default/production/_ext/1264479574/def.o
 .debug_abbrev  0x00005142      0x186 build/default/production/_ext/1264479574/inet_chksum.o
 .debug_abbrev  0x000052c8       0x8c build/default/production/_ext/1264479574/init.o
 .debug_abbrev  0x00005354      0x12c build/default/production/_ext/1264479574/ip.o
 .debug_abbrev  0x00005480      0x2cd build/default/production/_ext/1349076522/etharp.o
 .debug_abbrev  0x0000574d      0x278 build/default/production/_ext/1349076522/icmp.o
 .debug_abbrev  0x000059c5      0x265 build/default/production/_ext/1349076522/ip4.o
 .debug_abbrev  0x00005c2a      0x263 build/default/production/_ext/1349076522/ip4_addr.o
 .debug_abbrev  0x00005e8d      0x2ff build/default/production/_ext/1349076522/ip4_frag.o
 .debug_abbrev  0x0000618c      0x281 build/default/production/_ext/1264479574/mem.o
 .debug_abbrev  0x0000640d      0x272 build/default/production/_ext/1264479574/memp.o
 .debug_abbrev  0x0000667f      0x2fa build/default/production/_ext/1264479574/netif.o
 .debug_abbrev  0x00006979      0x34e build/default/production/_ext/1264479574/pbuf.o
 .debug_abbrev  0x00006cc7      0x319 build/default/production/_ext/1264479574/raw.o
 .debug_abbrev  0x00006fe0      0x112 build/default/production/_ext/1264479574/stats.o
 .debug_abbrev  0x000070f2      0x3f1 build/default/production/_ext/1264479574/tcp.o
 .debug_abbrev  0x000074e3      0x31e build/default/production/_ext/1264479574/tcp_in.o
 .debug_abbrev  0x00007801      0x30f build/default/production/_ext/1264479574/tcp_out.o
 .debug_abbrev  0x00007b10      0x2d8 build/default/production/_ext/1264479574/timeouts.o
 .debug_abbrev  0x00007de8      0x32a build/default/production/_ext/1264479574/udp.o
 .debug_abbrev  0x00008112      0x272 build/default/production/_ext/534298161/ethernet.o
 .debug_abbrev  0x00008384      0x468 build/default/production/_ext/1439055959/ncm_device.o
 .debug_abbrev  0x000087ec      0x38b build/default/production/_ext/761407912/tusb_fifo.o
 .debug_abbrev  0x00008b77      0x5c0 build/default/production/_ext/781065747/usbd.o
 .debug_abbrev  0x00009137      0x2f7 build/default/production/_ext/781065747/usbd_control.o
 .debug_abbrev  0x0000942e      0x567 build/default/production/_ext/2093936272/dcd_samx7x.o
 .debug_abbrev  0x00009995      0x465 build/default/production/_ext/1119931634/tusb.o
 .debug_abbrev  0x00009dfa      0x2ad build/default/production/_ext/1017385999/sys_arch.o
 .debug_abbrev  0x0000a0a7      0x156 C:/Program Files/Microchip/xc32/v5.00/bin/bin/../../lib/gcc/pic32c/13.2.1/../../../../pic32c/lib/thumb/v7e-m+dp/hard\libpic32c.a(data_init.o)
 .debug_abbrev  0x0000a1fd       0xa7 C:/Program Files/Microchip/xc32/v5.00/bin/bin/../../lib/gcc/pic32c/13.2.1/../../../../pic32c/lib/thumb/v7e-m+dp/hard\libc-size-musl.a(memcmp.o)
 .debug_abbrev  0x0000a2a4       0xaa C:/Program Files/Microchip/xc32/v5.00/bin/bin/../../lib/gcc/pic32c/13.2.1/../../../../pic32c/lib/thumb/v7e-m+dp/hard\libc-size-musl.a(memcpy.o)
 .debug_abbrev  0x0000a34e       0x9d C:/Program Files/Microchip/xc32/v5.00/bin/bin/../../lib/gcc/pic32c/13.2.1/../../../../pic32c/lib/thumb/v7e-m+dp/hard\libc-size-musl.a(memmove.o)
 .debug_abbrev  0x0000a3eb       0xa2 C:/Program Files/Microchip/xc32/v5.00/bin/bin/../../lib/gcc/pic32c/13.2.1/../../../../pic32c/lib/thumb/v7e-m+dp/hard\libc-size-musl.a(memset.o)
 .debug_abbrev  0x0000a48d       0x91 C:/Program Files/Microchip/xc32/v5.00/bin/bin/../../lib/gcc/pic32c/13.2.1/../../../../pic32c/lib/thumb/v7e-m+dp/hard\libc-size-musl.a(strlen.o)
 .debug_abbrev  0x0000a51e       0xb5 C:/Program Files/Microchip/xc32/v5.00/bin/bin/../../lib/gcc/pic32c/13.2.1/../../../../pic32c/lib/thumb/v7e-m+dp/hard\libc-size-musl.a(strchr.o)
 .debug_abbrev  0x0000a5d3       0xb8 C:/Program Files/Microchip/xc32/v5.00/bin/bin/../../lib/gcc/pic32c/13.2.1/../../../../pic32c/lib/thumb/v7e-m+dp/hard\libc-size-musl.a(strchrnul.o)
 .debug_abbrev  0x0000a68b       0x6e C:/Program Files/Microchip/xc32/v5.00/bin/bin/../../lib/gcc/pic32c/13.2.1/../../../../pic32c/lib/thumb/v7e-m+dp/hard\libc-size-musl.a(strcmp.o)
 .debug_abbrev  0x0000a6f9       0xb5 C:/Program Files/Microchip/xc32/v5.00/bin/bin/../../lib/gcc/pic32c/13.2.1/../../../../pic32c/lib/thumb/v7e-m+dp/hard\libc-size-musl.a(strcpy.o)
 .debug_abbrev  0x0000a7ae       0xb0 C:/Program Files/Microchip/xc32/v5.00/bin/bin/../../lib/gcc/pic32c/13.2.1/../../../../pic32c/lib/thumb/v7e-m+dp/hard\libc-size-musl.a(strncpy.o)
 .debug_abbrev  0x0000a85e       0x6e C:/Program Files/Microchip/xc32/v5.00/bin/bin/../../lib/gcc/pic32c/13.2.1/../../../../pic32c/lib/thumb/v7e-m+dp/hard\libc-size-musl.a(stpcpy.o)
 .debug_abbrev  0x0000a8cc       0xa5 C:/Program Files/Microchip/xc32/v5.00/bin/bin/../../lib/gcc/pic32c/13.2.1/../../../../pic32c/lib/thumb/v7e-m+dp/hard\libc-size-musl.a(stpncpy.o)
 .debug_abbrev  0x0000a971      0x108 C:/Program Files/Microchip/xc32/v5.00/bin/bin/../../lib/gcc/pic32c/13.2.1/../../../../pic32c/lib/thumb/v7e-m+dp/hard\libc-musl.a(toupper.o)
 .debug_abbrev  0x0000aa79      0x133 C:/Program Files/Microchip/xc32/v5.00/bin/bin/../../lib/gcc/pic32c/13.2.1/../../../../pic32c/lib/thumb/v7e-m+dp/hard\libc-musl.a(__libc_start_main.o)
 .debug_abbrev  0x0000abac       0xd4 C:/Program Files/Microchip/xc32/v5.00/bin/bin/../../lib/gcc/pic32c/13.2.1/../../../../pic32c/lib/thumb/v7e-m+dp/hard\libc-musl.a(libc.o)
 .debug_abbrev  0x0000ac80      0x198 C:/Program Files/Microchip/xc32/v5.00/bin/bin/../../lib/gcc/pic32c/13.2.1/../../../../pic32c/lib/thumb/v7e-m+dp/hard\libc-musl.a(vsnprintf.o)
 .debug_abbrev  0x0000ae18      0x10e C:/Program Files/Microchip/xc32/v5.00/bin/bin/../../lib/gcc/pic32c/13.2.1/../../../../pic32c/lib/thumb/v7e-m+dp/hard\libc-musl.a(snprintf.o)
 .debug_abbrev  0x0000af26      0x10e C:/Program Files/Microchip/xc32/v5.00/bin/bin/../../lib/gcc/pic32c/13.2.1/../../../../pic32c/lib/thumb/v7e-m+dp/hard\libc-musl.a(sprintf.o)
 .debug_abbrev  0x0000b034       0xd6 C:/Program Files/Microchip/xc32/v5.00/bin/bin/../../lib/gcc/pic32c/13.2.1/../../../../pic32c/lib/thumb/v7e-m+dp/hard\libc-musl.a(vsprintf.o)
 .debug_abbrev  0x0000b10a       0xc4 C:/Program Files/Microchip/xc32/v5.00/bin/bin/../../lib/gcc/pic32c/13.2.1/../../../../pic32c/lib/thumb/v7e-m+dp/hard\libc-musl.a(atoi.o)
 .debug_abbrev  0x0000b1ce      0x1e5 C:/Program Files/Microchip/xc32/v5.00/bin/bin/../../lib/gcc/pic32c/13.2.1/../../../../pic32c/lib/thumb/v7e-m+dp/hard\libc-musl.a(strtol.o)
 .debug_abbrev  0x0000b3b3       0x62 C:/Program Files/Microchip/xc32/v5.00/bin/bin/../../lib/gcc/pic32c/13.2.1/../../../../pic32c/lib/thumb/v7e-m+dp/hard\libc-musl.a(__environ.o)
 .debug_abbrev  0x0000b415       0x39 C:/Program Files/Microchip/xc32/v5.00/bin/bin/../../lib/gcc/pic32c/13.2.1/../../../../pic32c/lib/thumb/v7e-m+dp/hard\libc-musl.a(__errno_location.o)
 .debug_abbrev  0x0000b44e      0x20e C:/Program Files/Microchip/xc32/v5.00/bin/bin/../../lib/gcc/pic32c/13.2.1/../../../../pic32c/lib/thumb/v7e-m+dp/hard\libc-musl.a(intscan.o)
 .debug_abbrev  0x0000b65c      0x167 C:/Program Files/Microchip/xc32/v5.00/bin/bin/../../lib/gcc/pic32c/13.2.1/../../../../pic32c/lib/thumb/v7e-m+dp/hard\libc-musl.a(shgetc.o)
 .debug_abbrev  0x0000b7c3      0x142 C:/Program Files/Microchip/xc32/v5.00/bin/bin/../../lib/gcc/pic32c/13.2.1/../../../../pic32c/lib/thumb/v7e-m+dp/hard\libc-musl.a(__uflow.o)
 .debug_abbrev  0x0000b905      0x1a4 C:/Program Files/Microchip/xc32/v5.00/bin/bin/../../lib/gcc/pic32c/13.2.1/../../../../pic32c/lib/thumb/v7e-m+dp/hard\libc-musl.a(vfprintf.o)
 .debug_abbrev  0x0000baa9      0x148 C:/Program Files/Microchip/xc32/v5.00/bin/bin/../../lib/gcc/pic32c/13.2.1/../../../../pic32c/lib/thumb/v7e-m+dp/hard\libc-musl.a(__toread.o)
 .debug_abbrev  0x0000bbf1       0xdc C:/Program Files/Microchip/xc32/v5.00/bin/bin/../../lib/gcc/pic32c/13.2.1/../../../../pic32c/lib/thumb/v7e-m+dp/hard\libc-musl.a(__pop_float.o)
 .debug_abbrev  0x0000bccd       0xdc C:/Program Files/Microchip/xc32/v5.00/bin/bin/../../lib/gcc/pic32c/13.2.1/../../../../pic32c/lib/thumb/v7e-m+dp/hard\libc-musl.a(__pop_int.o)
 .debug_abbrev  0x0000bda9       0xed C:/Program Files/Microchip/xc32/v5.00/bin/bin/../../lib/gcc/pic32c/13.2.1/../../../../pic32c/lib/thumb/v7e-m+dp/hard\libc-musl.a(__pop_ptr.o)
 .debug_abbrev  0x0000be96      0x33f C:/Program Files/Microchip/xc32/v5.00/bin/bin/../../lib/gcc/pic32c/13.2.1/../../../../pic32c/lib/thumb/v7e-m+dp/hard\libc-musl.a(__printf_core.o)
 .debug_abbrev  0x0000c1d5      0x108 C:/Program Files/Microchip/xc32/v5.00/bin/bin/../../lib/gcc/pic32c/13.2.1/../../../../pic32c/lib/thumb/v7e-m+dp/hard\libc-musl.a(tolower.o)
 .debug_abbrev  0x0000c2dd      0x1f7 C:/Program Files/Microchip/xc32/v5.00/bin/bin/../../lib/gcc/pic32c/13.2.1/../../../../pic32c/lib/thumb/v7e-m+dp/hard\libc-musl.a(__fmt_a.o)
 .debug_abbrev  0x0000c4d4      0x17c C:/Program Files/Microchip/xc32/v5.00/bin/bin/../../lib/gcc/pic32c/13.2.1/../../../../pic32c/lib/thumb/v7e-m+dp/hard\libc-musl.a(__fmt_d.o)
 .debug_abbrev  0x0000c650      0x1e8 C:/Program Files/Microchip/xc32/v5.00/bin/bin/../../lib/gcc/pic32c/13.2.1/../../../../pic32c/lib/thumb/v7e-m+dp/hard\libc-musl.a(__fmt_fp.o)
 .debug_abbrev  0x0000c838      0x17c C:/Program Files/Microchip/xc32/v5.00/bin/bin/../../lib/gcc/pic32c/13.2.1/../../../../pic32c/lib/thumb/v7e-m+dp/hard\libc-musl.a(__fmt_o.o)
 .debug_abbrev  0x0000c9b4      0x15b C:/Program Files/Microchip/xc32/v5.00/bin/bin/../../lib/gcc/pic32c/13.2.1/../../../../pic32c/lib/thumb/v7e-m+dp/hard\libc-musl.a(__fmt_s.o)
 .debug_abbrev  0x0000cb0f      0x17c C:/Program Files/Microchip/xc32/v5.00/bin/bin/../../lib/gcc/pic32c/13.2.1/../../../../pic32c/lib/thumb/v7e-m+dp/hard\libc-musl.a(__fmt_u.o)
 .debug_abbrev  0x0000cc8b      0x15a C:/Program Files/Microchip/xc32/v5.00/bin/bin/../../lib/gcc/pic32c/13.2.1/../../../../pic32c/lib/thumb/v7e-m+dp/hard\libc-musl.a(__fmt_x.o)
 .debug_abbrev  0x0000cde5       0xfe C:/Program Files/Microchip/xc32/v5.00/bin/bin/../../lib/gcc/pic32c/13.2.1/../../../../pic32c/lib/thumb/v7e-m+dp/hard\libc-musl.a(__cvt_u.o)
 .debug_abbrev  0x0000cee3       0x21 C:/Program Files/Microchip/xc32/v5.00/bin/bin/../../lib/gcc/pic32c/13.2.1/thumb/v7e-m+dp/hard\libgcc.a(_aeabi_uldivmod.o)
 .debug_abbrev  0x0000cf04      0x163 C:/Program Files/Microchip/xc32/v5.00/bin/bin/../../lib/gcc/pic32c/13.2.1/thumb/v7e-m+dp/hard\libgcc.a(_udivmoddi4.o)
 .debug_abbrev  0x0000d067       0x1f C:/Program Files/Microchip/xc32/v5.00/bin/bin/../../lib/gcc/pic32c/13.2.1/thumb/v7e-m+dp/hard\libgcc.a(_dvmd_tls.o)
 .debug_abbrev  0x0000d086       0xa2 C:/Program Files/Microchip/xc32/v5.00/bin/bin/../../lib/gcc/pic32c/13.2.1/../../../../pic32c/lib/thumb/v7e-m+dp/hard\libpic32c.a(pic32_data_init_clear.o)
 .debug_abbrev  0x0000d128       0xca C:/Program Files/Microchip/xc32/v5.00/bin/bin/../../lib/gcc/pic32c/13.2.1/../../../../pic32c/lib/thumb/v7e-m+dp/hard\libpic32c.a(pic32_data_init_copy.o)

.debug_loc      0x00000000    0x1824b
 .debug_loc     0x00000000      0x220 build/default/production/_ext/60165520/plib_clk.o
 .debug_loc     0x00000220      0x3a0 build/default/production/_ext/60167248/plib_efc.o
 .debug_loc     0x000005c0      0x394 build/default/production/_ext/1865468468/plib_nvic.o
 .debug_loc     0x00000954      0x324 build/default/production/_ext/60177924/plib_pio.o
 .debug_loc     0x00000c78      0x480 build/default/production/_ext/1827571544/plib_systick.o
 .debug_loc     0x000010f8      0x2a0 build/default/production/_ext/829342655/plib_tc3.o
 .debug_loc     0x00001398      0x550 build/default/production/_ext/1865657120/plib_uart2.o
 .debug_loc     0x000018e8       0x50 build/default/production/_ext/1171490990/initialization.o
 .debug_loc     0x00001938      0x108 build/default/production/_ext/1171490990/exceptions.o
 .debug_loc     0x00001a40       0x47 build/default/production/_ext/1171490990/startup_xc32.o
 .debug_loc     0x00001a87       0x58 build/default/production/_ext/249897560/boot_manager.o
 .debug_loc     0x00001adf      0x394 build/default/production/_ext/1778509306/os.o
 .debug_loc     0x00001e73      0x3f2 build/default/production/_ext/1134253236/simple_shield.o
 .debug_loc     0x00002265      0x2d6 build/default/production/_ext/667517761/cli_command.o
 .debug_loc     0x0000253b      0x1d4 build/default/production/_ext/818259185/cli_setup.o
 .debug_loc     0x0000270f      0xbec build/default/production/_ext/1422079320/embedded_cli.o
 .debug_loc     0x000032fb      0x78c build/default/production/_ext/216470852/uart_irq.o
 .debug_loc     0x00003a87      0x30c build/default/production/_ext/1908456078/port.o
 .debug_loc     0x00003d93      0x30a build/default/production/_ext/1562497596/heap_4.o
 .debug_loc     0x0000409d      0x1cc build/default/production/_ext/502845695/list.o
 .debug_loc     0x00004269      0xe22 build/default/production/_ext/502845695/queue.o
 .debug_loc     0x0000508b      0x995 build/default/production/_ext/502845695/stream_buffer.o
 .debug_loc     0x00005a20     0x17c5 build/default/production/_ext/502845695/tasks.o
 .debug_loc     0x000071e5      0xa30 build/default/production/_ext/502845695/timers.o
 .debug_loc     0x00007c15      0x4d4 build/default/production/_ext/697864676/date_time.o
 .debug_loc     0x000080e9      0x380 build/default/production/_ext/1260377903/ring_buffer.o
 .debug_loc     0x00008469       0x88 build/default/production/_ext/1226835810/tick.o
 .debug_loc     0x000084f1      0x130 build/default/production/_ext/1360937237/ATSAMV71cm7_it.o
 .debug_loc     0x00008621       0x2c build/default/production/_ext/1360937237/main.o
 .debug_loc     0x0000864d      0x128 build/default/production/_ext/30620426/app_cli.o
 .debug_loc     0x00008775       0x38 build/default/production/_ext/1525186148/app_alive.o
 .debug_loc     0x000087ad       0xf8 build/default/production/_ext/1026660007/app_root.o
 .debug_loc     0x000088a5       0x3a build/default/production/_ext/1918720202/app_logging.o
 .debug_loc     0x000088df      0x3f0 build/default/production/_ext/1798135708/dmesg.o
 .debug_loc     0x00008ccf       0xba build/default/production/_ext/751336192/xlog.o
 .debug_loc     0x00008d89      0x498 build/default/production/_ext/1389938436/app_network.o
 .debug_loc     0x00009221       0x38 build/default/production/_ext/30602918/app_usb.o
 .debug_loc     0x00009259      0x22c build/default/production/_ext/783082040/board_api.o
 .debug_loc     0x00009485      0x1d6 build/default/production/_ext/783082040/usb_descriptors.o
 .debug_loc     0x0000965b      0x538 build/default/production/_ext/2037418415/tcpip.o
 .debug_loc     0x00009b93      0x210 build/default/production/_ext/1264479574/def.o
 .debug_loc     0x00009da3      0x2dc build/default/production/_ext/1264479574/inet_chksum.o
 .debug_loc     0x0000a07f       0x50 build/default/production/_ext/1264479574/init.o
 .debug_loc     0x0000a0cf      0x50c build/default/production/_ext/1349076522/etharp.o
 .debug_loc     0x0000a5db      0x141 build/default/production/_ext/1349076522/icmp.o
 .debug_loc     0x0000a71c      0x1ec build/default/production/_ext/1349076522/ip4.o
 .debug_loc     0x0000a908      0x254 build/default/production/_ext/1349076522/ip4_addr.o
 .debug_loc     0x0000ab5c      0x350 build/default/production/_ext/1349076522/ip4_frag.o
 .debug_loc     0x0000aeac      0x2e8 build/default/production/_ext/1264479574/mem.o
 .debug_loc     0x0000b194      0x28c build/default/production/_ext/1264479574/memp.o
 .debug_loc     0x0000b420      0x80c build/default/production/_ext/1264479574/netif.o
 .debug_loc     0x0000bc2c      0xbd8 build/default/production/_ext/1264479574/pbuf.o
 .debug_loc     0x0000c804      0x4b4 build/default/production/_ext/1264479574/raw.o
 .debug_loc     0x0000ccb8       0x44 build/default/production/_ext/1264479574/stats.o
 .debug_loc     0x0000ccfc     0x10a3 build/default/production/_ext/1264479574/tcp.o
 .debug_loc     0x0000dd9f      0x374 build/default/production/_ext/1264479574/tcp_in.o
 .debug_loc     0x0000e113      0x7a7 build/default/production/_ext/1264479574/tcp_out.o
 .debug_loc     0x0000e8ba      0x2fc build/default/production/_ext/1264479574/timeouts.o
 .debug_loc     0x0000ebb6      0x58d build/default/production/_ext/1264479574/udp.o
 .debug_loc     0x0000f143       0xa0 build/default/production/_ext/534298161/ethernet.o
 .debug_loc     0x0000f1e3      0x8bc build/default/production/_ext/1439055959/ncm_device.o
 .debug_loc     0x0000fa9f      0x6cc build/default/production/_ext/761407912/tusb_fifo.o
 .debug_loc     0x0001016b     0x1222 build/default/production/_ext/781065747/usbd.o
 .debug_loc     0x0001138d      0x2d0 build/default/production/_ext/781065747/usbd_control.o
 .debug_loc     0x0001165d      0x802 build/default/production/_ext/2093936272/dcd_samx7x.o
 .debug_loc     0x00011e5f      0x78e build/default/production/_ext/1119931634/tusb.o
 .debug_loc     0x000125ed      0x668 build/default/production/_ext/1017385999/sys_arch.o
 .debug_loc     0x00012c55      0x113 C:/Program Files/Microchip/xc32/v5.00/bin/bin/../../lib/gcc/pic32c/13.2.1/../../../../pic32c/lib/thumb/v7e-m+dp/hard\libpic32c.a(data_init.o)
 .debug_loc     0x00012d68      0x110 C:/Program Files/Microchip/xc32/v5.00/bin/bin/../../lib/gcc/pic32c/13.2.1/../../../../pic32c/lib/thumb/v7e-m+dp/hard\libc-size-musl.a(memcmp.o)
 .debug_loc     0x00012e78      0x10b C:/Program Files/Microchip/xc32/v5.00/bin/bin/../../lib/gcc/pic32c/13.2.1/../../../../pic32c/lib/thumb/v7e-m+dp/hard\libc-size-musl.a(memcpy.o)
 .debug_loc     0x00012f83      0x1c9 C:/Program Files/Microchip/xc32/v5.00/bin/bin/../../lib/gcc/pic32c/13.2.1/../../../../pic32c/lib/thumb/v7e-m+dp/hard\libc-size-musl.a(memmove.o)
 .debug_loc     0x0001314c       0xa5 C:/Program Files/Microchip/xc32/v5.00/bin/bin/../../lib/gcc/pic32c/13.2.1/../../../../pic32c/lib/thumb/v7e-m+dp/hard\libc-size-musl.a(memset.o)
 .debug_loc     0x000131f1       0xaf C:/Program Files/Microchip/xc32/v5.00/bin/bin/../../lib/gcc/pic32c/13.2.1/../../../../pic32c/lib/thumb/v7e-m+dp/hard\libc-size-musl.a(strlen.o)
 .debug_loc     0x000132a0       0x98 C:/Program Files/Microchip/xc32/v5.00/bin/bin/../../lib/gcc/pic32c/13.2.1/../../../../pic32c/lib/thumb/v7e-m+dp/hard\libc-size-musl.a(strchr.o)
 .debug_loc     0x00013338       0xe0 C:/Program Files/Microchip/xc32/v5.00/bin/bin/../../lib/gcc/pic32c/13.2.1/../../../../pic32c/lib/thumb/v7e-m+dp/hard\libc-size-musl.a(strchrnul.o)
 .debug_loc     0x00013418       0x96 C:/Program Files/Microchip/xc32/v5.00/bin/bin/../../lib/gcc/pic32c/13.2.1/../../../../pic32c/lib/thumb/v7e-m+dp/hard\libc-size-musl.a(strcmp.o)
 .debug_loc     0x000134ae       0x6d C:/Program Files/Microchip/xc32/v5.00/bin/bin/../../lib/gcc/pic32c/13.2.1/../../../../pic32c/lib/thumb/v7e-m+dp/hard\libc-size-musl.a(strcpy.o)
 .debug_loc     0x0001351b       0x98 C:/Program Files/Microchip/xc32/v5.00/bin/bin/../../lib/gcc/pic32c/13.2.1/../../../../pic32c/lib/thumb/v7e-m+dp/hard\libc-size-musl.a(strncpy.o)
 .debug_loc     0x000135b3       0x6d C:/Program Files/Microchip/xc32/v5.00/bin/bin/../../lib/gcc/pic32c/13.2.1/../../../../pic32c/lib/thumb/v7e-m+dp/hard\libc-size-musl.a(stpcpy.o)
 .debug_loc     0x00013620      0x1d7 C:/Program Files/Microchip/xc32/v5.00/bin/bin/../../lib/gcc/pic32c/13.2.1/../../../../pic32c/lib/thumb/v7e-m+dp/hard\libc-size-musl.a(stpncpy.o)
 .debug_loc     0x000137f7       0x50 C:/Program Files/Microchip/xc32/v5.00/bin/bin/../../lib/gcc/pic32c/13.2.1/../../../../pic32c/lib/thumb/v7e-m+dp/hard\libc-musl.a(toupper.o)
 .debug_loc     0x00013847       0x51 C:/Program Files/Microchip/xc32/v5.00/bin/bin/../../lib/gcc/pic32c/13.2.1/../../../../pic32c/lib/thumb/v7e-m+dp/hard\libc-musl.a(__libc_start_main.o)
 .debug_loc     0x00013898       0xf3 C:/Program Files/Microchip/xc32/v5.00/bin/bin/../../lib/gcc/pic32c/13.2.1/../../../../pic32c/lib/thumb/v7e-m+dp/hard\libc-musl.a(vsnprintf.o)
 .debug_loc     0x0001398b       0xbb C:/Program Files/Microchip/xc32/v5.00/bin/bin/../../lib/gcc/pic32c/13.2.1/../../../../pic32c/lib/thumb/v7e-m+dp/hard\libc-musl.a(snprintf.o)
 .debug_loc     0x00013a46       0x90 C:/Program Files/Microchip/xc32/v5.00/bin/bin/../../lib/gcc/pic32c/13.2.1/../../../../pic32c/lib/thumb/v7e-m+dp/hard\libc-musl.a(sprintf.o)
 .debug_loc     0x00013ad6       0x78 C:/Program Files/Microchip/xc32/v5.00/bin/bin/../../lib/gcc/pic32c/13.2.1/../../../../pic32c/lib/thumb/v7e-m+dp/hard\libc-musl.a(vsprintf.o)
 .debug_loc     0x00013b4e       0x9e C:/Program Files/Microchip/xc32/v5.00/bin/bin/../../lib/gcc/pic32c/13.2.1/../../../../pic32c/lib/thumb/v7e-m+dp/hard\libc-musl.a(atoi.o)
 .debug_loc     0x00013bec      0x4b2 C:/Program Files/Microchip/xc32/v5.00/bin/bin/../../lib/gcc/pic32c/13.2.1/../../../../pic32c/lib/thumb/v7e-m+dp/hard\libc-musl.a(strtol.o)
 .debug_loc     0x0001409e      0x635 C:/Program Files/Microchip/xc32/v5.00/bin/bin/../../lib/gcc/pic32c/13.2.1/../../../../pic32c/lib/thumb/v7e-m+dp/hard\libc-musl.a(intscan.o)
 .debug_loc     0x000146d3       0x91 C:/Program Files/Microchip/xc32/v5.00/bin/bin/../../lib/gcc/pic32c/13.2.1/../../../../pic32c/lib/thumb/v7e-m+dp/hard\libc-musl.a(shgetc.o)
 .debug_loc     0x00014764       0x5a C:/Program Files/Microchip/xc32/v5.00/bin/bin/../../lib/gcc/pic32c/13.2.1/../../../../pic32c/lib/thumb/v7e-m+dp/hard\libc-musl.a(__uflow.o)
 .debug_loc     0x000147be       0xa3 C:/Program Files/Microchip/xc32/v5.00/bin/bin/../../lib/gcc/pic32c/13.2.1/../../../../pic32c/lib/thumb/v7e-m+dp/hard\libc-musl.a(vfprintf.o)
 .debug_loc     0x00014861       0x42 C:/Program Files/Microchip/xc32/v5.00/bin/bin/../../lib/gcc/pic32c/13.2.1/../../../../pic32c/lib/thumb/v7e-m+dp/hard\libc-musl.a(__toread.o)
 .debug_loc     0x000148a3       0xa4 C:/Program Files/Microchip/xc32/v5.00/bin/bin/../../lib/gcc/pic32c/13.2.1/../../../../pic32c/lib/thumb/v7e-m+dp/hard\libc-musl.a(__pop_float.o)
 .debug_loc     0x00014947      0x36f C:/Program Files/Microchip/xc32/v5.00/bin/bin/../../lib/gcc/pic32c/13.2.1/../../../../pic32c/lib/thumb/v7e-m+dp/hard\libc-musl.a(__pop_int.o)
 .debug_loc     0x00014cb6      0x157 C:/Program Files/Microchip/xc32/v5.00/bin/bin/../../lib/gcc/pic32c/13.2.1/../../../../pic32c/lib/thumb/v7e-m+dp/hard\libc-musl.a(__pop_ptr.o)
 .debug_loc     0x00014e0d      0x5f4 C:/Program Files/Microchip/xc32/v5.00/bin/bin/../../lib/gcc/pic32c/13.2.1/../../../../pic32c/lib/thumb/v7e-m+dp/hard\libc-musl.a(__printf_core.o)
 .debug_loc     0x00015401       0x50 C:/Program Files/Microchip/xc32/v5.00/bin/bin/../../lib/gcc/pic32c/13.2.1/../../../../pic32c/lib/thumb/v7e-m+dp/hard\libc-musl.a(tolower.o)
 .debug_loc     0x00015451      0xbee C:/Program Files/Microchip/xc32/v5.00/bin/bin/../../lib/gcc/pic32c/13.2.1/../../../../pic32c/lib/thumb/v7e-m+dp/hard\libc-musl.a(__fmt_a.o)
 .debug_loc     0x0001603f      0x196 C:/Program Files/Microchip/xc32/v5.00/bin/bin/../../lib/gcc/pic32c/13.2.1/../../../../pic32c/lib/thumb/v7e-m+dp/hard\libc-musl.a(__fmt_d.o)
 .debug_loc     0x000161d5      0xb88 C:/Program Files/Microchip/xc32/v5.00/bin/bin/../../lib/gcc/pic32c/13.2.1/../../../../pic32c/lib/thumb/v7e-m+dp/hard\libc-musl.a(__fmt_fp.o)
 .debug_loc     0x00016d5d       0xfb C:/Program Files/Microchip/xc32/v5.00/bin/bin/../../lib/gcc/pic32c/13.2.1/../../../../pic32c/lib/thumb/v7e-m+dp/hard\libc-musl.a(__fmt_o.o)
 .debug_loc     0x00016e58      0x17b C:/Program Files/Microchip/xc32/v5.00/bin/bin/../../lib/gcc/pic32c/13.2.1/../../../../pic32c/lib/thumb/v7e-m+dp/hard\libc-musl.a(__fmt_s.o)
 .debug_loc     0x00016fd3       0xfb C:/Program Files/Microchip/xc32/v5.00/bin/bin/../../lib/gcc/pic32c/13.2.1/../../../../pic32c/lib/thumb/v7e-m+dp/hard\libc-musl.a(__fmt_u.o)
 .debug_loc     0x000170ce      0x2c6 C:/Program Files/Microchip/xc32/v5.00/bin/bin/../../lib/gcc/pic32c/13.2.1/../../../../pic32c/lib/thumb/v7e-m+dp/hard\libc-musl.a(__fmt_x.o)
 .debug_loc     0x00017394      0x18a C:/Program Files/Microchip/xc32/v5.00/bin/bin/../../lib/gcc/pic32c/13.2.1/../../../../pic32c/lib/thumb/v7e-m+dp/hard\libc-musl.a(__cvt_u.o)
 .debug_loc     0x0001751e      0xba8 C:/Program Files/Microchip/xc32/v5.00/bin/bin/../../lib/gcc/pic32c/13.2.1/thumb/v7e-m+dp/hard\libgcc.a(_udivmoddi4.o)
 .debug_loc     0x000180c6       0x94 C:/Program Files/Microchip/xc32/v5.00/bin/bin/../../lib/gcc/pic32c/13.2.1/../../../../pic32c/lib/thumb/v7e-m+dp/hard\libpic32c.a(pic32_data_init_clear.o)
 .debug_loc     0x0001815a       0xf1 C:/Program Files/Microchip/xc32/v5.00/bin/bin/../../lib/gcc/pic32c/13.2.1/../../../../pic32c/lib/thumb/v7e-m+dp/hard\libpic32c.a(pic32_data_init_copy.o)

.debug_aranges  0x00000000     0x2ae8
 .debug_aranges
                0x00000000       0x58 build/default/production/_ext/60165520/plib_clk.o
 .debug_aranges
                0x00000058       0x70 build/default/production/_ext/60167248/plib_efc.o
 .debug_aranges
                0x000000c8       0x70 build/default/production/_ext/1865468468/plib_nvic.o
 .debug_aranges
                0x00000138       0x60 build/default/production/_ext/60177924/plib_pio.o
 .debug_aranges
                0x00000198       0x90 build/default/production/_ext/1827571544/plib_systick.o
 .debug_aranges
                0x00000228       0x60 build/default/production/_ext/829342655/plib_tc3.o
 .debug_aranges
                0x00000288       0xa0 build/default/production/_ext/1865657120/plib_uart2.o
 .debug_aranges
                0x00000328       0x20 build/default/production/_ext/1171490990/initialization.o
 .debug_aranges
                0x00000348       0x20 build/default/production/_ext/1171490990/interrupts.o
 .debug_aranges
                0x00000368       0x48 build/default/production/_ext/1171490990/exceptions.o
 .debug_aranges
                0x000003b0       0x40 build/default/production/_ext/1171490990/startup_xc32.o
 .debug_aranges
                0x000003f0       0x28 build/default/production/_ext/249897560/boot_manager.o
 .debug_aranges
                0x00000418       0x78 build/default/production/_ext/1778509306/os.o
 .debug_aranges
                0x00000490       0x78 build/default/production/_ext/1134253236/simple_shield.o
 .debug_aranges
                0x00000508       0x68 build/default/production/_ext/667517761/cli_command.o
 .debug_aranges
                0x00000570       0x48 build/default/production/_ext/818259185/cli_setup.o
 .debug_aranges
                0x000005b8      0x140 build/default/production/_ext/1422079320/embedded_cli.o
 .debug_aranges
                0x000006f8       0xd8 build/default/production/_ext/216470852/uart_irq.o
 .debug_aranges
                0x000007d0       0x80 build/default/production/_ext/1908456078/port.o
 .debug_aranges
                0x00000850       0x68 build/default/production/_ext/1562497596/heap_4.o
 .debug_aranges
                0x000008b8       0x40 build/default/production/_ext/502845695/list.o
 .debug_aranges
                0x000008f8      0x170 build/default/production/_ext/502845695/queue.o
 .debug_aranges
                0x00000a68      0x100 build/default/production/_ext/502845695/stream_buffer.o
 .debug_aranges
                0x00000b68      0x268 build/default/production/_ext/502845695/tasks.o
 .debug_aranges
                0x00000dd0      0x118 build/default/production/_ext/502845695/timers.o
 .debug_aranges
                0x00000ee8       0x90 build/default/production/_ext/697864676/date_time.o
 .debug_aranges
                0x00000f78       0x68 build/default/production/_ext/1260377903/ring_buffer.o
 .debug_aranges
                0x00000fe0       0x28 build/default/production/_ext/1226835810/tick.o
 .debug_aranges
                0x00001008       0x40 build/default/production/_ext/1360937237/ATSAMV71cm7_it.o
 .debug_aranges
                0x00001048       0x20 build/default/production/_ext/1360937237/main.o
 .debug_aranges
                0x00001068       0x38 build/default/production/_ext/30620426/app_cli.o
 .debug_aranges
                0x000010a0       0x20 build/default/production/_ext/1525186148/app_alive.o
 .debug_aranges
                0x000010c0       0x38 build/default/production/_ext/1026660007/app_root.o
 .debug_aranges
                0x000010f8       0x20 build/default/production/_ext/1918720202/app_logging.o
 .debug_aranges
                0x00001118       0x80 build/default/production/_ext/1798135708/dmesg.o
 .debug_aranges
                0x00001198       0x28 build/default/production/_ext/751336192/xlog.o
 .debug_aranges
                0x000011c0       0x90 build/default/production/_ext/1389938436/app_network.o
 .debug_aranges
                0x00001250       0x20 build/default/production/_ext/30602918/app_usb.o
 .debug_aranges
                0x00001270       0x58 build/default/production/_ext/783082040/board_api.o
 .debug_aranges
                0x000012c8       0x48 build/default/production/_ext/783082040/usb_descriptors.o
 .debug_aranges
                0x00001310       0xa0 build/default/production/_ext/2037418415/tcpip.o
 .debug_aranges
                0x000013b0       0x48 build/default/production/_ext/1264479574/def.o
 .debug_aranges
                0x000013f8       0x60 build/default/production/_ext/1264479574/inet_chksum.o
 .debug_aranges
                0x00001458       0x20 build/default/production/_ext/1264479574/init.o
 .debug_aranges
                0x00001478       0x18 build/default/production/_ext/1264479574/ip.o
 .debug_aranges
                0x00001490       0x98 build/default/production/_ext/1349076522/etharp.o
 .debug_aranges
                0x00001528       0x38 build/default/production/_ext/1349076522/icmp.o
 .debug_aranges
                0x00001560       0x48 build/default/production/_ext/1349076522/ip4.o
 .debug_aranges
                0x000015a8       0x50 build/default/production/_ext/1349076522/ip4_addr.o
 .debug_aranges
                0x000015f8       0x70 build/default/production/_ext/1349076522/ip4_frag.o
 .debug_aranges
                0x00001668       0x60 build/default/production/_ext/1264479574/mem.o
 .debug_aranges
                0x000016c8       0x58 build/default/production/_ext/1264479574/memp.o
 .debug_aranges
                0x00001720       0xe0 build/default/production/_ext/1264479574/netif.o
 .debug_aranges
                0x00001800      0x140 build/default/production/_ext/1264479574/pbuf.o
 .debug_aranges
                0x00001940       0x88 build/default/production/_ext/1264479574/raw.o
 .debug_aranges
                0x000019c8       0x20 build/default/production/_ext/1264479574/stats.o
 .debug_aranges
                0x000019e8      0x1b8 build/default/production/_ext/1264479574/tcp.o
 .debug_aranges
                0x00001ba0       0x70 build/default/production/_ext/1264479574/tcp_in.o
 .debug_aranges
                0x00001c10       0xd8 build/default/production/_ext/1264479574/tcp_out.o
 .debug_aranges
                0x00001ce8       0x68 build/default/production/_ext/1264479574/timeouts.o
 .debug_aranges
                0x00001d50       0xa0 build/default/production/_ext/1264479574/udp.o
 .debug_aranges
                0x00001df0       0x28 build/default/production/_ext/534298161/ethernet.o
 .debug_aranges
                0x00001e18       0xf0 build/default/production/_ext/1439055959/ncm_device.o
 .debug_aranges
                0x00001f08       0xc0 build/default/production/_ext/761407912/tusb_fifo.o
 .debug_aranges
                0x00001fc8      0x1e8 build/default/production/_ext/781065747/usbd.o
 .debug_aranges
                0x000021b0       0x60 build/default/production/_ext/781065747/usbd_control.o
 .debug_aranges
                0x00002210       0xd8 build/default/production/_ext/2093936272/dcd_samx7x.o
 .debug_aranges
                0x000022e8       0xd0 build/default/production/_ext/1119931634/tusb.o
 .debug_aranges
                0x000023b8       0xc8 build/default/production/_ext/1017385999/sys_arch.o
 .debug_aranges
                0x00002480       0x30 C:/Program Files/Microchip/xc32/v5.00/bin/bin/../../lib/gcc/pic32c/13.2.1/../../../../pic32c/lib/thumb/v7e-m+dp/hard\libpic32c.a(data_init.o)
 .debug_aranges
                0x000024b0       0x20 C:/Program Files/Microchip/xc32/v5.00/bin/bin/../../lib/gcc/pic32c/13.2.1/../../../../pic32c/lib/thumb/v7e-m+dp/hard\libc-size-musl.a(memcmp.o)
 .debug_aranges
                0x000024d0       0x20 C:/Program Files/Microchip/xc32/v5.00/bin/bin/../../lib/gcc/pic32c/13.2.1/../../../../pic32c/lib/thumb/v7e-m+dp/hard\libc-size-musl.a(memcpy.o)
 .debug_aranges
                0x000024f0       0x20 C:/Program Files/Microchip/xc32/v5.00/bin/bin/../../lib/gcc/pic32c/13.2.1/../../../../pic32c/lib/thumb/v7e-m+dp/hard\libc-size-musl.a(memmove.o)
 .debug_aranges
                0x00002510       0x20 C:/Program Files/Microchip/xc32/v5.00/bin/bin/../../lib/gcc/pic32c/13.2.1/../../../../pic32c/lib/thumb/v7e-m+dp/hard\libc-size-musl.a(memset.o)
 .debug_aranges
                0x00002530       0x20 C:/Program Files/Microchip/xc32/v5.00/bin/bin/../../lib/gcc/pic32c/13.2.1/../../../../pic32c/lib/thumb/v7e-m+dp/hard\libc-size-musl.a(strlen.o)
 .debug_aranges
                0x00002550       0x20 C:/Program Files/Microchip/xc32/v5.00/bin/bin/../../lib/gcc/pic32c/13.2.1/../../../../pic32c/lib/thumb/v7e-m+dp/hard\libc-size-musl.a(strchr.o)
 .debug_aranges
                0x00002570       0x20 C:/Program Files/Microchip/xc32/v5.00/bin/bin/../../lib/gcc/pic32c/13.2.1/../../../../pic32c/lib/thumb/v7e-m+dp/hard\libc-size-musl.a(strchrnul.o)
 .debug_aranges
                0x00002590       0x20 C:/Program Files/Microchip/xc32/v5.00/bin/bin/../../lib/gcc/pic32c/13.2.1/../../../../pic32c/lib/thumb/v7e-m+dp/hard\libc-size-musl.a(strcmp.o)
 .debug_aranges
                0x000025b0       0x20 C:/Program Files/Microchip/xc32/v5.00/bin/bin/../../lib/gcc/pic32c/13.2.1/../../../../pic32c/lib/thumb/v7e-m+dp/hard\libc-size-musl.a(strcpy.o)
 .debug_aranges
                0x000025d0       0x20 C:/Program Files/Microchip/xc32/v5.00/bin/bin/../../lib/gcc/pic32c/13.2.1/../../../../pic32c/lib/thumb/v7e-m+dp/hard\libc-size-musl.a(strncpy.o)
 .debug_aranges
                0x000025f0       0x20 C:/Program Files/Microchip/xc32/v5.00/bin/bin/../../lib/gcc/pic32c/13.2.1/../../../../pic32c/lib/thumb/v7e-m+dp/hard\libc-size-musl.a(stpcpy.o)
 .debug_aranges
                0x00002610       0x20 C:/Program Files/Microchip/xc32/v5.00/bin/bin/../../lib/gcc/pic32c/13.2.1/../../../../pic32c/lib/thumb/v7e-m+dp/hard\libc-size-musl.a(stpncpy.o)
 .debug_aranges
                0x00002630       0x28 C:/Program Files/Microchip/xc32/v5.00/bin/bin/../../lib/gcc/pic32c/13.2.1/../../../../pic32c/lib/thumb/v7e-m+dp/hard\libc-musl.a(toupper.o)
 .debug_aranges
                0x00002658       0x28 C:/Program Files/Microchip/xc32/v5.00/bin/bin/../../lib/gcc/pic32c/13.2.1/../../../../pic32c/lib/thumb/v7e-m+dp/hard\libc-musl.a(__libc_start_main.o)
 .debug_aranges
                0x00002680       0x18 C:/Program Files/Microchip/xc32/v5.00/bin/bin/../../lib/gcc/pic32c/13.2.1/../../../../pic32c/lib/thumb/v7e-m+dp/hard\libc-musl.a(libc.o)
 .debug_aranges
                0x00002698       0x20 C:/Program Files/Microchip/xc32/v5.00/bin/bin/../../lib/gcc/pic32c/13.2.1/../../../../pic32c/lib/thumb/v7e-m+dp/hard\libc-musl.a(vsnprintf.o)
 .debug_aranges
                0x000026b8       0x20 C:/Program Files/Microchip/xc32/v5.00/bin/bin/../../lib/gcc/pic32c/13.2.1/../../../../pic32c/lib/thumb/v7e-m+dp/hard\libc-musl.a(snprintf.o)
 .debug_aranges
                0x000026d8       0x20 C:/Program Files/Microchip/xc32/v5.00/bin/bin/../../lib/gcc/pic32c/13.2.1/../../../../pic32c/lib/thumb/v7e-m+dp/hard\libc-musl.a(sprintf.o)
 .debug_aranges
                0x000026f8       0x20 C:/Program Files/Microchip/xc32/v5.00/bin/bin/../../lib/gcc/pic32c/13.2.1/../../../../pic32c/lib/thumb/v7e-m+dp/hard\libc-musl.a(vsprintf.o)
 .debug_aranges
                0x00002718       0x20 C:/Program Files/Microchip/xc32/v5.00/bin/bin/../../lib/gcc/pic32c/13.2.1/../../../../pic32c/lib/thumb/v7e-m+dp/hard\libc-musl.a(atoi.o)
 .debug_aranges
                0x00002738       0x50 C:/Program Files/Microchip/xc32/v5.00/bin/bin/../../lib/gcc/pic32c/13.2.1/../../../../pic32c/lib/thumb/v7e-m+dp/hard\libc-musl.a(strtol.o)
 .debug_aranges
                0x00002788       0x18 C:/Program Files/Microchip/xc32/v5.00/bin/bin/../../lib/gcc/pic32c/13.2.1/../../../../pic32c/lib/thumb/v7e-m+dp/hard\libc-musl.a(__environ.o)
 .debug_aranges
                0x000027a0       0x18 C:/Program Files/Microchip/xc32/v5.00/bin/bin/../../lib/gcc/pic32c/13.2.1/../../../../pic32c/lib/thumb/v7e-m+dp/hard\libc-musl.a(__errno_location.o)
 .debug_aranges
                0x000027b8       0x20 C:/Program Files/Microchip/xc32/v5.00/bin/bin/../../lib/gcc/pic32c/13.2.1/../../../../pic32c/lib/thumb/v7e-m+dp/hard\libc-musl.a(intscan.o)
 .debug_aranges
                0x000027d8       0x28 C:/Program Files/Microchip/xc32/v5.00/bin/bin/../../lib/gcc/pic32c/13.2.1/../../../../pic32c/lib/thumb/v7e-m+dp/hard\libc-musl.a(shgetc.o)
 .debug_aranges
                0x00002800       0x20 C:/Program Files/Microchip/xc32/v5.00/bin/bin/../../lib/gcc/pic32c/13.2.1/../../../../pic32c/lib/thumb/v7e-m+dp/hard\libc-musl.a(__uflow.o)
 .debug_aranges
                0x00002820       0x28 C:/Program Files/Microchip/xc32/v5.00/bin/bin/../../lib/gcc/pic32c/13.2.1/../../../../pic32c/lib/thumb/v7e-m+dp/hard\libc-musl.a(vfprintf.o)
 .debug_aranges
                0x00002848       0x28 C:/Program Files/Microchip/xc32/v5.00/bin/bin/../../lib/gcc/pic32c/13.2.1/../../../../pic32c/lib/thumb/v7e-m+dp/hard\libc-musl.a(__toread.o)
 .debug_aranges
                0x00002870       0x20 C:/Program Files/Microchip/xc32/v5.00/bin/bin/../../lib/gcc/pic32c/13.2.1/../../../../pic32c/lib/thumb/v7e-m+dp/hard\libc-musl.a(__pop_float.o)
 .debug_aranges
                0x00002890       0x20 C:/Program Files/Microchip/xc32/v5.00/bin/bin/../../lib/gcc/pic32c/13.2.1/../../../../pic32c/lib/thumb/v7e-m+dp/hard\libc-musl.a(__pop_int.o)
 .debug_aranges
                0x000028b0       0x20 C:/Program Files/Microchip/xc32/v5.00/bin/bin/../../lib/gcc/pic32c/13.2.1/../../../../pic32c/lib/thumb/v7e-m+dp/hard\libc-musl.a(__pop_ptr.o)
 .debug_aranges
                0x000028d0       0x50 C:/Program Files/Microchip/xc32/v5.00/bin/bin/../../lib/gcc/pic32c/13.2.1/../../../../pic32c/lib/thumb/v7e-m+dp/hard\libc-musl.a(__printf_core.o)
 .debug_aranges
                0x00002920       0x28 C:/Program Files/Microchip/xc32/v5.00/bin/bin/../../lib/gcc/pic32c/13.2.1/../../../../pic32c/lib/thumb/v7e-m+dp/hard\libc-musl.a(tolower.o)
 .debug_aranges
                0x00002948       0x20 C:/Program Files/Microchip/xc32/v5.00/bin/bin/../../lib/gcc/pic32c/13.2.1/../../../../pic32c/lib/thumb/v7e-m+dp/hard\libc-musl.a(__fmt_a.o)
 .debug_aranges
                0x00002968       0x20 C:/Program Files/Microchip/xc32/v5.00/bin/bin/../../lib/gcc/pic32c/13.2.1/../../../../pic32c/lib/thumb/v7e-m+dp/hard\libc-musl.a(__fmt_d.o)
 .debug_aranges
                0x00002988       0x20 C:/Program Files/Microchip/xc32/v5.00/bin/bin/../../lib/gcc/pic32c/13.2.1/../../../../pic32c/lib/thumb/v7e-m+dp/hard\libc-musl.a(__fmt_fp.o)
 .debug_aranges
                0x000029a8       0x20 C:/Program Files/Microchip/xc32/v5.00/bin/bin/../../lib/gcc/pic32c/13.2.1/../../../../pic32c/lib/thumb/v7e-m+dp/hard\libc-musl.a(__fmt_o.o)
 .debug_aranges
                0x000029c8       0x20 C:/Program Files/Microchip/xc32/v5.00/bin/bin/../../lib/gcc/pic32c/13.2.1/../../../../pic32c/lib/thumb/v7e-m+dp/hard\libc-musl.a(__fmt_s.o)
 .debug_aranges
                0x000029e8       0x20 C:/Program Files/Microchip/xc32/v5.00/bin/bin/../../lib/gcc/pic32c/13.2.1/../../../../pic32c/lib/thumb/v7e-m+dp/hard\libc-musl.a(__fmt_u.o)
 .debug_aranges
                0x00002a08       0x20 C:/Program Files/Microchip/xc32/v5.00/bin/bin/../../lib/gcc/pic32c/13.2.1/../../../../pic32c/lib/thumb/v7e-m+dp/hard\libc-musl.a(__fmt_x.o)
 .debug_aranges
                0x00002a28       0x20 C:/Program Files/Microchip/xc32/v5.00/bin/bin/../../lib/gcc/pic32c/13.2.1/../../../../pic32c/lib/thumb/v7e-m+dp/hard\libc-musl.a(__cvt_u.o)
 .debug_aranges
                0x00002a48       0x20 C:/Program Files/Microchip/xc32/v5.00/bin/bin/../../lib/gcc/pic32c/13.2.1/thumb/v7e-m+dp/hard\libgcc.a(_aeabi_uldivmod.o)
 .debug_aranges
                0x00002a68       0x20 C:/Program Files/Microchip/xc32/v5.00/bin/bin/../../lib/gcc/pic32c/13.2.1/thumb/v7e-m+dp/hard\libgcc.a(_udivmoddi4.o)
 .debug_aranges
                0x00002a88       0x20 C:/Program Files/Microchip/xc32/v5.00/bin/bin/../../lib/gcc/pic32c/13.2.1/thumb/v7e-m+dp/hard\libgcc.a(_dvmd_tls.o)
 .debug_aranges
                0x00002aa8       0x20 C:/Program Files/Microchip/xc32/v5.00/bin/bin/../../lib/gcc/pic32c/13.2.1/../../../../pic32c/lib/thumb/v7e-m+dp/hard\libpic32c.a(pic32_data_init_clear.o)
 .debug_aranges
                0x00002ac8       0x20 C:/Program Files/Microchip/xc32/v5.00/bin/bin/../../lib/gcc/pic32c/13.2.1/../../../../pic32c/lib/thumb/v7e-m+dp/hard\libpic32c.a(pic32_data_init_copy.o)

.debug_ranges   0x00000000     0x27f8
 .debug_ranges  0x00000000       0x48 build/default/production/_ext/60165520/plib_clk.o
 .debug_ranges  0x00000048       0x60 build/default/production/_ext/60167248/plib_efc.o
 .debug_ranges  0x000000a8       0x60 build/default/production/_ext/1865468468/plib_nvic.o
 .debug_ranges  0x00000108       0x50 build/default/production/_ext/60177924/plib_pio.o
 .debug_ranges  0x00000158       0x80 build/default/production/_ext/1827571544/plib_systick.o
 .debug_ranges  0x000001d8       0x50 build/default/production/_ext/829342655/plib_tc3.o
 .debug_ranges  0x00000228       0x90 build/default/production/_ext/1865657120/plib_uart2.o
 .debug_ranges  0x000002b8       0x10 build/default/production/_ext/1171490990/initialization.o
 .debug_ranges  0x000002c8       0x10 build/default/production/_ext/1171490990/interrupts.o
 .debug_ranges  0x000002d8       0x38 build/default/production/_ext/1171490990/exceptions.o
 .debug_ranges  0x00000310       0x30 build/default/production/_ext/1171490990/startup_xc32.o
 .debug_ranges  0x00000340       0x18 build/default/production/_ext/249897560/boot_manager.o
 .debug_ranges  0x00000358       0x68 build/default/production/_ext/1778509306/os.o
 .debug_ranges  0x000003c0       0x68 build/default/production/_ext/1134253236/simple_shield.o
 .debug_ranges  0x00000428       0x58 build/default/production/_ext/667517761/cli_command.o
 .debug_ranges  0x00000480       0x38 build/default/production/_ext/818259185/cli_setup.o
 .debug_ranges  0x000004b8      0x148 build/default/production/_ext/1422079320/embedded_cli.o
 .debug_ranges  0x00000600       0xe0 build/default/production/_ext/216470852/uart_irq.o
 .debug_ranges  0x000006e0       0x70 build/default/production/_ext/1908456078/port.o
 .debug_ranges  0x00000750       0x58 build/default/production/_ext/1562497596/heap_4.o
 .debug_ranges  0x000007a8       0x30 build/default/production/_ext/502845695/list.o
 .debug_ranges  0x000007d8      0x160 build/default/production/_ext/502845695/queue.o
 .debug_ranges  0x00000938       0xf0 build/default/production/_ext/502845695/stream_buffer.o
 .debug_ranges  0x00000a28      0x278 build/default/production/_ext/502845695/tasks.o
 .debug_ranges  0x00000ca0      0x108 build/default/production/_ext/502845695/timers.o
 .debug_ranges  0x00000da8       0xb0 build/default/production/_ext/697864676/date_time.o
 .debug_ranges  0x00000e58       0x58 build/default/production/_ext/1260377903/ring_buffer.o
 .debug_ranges  0x00000eb0       0x18 build/default/production/_ext/1226835810/tick.o
 .debug_ranges  0x00000ec8       0x30 build/default/production/_ext/1360937237/ATSAMV71cm7_it.o
 .debug_ranges  0x00000ef8       0x10 build/default/production/_ext/1360937237/main.o
 .debug_ranges  0x00000f08       0x28 build/default/production/_ext/30620426/app_cli.o
 .debug_ranges  0x00000f30       0x10 build/default/production/_ext/1525186148/app_alive.o
 .debug_ranges  0x00000f40       0x28 build/default/production/_ext/1026660007/app_root.o
 .debug_ranges  0x00000f68       0x10 build/default/production/_ext/1918720202/app_logging.o
 .debug_ranges  0x00000f78       0x70 build/default/production/_ext/1798135708/dmesg.o
 .debug_ranges  0x00000fe8       0x18 build/default/production/_ext/751336192/xlog.o
 .debug_ranges  0x00001000       0x98 build/default/production/_ext/1389938436/app_network.o
 .debug_ranges  0x00001098       0x10 build/default/production/_ext/30602918/app_usb.o
 .debug_ranges  0x000010a8       0x48 build/default/production/_ext/783082040/board_api.o
 .debug_ranges  0x000010f0       0x38 build/default/production/_ext/783082040/usb_descriptors.o
 .debug_ranges  0x00001128       0x90 build/default/production/_ext/2037418415/tcpip.o
 .debug_ranges  0x000011b8       0x38 build/default/production/_ext/1264479574/def.o
 .debug_ranges  0x000011f0       0x50 build/default/production/_ext/1264479574/inet_chksum.o
 .debug_ranges  0x00001240       0x10 build/default/production/_ext/1264479574/init.o
 .debug_ranges  0x00001250       0x88 build/default/production/_ext/1349076522/etharp.o
 .debug_ranges  0x000012d8       0x40 build/default/production/_ext/1349076522/icmp.o
 .debug_ranges  0x00001318       0x38 build/default/production/_ext/1349076522/ip4.o
 .debug_ranges  0x00001350       0x40 build/default/production/_ext/1349076522/ip4_addr.o
 .debug_ranges  0x00001390       0x78 build/default/production/_ext/1349076522/ip4_frag.o
 .debug_ranges  0x00001408       0x50 build/default/production/_ext/1264479574/mem.o
 .debug_ranges  0x00001458       0x48 build/default/production/_ext/1264479574/memp.o
 .debug_ranges  0x000014a0       0xd0 build/default/production/_ext/1264479574/netif.o
 .debug_ranges  0x00001570      0x130 build/default/production/_ext/1264479574/pbuf.o
 .debug_ranges  0x000016a0       0x78 build/default/production/_ext/1264479574/raw.o
 .debug_ranges  0x00001718       0x10 build/default/production/_ext/1264479574/stats.o
 .debug_ranges  0x00001728      0x1a8 build/default/production/_ext/1264479574/tcp.o
 .debug_ranges  0x000018d0       0xf0 build/default/production/_ext/1264479574/tcp_in.o
 .debug_ranges  0x000019c0      0x140 build/default/production/_ext/1264479574/tcp_out.o
 .debug_ranges  0x00001b00       0x70 build/default/production/_ext/1264479574/timeouts.o
 .debug_ranges  0x00001b70       0x90 build/default/production/_ext/1264479574/udp.o
 .debug_ranges  0x00001c00       0x18 build/default/production/_ext/534298161/ethernet.o
 .debug_ranges  0x00001c18      0x110 build/default/production/_ext/1439055959/ncm_device.o
 .debug_ranges  0x00001d28       0xc8 build/default/production/_ext/761407912/tusb_fifo.o
 .debug_ranges  0x00001df0      0x2b0 build/default/production/_ext/781065747/usbd.o
 .debug_ranges  0x000020a0       0x50 build/default/production/_ext/781065747/usbd_control.o
 .debug_ranges  0x000020f0      0x140 build/default/production/_ext/2093936272/dcd_samx7x.o
 .debug_ranges  0x00002230       0xc0 build/default/production/_ext/1119931634/tusb.o
 .debug_ranges  0x000022f0       0xb8 build/default/production/_ext/1017385999/sys_arch.o
 .debug_ranges  0x000023a8       0x20 C:/Program Files/Microchip/xc32/v5.00/bin/bin/../../lib/gcc/pic32c/13.2.1/../../../../pic32c/lib/thumb/v7e-m+dp/hard\libpic32c.a(data_init.o)
 .debug_ranges  0x000023c8       0x10 C:/Program Files/Microchip/xc32/v5.00/bin/bin/../../lib/gcc/pic32c/13.2.1/../../../../pic32c/lib/thumb/v7e-m+dp/hard\libc-size-musl.a(memcmp.o)
 .debug_ranges  0x000023d8       0x10 C:/Program Files/Microchip/xc32/v5.00/bin/bin/../../lib/gcc/pic32c/13.2.1/../../../../pic32c/lib/thumb/v7e-m+dp/hard\libc-size-musl.a(memcpy.o)
 .debug_ranges  0x000023e8       0x10 C:/Program Files/Microchip/xc32/v5.00/bin/bin/../../lib/gcc/pic32c/13.2.1/../../../../pic32c/lib/thumb/v7e-m+dp/hard\libc-size-musl.a(memmove.o)
 .debug_ranges  0x000023f8       0x10 C:/Program Files/Microchip/xc32/v5.00/bin/bin/../../lib/gcc/pic32c/13.2.1/../../../../pic32c/lib/thumb/v7e-m+dp/hard\libc-size-musl.a(memset.o)
 .debug_ranges  0x00002408       0x10 C:/Program Files/Microchip/xc32/v5.00/bin/bin/../../lib/gcc/pic32c/13.2.1/../../../../pic32c/lib/thumb/v7e-m+dp/hard\libc-size-musl.a(strlen.o)
 .debug_ranges  0x00002418       0x10 C:/Program Files/Microchip/xc32/v5.00/bin/bin/../../lib/gcc/pic32c/13.2.1/../../../../pic32c/lib/thumb/v7e-m+dp/hard\libc-size-musl.a(strchr.o)
 .debug_ranges  0x00002428       0x10 C:/Program Files/Microchip/xc32/v5.00/bin/bin/../../lib/gcc/pic32c/13.2.1/../../../../pic32c/lib/thumb/v7e-m+dp/hard\libc-size-musl.a(strchrnul.o)
 .debug_ranges  0x00002438       0x10 C:/Program Files/Microchip/xc32/v5.00/bin/bin/../../lib/gcc/pic32c/13.2.1/../../../../pic32c/lib/thumb/v7e-m+dp/hard\libc-size-musl.a(strcmp.o)
 .debug_ranges  0x00002448       0x10 C:/Program Files/Microchip/xc32/v5.00/bin/bin/../../lib/gcc/pic32c/13.2.1/../../../../pic32c/lib/thumb/v7e-m+dp/hard\libc-size-musl.a(strcpy.o)
 .debug_ranges  0x00002458       0x10 C:/Program Files/Microchip/xc32/v5.00/bin/bin/../../lib/gcc/pic32c/13.2.1/../../../../pic32c/lib/thumb/v7e-m+dp/hard\libc-size-musl.a(strncpy.o)
 .debug_ranges  0x00002468       0x10 C:/Program Files/Microchip/xc32/v5.00/bin/bin/../../lib/gcc/pic32c/13.2.1/../../../../pic32c/lib/thumb/v7e-m+dp/hard\libc-size-musl.a(stpcpy.o)
 .debug_ranges  0x00002478       0x10 C:/Program Files/Microchip/xc32/v5.00/bin/bin/../../lib/gcc/pic32c/13.2.1/../../../../pic32c/lib/thumb/v7e-m+dp/hard\libc-size-musl.a(stpncpy.o)
 .debug_ranges  0x00002488       0x18 C:/Program Files/Microchip/xc32/v5.00/bin/bin/../../lib/gcc/pic32c/13.2.1/../../../../pic32c/lib/thumb/v7e-m+dp/hard\libc-musl.a(toupper.o)
 .debug_ranges  0x000024a0       0x40 C:/Program Files/Microchip/xc32/v5.00/bin/bin/../../lib/gcc/pic32c/13.2.1/../../../../pic32c/lib/thumb/v7e-m+dp/hard\libc-musl.a(__libc_start_main.o)
 .debug_ranges  0x000024e0       0x10 C:/Program Files/Microchip/xc32/v5.00/bin/bin/../../lib/gcc/pic32c/13.2.1/../../../../pic32c/lib/thumb/v7e-m+dp/hard\libc-musl.a(vsnprintf.o)
 .debug_ranges  0x000024f0       0x10 C:/Program Files/Microchip/xc32/v5.00/bin/bin/../../lib/gcc/pic32c/13.2.1/../../../../pic32c/lib/thumb/v7e-m+dp/hard\libc-musl.a(snprintf.o)
 .debug_ranges  0x00002500       0x10 C:/Program Files/Microchip/xc32/v5.00/bin/bin/../../lib/gcc/pic32c/13.2.1/../../../../pic32c/lib/thumb/v7e-m+dp/hard\libc-musl.a(sprintf.o)
 .debug_ranges  0x00002510       0x10 C:/Program Files/Microchip/xc32/v5.00/bin/bin/../../lib/gcc/pic32c/13.2.1/../../../../pic32c/lib/thumb/v7e-m+dp/hard\libc-musl.a(vsprintf.o)
 .debug_ranges  0x00002520       0x28 C:/Program Files/Microchip/xc32/v5.00/bin/bin/../../lib/gcc/pic32c/13.2.1/../../../../pic32c/lib/thumb/v7e-m+dp/hard\libc-musl.a(atoi.o)
 .debug_ranges  0x00002548       0x40 C:/Program Files/Microchip/xc32/v5.00/bin/bin/../../lib/gcc/pic32c/13.2.1/../../../../pic32c/lib/thumb/v7e-m+dp/hard\libc-musl.a(strtol.o)
 .debug_ranges  0x00002588       0x28 C:/Program Files/Microchip/xc32/v5.00/bin/bin/../../lib/gcc/pic32c/13.2.1/../../../../pic32c/lib/thumb/v7e-m+dp/hard\libc-musl.a(intscan.o)
 .debug_ranges  0x000025b0       0x18 C:/Program Files/Microchip/xc32/v5.00/bin/bin/../../lib/gcc/pic32c/13.2.1/../../../../pic32c/lib/thumb/v7e-m+dp/hard\libc-musl.a(shgetc.o)
 .debug_ranges  0x000025c8       0x10 C:/Program Files/Microchip/xc32/v5.00/bin/bin/../../lib/gcc/pic32c/13.2.1/../../../../pic32c/lib/thumb/v7e-m+dp/hard\libc-musl.a(__uflow.o)
 .debug_ranges  0x000025d8       0x18 C:/Program Files/Microchip/xc32/v5.00/bin/bin/../../lib/gcc/pic32c/13.2.1/../../../../pic32c/lib/thumb/v7e-m+dp/hard\libc-musl.a(vfprintf.o)
 .debug_ranges  0x000025f0       0x18 C:/Program Files/Microchip/xc32/v5.00/bin/bin/../../lib/gcc/pic32c/13.2.1/../../../../pic32c/lib/thumb/v7e-m+dp/hard\libc-musl.a(__toread.o)
 .debug_ranges  0x00002608       0x10 C:/Program Files/Microchip/xc32/v5.00/bin/bin/../../lib/gcc/pic32c/13.2.1/../../../../pic32c/lib/thumb/v7e-m+dp/hard\libc-musl.a(__pop_float.o)
 .debug_ranges  0x00002618       0x10 C:/Program Files/Microchip/xc32/v5.00/bin/bin/../../lib/gcc/pic32c/13.2.1/../../../../pic32c/lib/thumb/v7e-m+dp/hard\libc-musl.a(__pop_int.o)
 .debug_ranges  0x00002628       0x10 C:/Program Files/Microchip/xc32/v5.00/bin/bin/../../lib/gcc/pic32c/13.2.1/../../../../pic32c/lib/thumb/v7e-m+dp/hard\libc-musl.a(__pop_ptr.o)
 .debug_ranges  0x00002638       0x58 C:/Program Files/Microchip/xc32/v5.00/bin/bin/../../lib/gcc/pic32c/13.2.1/../../../../pic32c/lib/thumb/v7e-m+dp/hard\libc-musl.a(__printf_core.o)
 .debug_ranges  0x00002690       0x18 C:/Program Files/Microchip/xc32/v5.00/bin/bin/../../lib/gcc/pic32c/13.2.1/../../../../pic32c/lib/thumb/v7e-m+dp/hard\libc-musl.a(tolower.o)
 .debug_ranges  0x000026a8       0x10 C:/Program Files/Microchip/xc32/v5.00/bin/bin/../../lib/gcc/pic32c/13.2.1/../../../../pic32c/lib/thumb/v7e-m+dp/hard\libc-musl.a(__fmt_a.o)
 .debug_ranges  0x000026b8       0x10 C:/Program Files/Microchip/xc32/v5.00/bin/bin/../../lib/gcc/pic32c/13.2.1/../../../../pic32c/lib/thumb/v7e-m+dp/hard\libc-musl.a(__fmt_d.o)
 .debug_ranges  0x000026c8       0x10 C:/Program Files/Microchip/xc32/v5.00/bin/bin/../../lib/gcc/pic32c/13.2.1/../../../../pic32c/lib/thumb/v7e-m+dp/hard\libc-musl.a(__fmt_fp.o)
 .debug_ranges  0x000026d8       0x10 C:/Program Files/Microchip/xc32/v5.00/bin/bin/../../lib/gcc/pic32c/13.2.1/../../../../pic32c/lib/thumb/v7e-m+dp/hard\libc-musl.a(__fmt_o.o)
 .debug_ranges  0x000026e8       0x10 C:/Program Files/Microchip/xc32/v5.00/bin/bin/../../lib/gcc/pic32c/13.2.1/../../../../pic32c/lib/thumb/v7e-m+dp/hard\libc-musl.a(__fmt_s.o)
 .debug_ranges  0x000026f8       0x10 C:/Program Files/Microchip/xc32/v5.00/bin/bin/../../lib/gcc/pic32c/13.2.1/../../../../pic32c/lib/thumb/v7e-m+dp/hard\libc-musl.a(__fmt_u.o)
 .debug_ranges  0x00002708       0x10 C:/Program Files/Microchip/xc32/v5.00/bin/bin/../../lib/gcc/pic32c/13.2.1/../../../../pic32c/lib/thumb/v7e-m+dp/hard\libc-musl.a(__fmt_x.o)
 .debug_ranges  0x00002718       0x10 C:/Program Files/Microchip/xc32/v5.00/bin/bin/../../lib/gcc/pic32c/13.2.1/../../../../pic32c/lib/thumb/v7e-m+dp/hard\libc-musl.a(__cvt_u.o)
 .debug_ranges  0x00002728       0xb0 C:/Program Files/Microchip/xc32/v5.00/bin/bin/../../lib/gcc/pic32c/13.2.1/thumb/v7e-m+dp/hard\libgcc.a(_udivmoddi4.o)
 .debug_ranges  0x000027d8       0x10 C:/Program Files/Microchip/xc32/v5.00/bin/bin/../../lib/gcc/pic32c/13.2.1/../../../../pic32c/lib/thumb/v7e-m+dp/hard\libpic32c.a(pic32_data_init_clear.o)
 .debug_ranges  0x000027e8       0x10 C:/Program Files/Microchip/xc32/v5.00/bin/bin/../../lib/gcc/pic32c/13.2.1/../../../../pic32c/lib/thumb/v7e-m+dp/hard\libpic32c.a(pic32_data_init_copy.o)

.debug_line     0x00000000    0x2269e
 .debug_line    0x00000000      0x364 build/default/production/_ext/60165520/plib_clk.o
 .debug_line    0x00000364      0x3de build/default/production/_ext/60167248/plib_efc.o
 .debug_line    0x00000742      0x372 build/default/production/_ext/1865468468/plib_nvic.o
 .debug_line    0x00000ab4      0x30b build/default/production/_ext/60177924/plib_pio.o
 .debug_line    0x00000dbf      0x33e build/default/production/_ext/1827571544/plib_systick.o
 .debug_line    0x000010fd      0x1fe build/default/production/_ext/829342655/plib_tc3.o
 .debug_line    0x000012fb      0x4a2 build/default/production/_ext/1865657120/plib_uart2.o
 .debug_line    0x0000179d      0x26f build/default/production/_ext/1171490990/initialization.o
 .debug_line    0x00001a0c       0xcd build/default/production/_ext/1171490990/interrupts.o
 .debug_line    0x00001ad9       0xc1 build/default/production/_ext/1171490990/exceptions.o
 .debug_line    0x00001b9a      0x3b1 build/default/production/_ext/1171490990/startup_xc32.o
 .debug_line    0x00001f4b      0x2da build/default/production/_ext/249897560/boot_manager.o
 .debug_line    0x00002225      0x483 build/default/production/_ext/1778509306/os.o
 .debug_line    0x000026a8      0x4f4 build/default/production/_ext/1134253236/simple_shield.o
 .debug_line    0x00002b9c      0x5e6 build/default/production/_ext/667517761/cli_command.o
 .debug_line    0x00003182      0x2de build/default/production/_ext/818259185/cli_setup.o
 .debug_line    0x00003460     0x129d build/default/production/_ext/1422079320/embedded_cli.o
 .debug_line    0x000046fd      0x77c build/default/production/_ext/216470852/uart_irq.o
 .debug_line    0x00004e79      0x487 build/default/production/_ext/1908456078/port.o
 .debug_line    0x00005300      0x63b build/default/production/_ext/1562497596/heap_4.o
 .debug_line    0x0000593b      0x280 build/default/production/_ext/502845695/list.o
 .debug_line    0x00005bbb     0x13d4 build/default/production/_ext/502845695/queue.o
 .debug_line    0x00006f8f      0xd8c build/default/production/_ext/502845695/stream_buffer.o
 .debug_line    0x00007d1b     0x1dcd build/default/production/_ext/502845695/tasks.o
 .debug_line    0x00009ae8      0x9c8 build/default/production/_ext/502845695/timers.o
 .debug_line    0x0000a4b0      0x56b build/default/production/_ext/697864676/date_time.o
 .debug_line    0x0000aa1b      0x3ae build/default/production/_ext/1260377903/ring_buffer.o
 .debug_line    0x0000adc9       0xbb build/default/production/_ext/1226835810/tick.o
 .debug_line    0x0000ae84      0x247 build/default/production/_ext/1360937237/ATSAMV71cm7_it.o
 .debug_line    0x0000b0cb       0xbc build/default/production/_ext/1360937237/main.o
 .debug_line    0x0000b187      0x355 build/default/production/_ext/30620426/app_cli.o
 .debug_line    0x0000b4dc      0x288 build/default/production/_ext/1525186148/app_alive.o
 .debug_line    0x0000b764      0x316 build/default/production/_ext/1026660007/app_root.o
 .debug_line    0x0000ba7a      0x292 build/default/production/_ext/1918720202/app_logging.o
 .debug_line    0x0000bd0c      0x68c build/default/production/_ext/1798135708/dmesg.o
 .debug_line    0x0000c398      0x277 build/default/production/_ext/751336192/xlog.o
 .debug_line    0x0000c60f      0x7e1 build/default/production/_ext/1389938436/app_network.o
 .debug_line    0x0000cdf0      0x23a build/default/production/_ext/30602918/app_usb.o
 .debug_line    0x0000d02a      0x26c build/default/production/_ext/783082040/board_api.o
 .debug_line    0x0000d296      0x38e build/default/production/_ext/783082040/usb_descriptors.o
 .debug_line    0x0000d624      0x4a5 build/default/production/_ext/2037418415/tcpip.o
 .debug_line    0x0000dac9      0x31e build/default/production/_ext/1264479574/def.o
 .debug_line    0x0000dde7      0x3fe build/default/production/_ext/1264479574/inet_chksum.o
 .debug_line    0x0000e1e5      0x177 build/default/production/_ext/1264479574/init.o
 .debug_line    0x0000e35c      0x151 build/default/production/_ext/1264479574/ip.o
 .debug_line    0x0000e4ad      0x84d build/default/production/_ext/1349076522/etharp.o
 .debug_line    0x0000ecfa      0x39b build/default/production/_ext/1349076522/icmp.o
 .debug_line    0x0000f095      0x551 build/default/production/_ext/1349076522/ip4.o
 .debug_line    0x0000f5e6      0x486 build/default/production/_ext/1349076522/ip4_addr.o
 .debug_line    0x0000fa6c      0x819 build/default/production/_ext/1349076522/ip4_frag.o
 .debug_line    0x00010285      0x5c8 build/default/production/_ext/1264479574/mem.o
 .debug_line    0x0001084d      0x352 build/default/production/_ext/1264479574/memp.o
 .debug_line    0x00010b9f      0x6af build/default/production/_ext/1264479574/netif.o
 .debug_line    0x0001124e      0xc7e build/default/production/_ext/1264479574/pbuf.o
 .debug_line    0x00011ecc      0x5c2 build/default/production/_ext/1264479574/raw.o
 .debug_line    0x0001248e       0xff build/default/production/_ext/1264479574/stats.o
 .debug_line    0x0001258d     0x12ea build/default/production/_ext/1264479574/tcp.o
 .debug_line    0x00013877     0x1498 build/default/production/_ext/1264479574/tcp_in.o
 .debug_line    0x00014d0f     0x1070 build/default/production/_ext/1264479574/tcp_out.o
 .debug_line    0x00015d7f      0x4c4 build/default/production/_ext/1264479574/timeouts.o
 .debug_line    0x00016243      0x85f build/default/production/_ext/1264479574/udp.o
 .debug_line    0x00016aa2      0x315 build/default/production/_ext/534298161/ethernet.o
 .debug_line    0x00016db7      0xbe6 build/default/production/_ext/1439055959/ncm_device.o
 .debug_line    0x0001799d      0xfda build/default/production/_ext/761407912/tusb_fifo.o
 .debug_line    0x00018977     0x182d build/default/production/_ext/781065747/usbd.o
 .debug_line    0x0001a1a4      0x431 build/default/production/_ext/781065747/usbd_control.o
 .debug_line    0x0001a5d5     0x10da build/default/production/_ext/2093936272/dcd_samx7x.o
 .debug_line    0x0001b6af      0xa90 build/default/production/_ext/1119931634/tusb.o
 .debug_line    0x0001c13f      0x4df build/default/production/_ext/1017385999/sys_arch.o
 .debug_line    0x0001c61e      0x163 C:/Program Files/Microchip/xc32/v5.00/bin/bin/../../lib/gcc/pic32c/13.2.1/../../../../pic32c/lib/thumb/v7e-m+dp/hard\libpic32c.a(data_init.o)
 .debug_line    0x0001c781       0xfa C:/Program Files/Microchip/xc32/v5.00/bin/bin/../../lib/gcc/pic32c/13.2.1/../../../../pic32c/lib/thumb/v7e-m+dp/hard\libc-size-musl.a(memcmp.o)
 .debug_line    0x0001c87b      0x165 C:/Program Files/Microchip/xc32/v5.00/bin/bin/../../lib/gcc/pic32c/13.2.1/../../../../pic32c/lib/thumb/v7e-m+dp/hard\libc-size-musl.a(memcpy.o)
 .debug_line    0x0001c9e0      0x19b C:/Program Files/Microchip/xc32/v5.00/bin/bin/../../lib/gcc/pic32c/13.2.1/../../../../pic32c/lib/thumb/v7e-m+dp/hard\libc-size-musl.a(memmove.o)
 .debug_line    0x0001cb7b      0x162 C:/Program Files/Microchip/xc32/v5.00/bin/bin/../../lib/gcc/pic32c/13.2.1/../../../../pic32c/lib/thumb/v7e-m+dp/hard\libc-size-musl.a(memset.o)
 .debug_line    0x0001ccdd      0x161 C:/Program Files/Microchip/xc32/v5.00/bin/bin/../../lib/gcc/pic32c/13.2.1/../../../../pic32c/lib/thumb/v7e-m+dp/hard\libc-size-musl.a(strlen.o)
 .debug_line    0x0001ce3e       0xb2 C:/Program Files/Microchip/xc32/v5.00/bin/bin/../../lib/gcc/pic32c/13.2.1/../../../../pic32c/lib/thumb/v7e-m+dp/hard\libc-size-musl.a(strchr.o)
 .debug_line    0x0001cef0      0x1d6 C:/Program Files/Microchip/xc32/v5.00/bin/bin/../../lib/gcc/pic32c/13.2.1/../../../../pic32c/lib/thumb/v7e-m+dp/hard\libc-size-musl.a(strchrnul.o)
 .debug_line    0x0001d0c6       0xd6 C:/Program Files/Microchip/xc32/v5.00/bin/bin/../../lib/gcc/pic32c/13.2.1/../../../../pic32c/lib/thumb/v7e-m+dp/hard\libc-size-musl.a(strcmp.o)
 .debug_line    0x0001d19c       0xab C:/Program Files/Microchip/xc32/v5.00/bin/bin/../../lib/gcc/pic32c/13.2.1/../../../../pic32c/lib/thumb/v7e-m+dp/hard\libc-size-musl.a(strcpy.o)
 .debug_line    0x0001d247       0xcb C:/Program Files/Microchip/xc32/v5.00/bin/bin/../../lib/gcc/pic32c/13.2.1/../../../../pic32c/lib/thumb/v7e-m+dp/hard\libc-size-musl.a(strncpy.o)
 .debug_line    0x0001d312      0x14e C:/Program Files/Microchip/xc32/v5.00/bin/bin/../../lib/gcc/pic32c/13.2.1/../../../../pic32c/lib/thumb/v7e-m+dp/hard\libc-size-musl.a(stpcpy.o)
 .debug_line    0x0001d460      0x1ab C:/Program Files/Microchip/xc32/v5.00/bin/bin/../../lib/gcc/pic32c/13.2.1/../../../../pic32c/lib/thumb/v7e-m+dp/hard\libc-size-musl.a(stpncpy.o)
 .debug_line    0x0001d60b      0x15d C:/Program Files/Microchip/xc32/v5.00/bin/bin/../../lib/gcc/pic32c/13.2.1/../../../../pic32c/lib/thumb/v7e-m+dp/hard\libc-musl.a(toupper.o)
 .debug_line    0x0001d768      0x1da C:/Program Files/Microchip/xc32/v5.00/bin/bin/../../lib/gcc/pic32c/13.2.1/../../../../pic32c/lib/thumb/v7e-m+dp/hard\libc-musl.a(__libc_start_main.o)
 .debug_line    0x0001d942       0xb5 C:/Program Files/Microchip/xc32/v5.00/bin/bin/../../lib/gcc/pic32c/13.2.1/../../../../pic32c/lib/thumb/v7e-m+dp/hard\libc-musl.a(libc.o)
 .debug_line    0x0001d9f7      0x29d C:/Program Files/Microchip/xc32/v5.00/bin/bin/../../lib/gcc/pic32c/13.2.1/../../../../pic32c/lib/thumb/v7e-m+dp/hard\libc-musl.a(vsnprintf.o)
 .debug_line    0x0001dc94      0x154 C:/Program Files/Microchip/xc32/v5.00/bin/bin/../../lib/gcc/pic32c/13.2.1/../../../../pic32c/lib/thumb/v7e-m+dp/hard\libc-musl.a(snprintf.o)
 .debug_line    0x0001dde8      0x153 C:/Program Files/Microchip/xc32/v5.00/bin/bin/../../lib/gcc/pic32c/13.2.1/../../../../pic32c/lib/thumb/v7e-m+dp/hard\libc-musl.a(sprintf.o)
 .debug_line    0x0001df3b      0x143 C:/Program Files/Microchip/xc32/v5.00/bin/bin/../../lib/gcc/pic32c/13.2.1/../../../../pic32c/lib/thumb/v7e-m+dp/hard\libc-musl.a(vsprintf.o)
 .debug_line    0x0001e07e      0x17d C:/Program Files/Microchip/xc32/v5.00/bin/bin/../../lib/gcc/pic32c/13.2.1/../../../../pic32c/lib/thumb/v7e-m+dp/hard\libc-musl.a(atoi.o)
 .debug_line    0x0001e1fb      0x2ce C:/Program Files/Microchip/xc32/v5.00/bin/bin/../../lib/gcc/pic32c/13.2.1/../../../../pic32c/lib/thumb/v7e-m+dp/hard\libc-musl.a(strtol.o)
 .debug_line    0x0001e4c9       0xfb C:/Program Files/Microchip/xc32/v5.00/bin/bin/../../lib/gcc/pic32c/13.2.1/../../../../pic32c/lib/thumb/v7e-m+dp/hard\libc-musl.a(__environ.o)
 .debug_line    0x0001e5c4       0x9a C:/Program Files/Microchip/xc32/v5.00/bin/bin/../../lib/gcc/pic32c/13.2.1/../../../../pic32c/lib/thumb/v7e-m+dp/hard\libc-musl.a(__errno_location.o)
 .debug_line    0x0001e65e      0x6ed C:/Program Files/Microchip/xc32/v5.00/bin/bin/../../lib/gcc/pic32c/13.2.1/../../../../pic32c/lib/thumb/v7e-m+dp/hard\libc-musl.a(intscan.o)
 .debug_line    0x0001ed4b      0x23a C:/Program Files/Microchip/xc32/v5.00/bin/bin/../../lib/gcc/pic32c/13.2.1/../../../../pic32c/lib/thumb/v7e-m+dp/hard\libc-musl.a(shgetc.o)
 .debug_line    0x0001ef85      0x1d3 C:/Program Files/Microchip/xc32/v5.00/bin/bin/../../lib/gcc/pic32c/13.2.1/../../../../pic32c/lib/thumb/v7e-m+dp/hard\libc-musl.a(__uflow.o)
 .debug_line    0x0001f158      0x1d5 C:/Program Files/Microchip/xc32/v5.00/bin/bin/../../lib/gcc/pic32c/13.2.1/../../../../pic32c/lib/thumb/v7e-m+dp/hard\libc-musl.a(vfprintf.o)
 .debug_line    0x0001f32d      0x213 C:/Program Files/Microchip/xc32/v5.00/bin/bin/../../lib/gcc/pic32c/13.2.1/../../../../pic32c/lib/thumb/v7e-m+dp/hard\libc-musl.a(__toread.o)
 .debug_line    0x0001f540      0x16c C:/Program Files/Microchip/xc32/v5.00/bin/bin/../../lib/gcc/pic32c/13.2.1/../../../../pic32c/lib/thumb/v7e-m+dp/hard\libc-musl.a(__pop_float.o)
 .debug_line    0x0001f6ac      0x23f C:/Program Files/Microchip/xc32/v5.00/bin/bin/../../lib/gcc/pic32c/13.2.1/../../../../pic32c/lib/thumb/v7e-m+dp/hard\libc-musl.a(__pop_int.o)
 .debug_line    0x0001f8eb      0x1c4 C:/Program Files/Microchip/xc32/v5.00/bin/bin/../../lib/gcc/pic32c/13.2.1/../../../../pic32c/lib/thumb/v7e-m+dp/hard\libc-musl.a(__pop_ptr.o)
 .debug_line    0x0001faaf      0x76a C:/Program Files/Microchip/xc32/v5.00/bin/bin/../../lib/gcc/pic32c/13.2.1/../../../../pic32c/lib/thumb/v7e-m+dp/hard\libc-musl.a(__printf_core.o)
 .debug_line    0x00020219      0x15d C:/Program Files/Microchip/xc32/v5.00/bin/bin/../../lib/gcc/pic32c/13.2.1/../../../../pic32c/lib/thumb/v7e-m+dp/hard\libc-musl.a(tolower.o)
 .debug_line    0x00020376      0x76a C:/Program Files/Microchip/xc32/v5.00/bin/bin/../../lib/gcc/pic32c/13.2.1/../../../../pic32c/lib/thumb/v7e-m+dp/hard\libc-musl.a(__fmt_a.o)
 .debug_line    0x00020ae0      0x217 C:/Program Files/Microchip/xc32/v5.00/bin/bin/../../lib/gcc/pic32c/13.2.1/../../../../pic32c/lib/thumb/v7e-m+dp/hard\libc-musl.a(__fmt_d.o)
 .debug_line    0x00020cf7      0x71f C:/Program Files/Microchip/xc32/v5.00/bin/bin/../../lib/gcc/pic32c/13.2.1/../../../../pic32c/lib/thumb/v7e-m+dp/hard\libc-musl.a(__fmt_fp.o)
 .debug_line    0x00021416      0x1b2 C:/Program Files/Microchip/xc32/v5.00/bin/bin/../../lib/gcc/pic32c/13.2.1/../../../../pic32c/lib/thumb/v7e-m+dp/hard\libc-musl.a(__fmt_o.o)
 .debug_line    0x000215c8      0x1f5 C:/Program Files/Microchip/xc32/v5.00/bin/bin/../../lib/gcc/pic32c/13.2.1/../../../../pic32c/lib/thumb/v7e-m+dp/hard\libc-musl.a(__fmt_s.o)
 .debug_line    0x000217bd      0x191 C:/Program Files/Microchip/xc32/v5.00/bin/bin/../../lib/gcc/pic32c/13.2.1/../../../../pic32c/lib/thumb/v7e-m+dp/hard\libc-musl.a(__fmt_u.o)
 .debug_line    0x0002194e      0x304 C:/Program Files/Microchip/xc32/v5.00/bin/bin/../../lib/gcc/pic32c/13.2.1/../../../../pic32c/lib/thumb/v7e-m+dp/hard\libc-musl.a(__fmt_x.o)
 .debug_line    0x00021c52      0x1de C:/Program Files/Microchip/xc32/v5.00/bin/bin/../../lib/gcc/pic32c/13.2.1/../../../../pic32c/lib/thumb/v7e-m+dp/hard\libc-musl.a(__cvt_u.o)
 .debug_line    0x00021e30       0x85 C:/Program Files/Microchip/xc32/v5.00/bin/bin/../../lib/gcc/pic32c/13.2.1/thumb/v7e-m+dp/hard\libgcc.a(_aeabi_uldivmod.o)
 .debug_line    0x00021eb5      0x522 C:/Program Files/Microchip/xc32/v5.00/bin/bin/../../lib/gcc/pic32c/13.2.1/thumb/v7e-m+dp/hard\libgcc.a(_udivmoddi4.o)
 .debug_line    0x000223d7       0x85 C:/Program Files/Microchip/xc32/v5.00/bin/bin/../../lib/gcc/pic32c/13.2.1/thumb/v7e-m+dp/hard\libgcc.a(_dvmd_tls.o)
 .debug_line    0x0002245c      0x11c C:/Program Files/Microchip/xc32/v5.00/bin/bin/../../lib/gcc/pic32c/13.2.1/../../../../pic32c/lib/thumb/v7e-m+dp/hard\libpic32c.a(pic32_data_init_clear.o)
 .debug_line    0x00022578      0x126 C:/Program Files/Microchip/xc32/v5.00/bin/bin/../../lib/gcc/pic32c/13.2.1/../../../../pic32c/lib/thumb/v7e-m+dp/hard\libpic32c.a(pic32_data_init_copy.o)

.debug_str      0x00000000     0xfba5
 .debug_str     0x00000000     0xfba5 build/default/production/_ext/60165520/plib_clk.o
                                0x5ac (size before relaxing)
 .debug_str     0x0000fba5      0x445 build/default/production/_ext/60167248/plib_efc.o
 .debug_str     0x0000fba5      0x9c7 build/default/production/_ext/1865468468/plib_nvic.o
 .debug_str     0x0000fba5      0x6e8 build/default/production/_ext/60177924/plib_pio.o
 .debug_str     0x0000fba5      0x51b build/default/production/_ext/1827571544/plib_systick.o
 .debug_str     0x0000fba5      0x51c build/default/production/_ext/829342655/plib_tc3.o
 .debug_str     0x0000fba5      0x61c build/default/production/_ext/1865657120/plib_uart2.o
 .debug_str     0x0000fba5      0x3c2 build/default/production/_ext/1171490990/initialization.o
 .debug_str     0x0000fba5      0xa14 build/default/production/_ext/1171490990/interrupts.o
 .debug_str     0x0000fba5      0x34a build/default/production/_ext/1171490990/exceptions.o
 .debug_str     0x0000fba5      0x598 build/default/production/_ext/1171490990/startup_xc32.o
 .debug_str     0x0000fba5      0x483 build/default/production/_ext/249897560/boot_manager.o
 .debug_str     0x0000fba5      0x7c2 build/default/production/_ext/1778509306/os.o
 .debug_str     0x0000fba5      0x550 build/default/production/_ext/1134253236/simple_shield.o
 .debug_str     0x0000fba5      0x85d build/default/production/_ext/667517761/cli_command.o
 .debug_str     0x0000fba5      0x649 build/default/production/_ext/818259185/cli_setup.o
 .debug_str     0x0000fba5      0xa27 build/default/production/_ext/1422079320/embedded_cli.o
 .debug_str     0x0000fba5      0x7c1 build/default/production/_ext/216470852/uart_irq.o
 .debug_str     0x0000fba5      0x5d9 build/default/production/_ext/1908456078/port.o
 .debug_str     0x0000fba5      0x6a9 build/default/production/_ext/1562497596/heap_4.o
 .debug_str     0x0000fba5      0x442 build/default/production/_ext/502845695/list.o
 .debug_str     0x0000fba5      0xed6 build/default/production/_ext/502845695/queue.o
 .debug_str     0x0000fba5      0xc51 build/default/production/_ext/502845695/stream_buffer.o
 .debug_str     0x0000fba5     0x1801 build/default/production/_ext/502845695/tasks.o
 .debug_str     0x0000fba5      0xdf3 build/default/production/_ext/502845695/timers.o
 .debug_str     0x0000fba5      0x5d2 build/default/production/_ext/697864676/date_time.o
 .debug_str     0x0000fba5      0x4f7 build/default/production/_ext/1260377903/ring_buffer.o
 .debug_str     0x0000fba5      0x2e9 build/default/production/_ext/1226835810/tick.o
 .debug_str     0x0000fba5      0x6b7 build/default/production/_ext/1360937237/ATSAMV71cm7_it.o
 .debug_str     0x0000fba5      0x32a build/default/production/_ext/1360937237/main.o
 .debug_str     0x0000fba5      0x6bc build/default/production/_ext/30620426/app_cli.o
 .debug_str     0x0000fba5      0x7a5 build/default/production/_ext/1525186148/app_alive.o
 .debug_str     0x0000fba5      0x5ee build/default/production/_ext/1026660007/app_root.o
 .debug_str     0x0000fba5      0x52c build/default/production/_ext/1918720202/app_logging.o
 .debug_str     0x0000fba5      0x6a5 build/default/production/_ext/1798135708/dmesg.o
 .debug_str     0x0000fba5      0x4e6 build/default/production/_ext/751336192/xlog.o
 .debug_str     0x0000fba5      0xfd5 build/default/production/_ext/1389938436/app_network.o
 .debug_str     0x0000fba5      0x516 build/default/production/_ext/30602918/app_usb.o
 .debug_str     0x0000fba5      0x3f6 build/default/production/_ext/783082040/board_api.o
 .debug_str     0x0000fba5     0x1494 build/default/production/_ext/783082040/usb_descriptors.o
 .debug_str     0x0000fba5      0x97f build/default/production/_ext/2037418415/tcpip.o
 .debug_str     0x0000fba5      0x3a2 build/default/production/_ext/1264479574/def.o
 .debug_str     0x0000fba5      0x471 build/default/production/_ext/1264479574/inet_chksum.o
 .debug_str     0x0000fba5      0x33b build/default/production/_ext/1264479574/init.o
 .debug_str     0x0000fba5      0x5a6 build/default/production/_ext/1264479574/ip.o
 .debug_str     0x0000fba5      0xc0e build/default/production/_ext/1349076522/etharp.o
 .debug_str     0x0000fba5      0x891 build/default/production/_ext/1349076522/icmp.o
 .debug_str     0x0000fba5      0x98d build/default/production/_ext/1349076522/ip4.o
 .debug_str     0x0000fba5      0x5a8 build/default/production/_ext/1349076522/ip4_addr.o
 .debug_str     0x0000fba5      0xacb build/default/production/_ext/1349076522/ip4_frag.o
 .debug_str     0x0000fba5      0x6a5 build/default/production/_ext/1264479574/mem.o
 .debug_str     0x0000fba5      0x95c build/default/production/_ext/1264479574/memp.o
 .debug_str     0x0000fba5      0x82d build/default/production/_ext/1264479574/netif.o
 .debug_str     0x0000fba5      0xdaa build/default/production/_ext/1264479574/pbuf.o
 .debug_str     0x0000fba5      0x952 build/default/production/_ext/1264479574/raw.o
 .debug_str     0x0000fba5      0x476 build/default/production/_ext/1264479574/stats.o
 .debug_str     0x0000fba5     0x1059 build/default/production/_ext/1264479574/tcp.o
 .debug_str     0x0000fba5      0xea3 build/default/production/_ext/1264479574/tcp_in.o
 .debug_str     0x0000fba5      0xe0b build/default/production/_ext/1264479574/tcp_out.o
 .debug_str     0x0000fba5      0x96a build/default/production/_ext/1264479574/timeouts.o
 .debug_str     0x0000fba5      0xae2 build/default/production/_ext/1264479574/udp.o
 .debug_str     0x0000fba5      0x82c build/default/production/_ext/534298161/ethernet.o
 .debug_str     0x0000fba5     0x16c7 build/default/production/_ext/1439055959/ncm_device.o
 .debug_str     0x0000fba5      0x799 build/default/production/_ext/761407912/tusb_fifo.o
 .debug_str     0x0000fba5     0x1b2c build/default/production/_ext/781065747/usbd.o
 .debug_str     0x0000fba5      0x68e build/default/production/_ext/781065747/usbd_control.o
 .debug_str     0x0000fba5     0x16f0 build/default/production/_ext/2093936272/dcd_samx7x.o
 .debug_str     0x0000fba5      0xf19 build/default/production/_ext/1119931634/tusb.o
 .debug_str     0x0000fba5      0x89e build/default/production/_ext/1017385999/sys_arch.o
 .debug_str     0x0000fba5      0x2f9 C:/Program Files/Microchip/xc32/v5.00/bin/bin/../../lib/gcc/pic32c/13.2.1/../../../../pic32c/lib/thumb/v7e-m+dp/hard\libpic32c.a(data_init.o)
 .debug_str     0x0000fba5      0x243 C:/Program Files/Microchip/xc32/v5.00/bin/bin/../../lib/gcc/pic32c/13.2.1/../../../../pic32c/lib/thumb/v7e-m+dp/hard\libc-size-musl.a(memcmp.o)
 .debug_str     0x0000fba5      0x259 C:/Program Files/Microchip/xc32/v5.00/bin/bin/../../lib/gcc/pic32c/13.2.1/../../../../pic32c/lib/thumb/v7e-m+dp/hard\libc-size-musl.a(memcpy.o)
 .debug_str     0x0000fba5      0x260 C:/Program Files/Microchip/xc32/v5.00/bin/bin/../../lib/gcc/pic32c/13.2.1/../../../../pic32c/lib/thumb/v7e-m+dp/hard\libc-size-musl.a(memmove.o)
 .debug_str     0x0000fba5      0x245 C:/Program Files/Microchip/xc32/v5.00/bin/bin/../../lib/gcc/pic32c/13.2.1/../../../../pic32c/lib/thumb/v7e-m+dp/hard\libc-size-musl.a(memset.o)
 .debug_str     0x0000fba5      0x24b C:/Program Files/Microchip/xc32/v5.00/bin/bin/../../lib/gcc/pic32c/13.2.1/../../../../pic32c/lib/thumb/v7e-m+dp/hard\libc-size-musl.a(strlen.o)
 .debug_str     0x0000fba5      0x23f C:/Program Files/Microchip/xc32/v5.00/bin/bin/../../lib/gcc/pic32c/13.2.1/../../../../pic32c/lib/thumb/v7e-m+dp/hard\libc-size-musl.a(strchr.o)
 .debug_str     0x0000fba5      0x2b3 C:/Program Files/Microchip/xc32/v5.00/bin/bin/../../lib/gcc/pic32c/13.2.1/../../../../pic32c/lib/thumb/v7e-m+dp/hard\libc-size-musl.a(strchrnul.o)
 .debug_str     0x0000fba5      0x21c C:/Program Files/Microchip/xc32/v5.00/bin/bin/../../lib/gcc/pic32c/13.2.1/../../../../pic32c/lib/thumb/v7e-m+dp/hard\libc-size-musl.a(strcmp.o)
 .debug_str     0x0000fba5      0x241 C:/Program Files/Microchip/xc32/v5.00/bin/bin/../../lib/gcc/pic32c/13.2.1/../../../../pic32c/lib/thumb/v7e-m+dp/hard\libc-size-musl.a(strcpy.o)
 .debug_str     0x0000fba5      0x246 C:/Program Files/Microchip/xc32/v5.00/bin/bin/../../lib/gcc/pic32c/13.2.1/../../../../pic32c/lib/thumb/v7e-m+dp/hard\libc-size-musl.a(strncpy.o)
 .debug_str     0x0000fba5      0x23e C:/Program Files/Microchip/xc32/v5.00/bin/bin/../../lib/gcc/pic32c/13.2.1/../../../../pic32c/lib/thumb/v7e-m+dp/hard\libc-size-musl.a(stpcpy.o)
 .debug_str     0x0000fba5      0x264 C:/Program Files/Microchip/xc32/v5.00/bin/bin/../../lib/gcc/pic32c/13.2.1/../../../../pic32c/lib/thumb/v7e-m+dp/hard\libc-size-musl.a(stpncpy.o)
 .debug_str     0x0000fba5      0x27d C:/Program Files/Microchip/xc32/v5.00/bin/bin/../../lib/gcc/pic32c/13.2.1/../../../../pic32c/lib/thumb/v7e-m+dp/hard\libc-musl.a(toupper.o)
 .debug_str     0x0000fba5      0x3e7 C:/Program Files/Microchip/xc32/v5.00/bin/bin/../../lib/gcc/pic32c/13.2.1/../../../../pic32c/lib/thumb/v7e-m+dp/hard\libc-musl.a(__libc_start_main.o)
 .debug_str     0x0000fba5      0x352 C:/Program Files/Microchip/xc32/v5.00/bin/bin/../../lib/gcc/pic32c/13.2.1/../../../../pic32c/lib/thumb/v7e-m+dp/hard\libc-musl.a(libc.o)
 .debug_str     0x0000fba5      0x3ad C:/Program Files/Microchip/xc32/v5.00/bin/bin/../../lib/gcc/pic32c/13.2.1/../../../../pic32c/lib/thumb/v7e-m+dp/hard\libc-musl.a(vsnprintf.o)
 .debug_str     0x0000fba5      0x276 C:/Program Files/Microchip/xc32/v5.00/bin/bin/../../lib/gcc/pic32c/13.2.1/../../../../pic32c/lib/thumb/v7e-m+dp/hard\libc-musl.a(snprintf.o)
 .debug_str     0x0000fba5      0x26c C:/Program Files/Microchip/xc32/v5.00/bin/bin/../../lib/gcc/pic32c/13.2.1/../../../../pic32c/lib/thumb/v7e-m+dp/hard\libc-musl.a(sprintf.o)
 .debug_str     0x0000fba5      0x276 C:/Program Files/Microchip/xc32/v5.00/bin/bin/../../lib/gcc/pic32c/13.2.1/../../../../pic32c/lib/thumb/v7e-m+dp/hard\libc-musl.a(vsprintf.o)
 .debug_str     0x0000fba5      0x239 C:/Program Files/Microchip/xc32/v5.00/bin/bin/../../lib/gcc/pic32c/13.2.1/../../../../pic32c/lib/thumb/v7e-m+dp/hard\libc-musl.a(atoi.o)
 .debug_str     0x0000fba5      0x3ad C:/Program Files/Microchip/xc32/v5.00/bin/bin/../../lib/gcc/pic32c/13.2.1/../../../../pic32c/lib/thumb/v7e-m+dp/hard\libc-musl.a(strtol.o)
 .debug_str     0x0000fba5      0x252 C:/Program Files/Microchip/xc32/v5.00/bin/bin/../../lib/gcc/pic32c/13.2.1/../../../../pic32c/lib/thumb/v7e-m+dp/hard\libc-musl.a(__environ.o)
 .debug_str     0x0000fba5      0x246 C:/Program Files/Microchip/xc32/v5.00/bin/bin/../../lib/gcc/pic32c/13.2.1/../../../../pic32c/lib/thumb/v7e-m+dp/hard\libc-musl.a(__errno_location.o)
 .debug_str     0x0000fba5      0x387 C:/Program Files/Microchip/xc32/v5.00/bin/bin/../../lib/gcc/pic32c/13.2.1/../../../../pic32c/lib/thumb/v7e-m+dp/hard\libc-musl.a(intscan.o)
 .debug_str     0x0000fba5      0x35e C:/Program Files/Microchip/xc32/v5.00/bin/bin/../../lib/gcc/pic32c/13.2.1/../../../../pic32c/lib/thumb/v7e-m+dp/hard\libc-musl.a(shgetc.o)
 .debug_str     0x0000fba5      0x354 C:/Program Files/Microchip/xc32/v5.00/bin/bin/../../lib/gcc/pic32c/13.2.1/../../../../pic32c/lib/thumb/v7e-m+dp/hard\libc-musl.a(__uflow.o)
 .debug_str     0x0000fba5      0x39c C:/Program Files/Microchip/xc32/v5.00/bin/bin/../../lib/gcc/pic32c/13.2.1/../../../../pic32c/lib/thumb/v7e-m+dp/hard\libc-musl.a(vfprintf.o)
 .debug_str     0x0000fba5      0x37b C:/Program Files/Microchip/xc32/v5.00/bin/bin/../../lib/gcc/pic32c/13.2.1/../../../../pic32c/lib/thumb/v7e-m+dp/hard\libc-musl.a(__toread.o)
 .debug_str     0x0000fba5      0x2dd C:/Program Files/Microchip/xc32/v5.00/bin/bin/../../lib/gcc/pic32c/13.2.1/../../../../pic32c/lib/thumb/v7e-m+dp/hard\libc-musl.a(__pop_float.o)
 .debug_str     0x0000fba5      0x2e8 C:/Program Files/Microchip/xc32/v5.00/bin/bin/../../lib/gcc/pic32c/13.2.1/../../../../pic32c/lib/thumb/v7e-m+dp/hard\libc-musl.a(__pop_int.o)
 .debug_str     0x0000fba5      0x2ea C:/Program Files/Microchip/xc32/v5.00/bin/bin/../../lib/gcc/pic32c/13.2.1/../../../../pic32c/lib/thumb/v7e-m+dp/hard\libc-musl.a(__pop_ptr.o)
 .debug_str     0x0000fba5      0x404 C:/Program Files/Microchip/xc32/v5.00/bin/bin/../../lib/gcc/pic32c/13.2.1/../../../../pic32c/lib/thumb/v7e-m+dp/hard\libc-musl.a(__printf_core.o)
 .debug_str     0x0000fba5      0x27d C:/Program Files/Microchip/xc32/v5.00/bin/bin/../../lib/gcc/pic32c/13.2.1/../../../../pic32c/lib/thumb/v7e-m+dp/hard\libc-musl.a(tolower.o)
 .debug_str     0x0000fba5      0x350 C:/Program Files/Microchip/xc32/v5.00/bin/bin/../../lib/gcc/pic32c/13.2.1/../../../../pic32c/lib/thumb/v7e-m+dp/hard\libc-musl.a(__fmt_a.o)
 .debug_str     0x0000fba5      0x312 C:/Program Files/Microchip/xc32/v5.00/bin/bin/../../lib/gcc/pic32c/13.2.1/../../../../pic32c/lib/thumb/v7e-m+dp/hard\libc-musl.a(__fmt_d.o)
 .debug_str     0x0000fba5      0x363 C:/Program Files/Microchip/xc32/v5.00/bin/bin/../../lib/gcc/pic32c/13.2.1/../../../../pic32c/lib/thumb/v7e-m+dp/hard\libc-musl.a(__fmt_fp.o)
 .debug_str     0x0000fba5      0x312 C:/Program Files/Microchip/xc32/v5.00/bin/bin/../../lib/gcc/pic32c/13.2.1/../../../../pic32c/lib/thumb/v7e-m+dp/hard\libc-musl.a(__fmt_o.o)
 .debug_str     0x0000fba5      0x2fe C:/Program Files/Microchip/xc32/v5.00/bin/bin/../../lib/gcc/pic32c/13.2.1/../../../../pic32c/lib/thumb/v7e-m+dp/hard\libc-musl.a(__fmt_s.o)
 .debug_str     0x0000fba5      0x312 C:/Program Files/Microchip/xc32/v5.00/bin/bin/../../lib/gcc/pic32c/13.2.1/../../../../pic32c/lib/thumb/v7e-m+dp/hard\libc-musl.a(__fmt_u.o)
 .debug_str     0x0000fba5      0x312 C:/Program Files/Microchip/xc32/v5.00/bin/bin/../../lib/gcc/pic32c/13.2.1/../../../../pic32c/lib/thumb/v7e-m+dp/hard\libc-musl.a(__fmt_x.o)
 .debug_str     0x0000fba5      0x2df C:/Program Files/Microchip/xc32/v5.00/bin/bin/../../lib/gcc/pic32c/13.2.1/../../../../pic32c/lib/thumb/v7e-m+dp/hard\libc-musl.a(__cvt_u.o)
 .debug_str     0x0000fba5       0xde C:/Program Files/Microchip/xc32/v5.00/bin/bin/../../lib/gcc/pic32c/13.2.1/thumb/v7e-m+dp/hard\libgcc.a(_aeabi_uldivmod.o)
 .debug_str     0x0000fba5      0x718 C:/Program Files/Microchip/xc32/v5.00/bin/bin/../../lib/gcc/pic32c/13.2.1/thumb/v7e-m+dp/hard\libgcc.a(_udivmoddi4.o)
 .debug_str     0x0000fba5       0xed C:/Program Files/Microchip/xc32/v5.00/bin/bin/../../lib/gcc/pic32c/13.2.1/thumb/v7e-m+dp/hard\libgcc.a(_dvmd_tls.o)
 .debug_str     0x0000fba5      0x28a C:/Program Files/Microchip/xc32/v5.00/bin/bin/../../lib/gcc/pic32c/13.2.1/../../../../pic32c/lib/thumb/v7e-m+dp/hard\libpic32c.a(pic32_data_init_clear.o)
 .debug_str     0x0000fba5      0x291 C:/Program Files/Microchip/xc32/v5.00/bin/bin/../../lib/gcc/pic32c/13.2.1/../../../../pic32c/lib/thumb/v7e-m+dp/hard\libpic32c.a(pic32_data_init_copy.o)

.debug_frame    0x00000000     0x98b4
 .debug_frame   0x00000000      0x114 build/default/production/_ext/60165520/plib_clk.o
 .debug_frame   0x00000114      0x1ac build/default/production/_ext/60167248/plib_efc.o
 .debug_frame   0x000002c0      0x1ac build/default/production/_ext/1865468468/plib_nvic.o
 .debug_frame   0x0000046c      0x170 build/default/production/_ext/60177924/plib_pio.o
 .debug_frame   0x000005dc      0x21c build/default/production/_ext/1827571544/plib_systick.o
 .debug_frame   0x000007f8      0x144 build/default/production/_ext/829342655/plib_tc3.o
 .debug_frame   0x0000093c      0x274 build/default/production/_ext/1865657120/plib_uart2.o
 .debug_frame   0x00000bb0       0x34 build/default/production/_ext/1171490990/initialization.o
 .debug_frame   0x00000be4       0x20 build/default/production/_ext/1171490990/interrupts.o
 .debug_frame   0x00000c04       0xa0 build/default/production/_ext/1171490990/exceptions.o
 .debug_frame   0x00000ca4       0x68 build/default/production/_ext/1171490990/startup_xc32.o
 .debug_frame   0x00000d0c       0x48 build/default/production/_ext/249897560/boot_manager.o
 .debug_frame   0x00000d54      0x1cc build/default/production/_ext/1778509306/os.o
 .debug_frame   0x00000f20      0x1dc build/default/production/_ext/1134253236/simple_shield.o
 .debug_frame   0x000010fc      0x18c build/default/production/_ext/667517761/cli_command.o
 .debug_frame   0x00001288       0xe4 build/default/production/_ext/818259185/cli_setup.o
 .debug_frame   0x0000136c      0x584 build/default/production/_ext/1422079320/embedded_cli.o
 .debug_frame   0x000018f0      0x378 build/default/production/_ext/216470852/uart_irq.o
 .debug_frame   0x00001c68      0x1a8 build/default/production/_ext/1908456078/port.o
 .debug_frame   0x00001e10      0x174 build/default/production/_ext/1562497596/heap_4.o
 .debug_frame   0x00001f84       0xd8 build/default/production/_ext/502845695/list.o
 .debug_frame   0x0000205c      0x664 build/default/production/_ext/502845695/queue.o
 .debug_frame   0x000026c0      0x474 build/default/production/_ext/502845695/stream_buffer.o
 .debug_frame   0x00002b34      0xacc build/default/production/_ext/502845695/tasks.o
 .debug_frame   0x00003600      0x4a8 build/default/production/_ext/502845695/timers.o
 .debug_frame   0x00003aa8      0x23c build/default/production/_ext/697864676/date_time.o
 .debug_frame   0x00003ce4      0x198 build/default/production/_ext/1260377903/ring_buffer.o
 .debug_frame   0x00003e7c       0x50 build/default/production/_ext/1226835810/tick.o
 .debug_frame   0x00003ecc       0xb0 build/default/production/_ext/1360937237/ATSAMV71cm7_it.o
 .debug_frame   0x00003f7c       0x2c build/default/production/_ext/1360937237/main.o
 .debug_frame   0x00003fa8       0x9c build/default/production/_ext/30620426/app_cli.o
 .debug_frame   0x00004044       0x30 build/default/production/_ext/1525186148/app_alive.o
 .debug_frame   0x00004074       0x90 build/default/production/_ext/1026660007/app_root.o
 .debug_frame   0x00004104       0x30 build/default/production/_ext/1918720202/app_logging.o
 .debug_frame   0x00004134      0x1e8 build/default/production/_ext/1798135708/dmesg.o
 .debug_frame   0x0000431c       0x70 build/default/production/_ext/751336192/xlog.o
 .debug_frame   0x0000438c      0x228 build/default/production/_ext/1389938436/app_network.o
 .debug_frame   0x000045b4       0x30 build/default/production/_ext/30602918/app_usb.o
 .debug_frame   0x000045e4      0x128 build/default/production/_ext/783082040/board_api.o
 .debug_frame   0x0000470c       0xe8 build/default/production/_ext/783082040/usb_descriptors.o
 .debug_frame   0x000047f4      0x270 build/default/production/_ext/2037418415/tcpip.o
 .debug_frame   0x00004a64       0xf8 build/default/production/_ext/1264479574/def.o
 .debug_frame   0x00004b5c      0x158 build/default/production/_ext/1264479574/inet_chksum.o
 .debug_frame   0x00004cb4       0x34 build/default/production/_ext/1264479574/init.o
 .debug_frame   0x00004ce8      0x274 build/default/production/_ext/1349076522/etharp.o
 .debug_frame   0x00004f5c       0xa8 build/default/production/_ext/1349076522/icmp.o
 .debug_frame   0x00005004       0xf4 build/default/production/_ext/1349076522/ip4.o
 .debug_frame   0x000050f8      0x11c build/default/production/_ext/1349076522/ip4_addr.o
 .debug_frame   0x00005214      0x1a0 build/default/production/_ext/1349076522/ip4_frag.o
 .debug_frame   0x000053b4      0x164 build/default/production/_ext/1264479574/mem.o
 .debug_frame   0x00005518      0x134 build/default/production/_ext/1264479574/memp.o
 .debug_frame   0x0000564c      0x3a8 build/default/production/_ext/1264479574/netif.o
 .debug_frame   0x000059f4      0x560 build/default/production/_ext/1264479574/pbuf.o
 .debug_frame   0x00005f54      0x230 build/default/production/_ext/1264479574/raw.o
 .debug_frame   0x00006184       0x30 build/default/production/_ext/1264479574/stats.o
 .debug_frame   0x000061b4      0x7a0 build/default/production/_ext/1264479574/tcp.o
 .debug_frame   0x00006954      0x1b8 build/default/production/_ext/1264479574/tcp_in.o
 .debug_frame   0x00006b0c      0x3c0 build/default/production/_ext/1264479574/tcp_out.o
 .debug_frame   0x00006ecc      0x170 build/default/production/_ext/1264479574/timeouts.o
 .debug_frame   0x0000703c      0x294 build/default/production/_ext/1264479574/udp.o
 .debug_frame   0x000072d0       0x58 build/default/production/_ext/534298161/ethernet.o
 .debug_frame   0x00007328      0x408 build/default/production/_ext/1439055959/ncm_device.o
 .debug_frame   0x00007730      0x3c4 build/default/production/_ext/761407912/tusb_fifo.o
 .debug_frame   0x00007af4      0x864 build/default/production/_ext/781065747/usbd.o
 .debug_frame   0x00008358      0x15c build/default/production/_ext/781065747/usbd_control.o
 .debug_frame   0x000084b4      0x3a4 build/default/production/_ext/2093936272/dcd_samx7x.o
 .debug_frame   0x00008858      0x394 build/default/production/_ext/1119931634/tusb.o
 .debug_frame   0x00008bec      0x30c build/default/production/_ext/1017385999/sys_arch.o
 .debug_frame   0x00008ef8       0x4c C:/Program Files/Microchip/xc32/v5.00/bin/bin/../../lib/gcc/pic32c/13.2.1/../../../../pic32c/lib/thumb/v7e-m+dp/hard\libpic32c.a(data_init.o)
 .debug_frame   0x00008f44       0x30 C:/Program Files/Microchip/xc32/v5.00/bin/bin/../../lib/gcc/pic32c/13.2.1/../../../../pic32c/lib/thumb/v7e-m+dp/hard\libc-size-musl.a(memcmp.o)
 .debug_frame   0x00008f74       0x20 C:/Program Files/Microchip/xc32/v5.00/bin/bin/../../lib/gcc/pic32c/13.2.1/../../../../pic32c/lib/thumb/v7e-m+dp/hard\libc-size-musl.a(memcpy.o)
 .debug_frame   0x00008f94       0x20 C:/Program Files/Microchip/xc32/v5.00/bin/bin/../../lib/gcc/pic32c/13.2.1/../../../../pic32c/lib/thumb/v7e-m+dp/hard\libc-size-musl.a(memmove.o)
 .debug_frame   0x00008fb4       0x20 C:/Program Files/Microchip/xc32/v5.00/bin/bin/../../lib/gcc/pic32c/13.2.1/../../../../pic32c/lib/thumb/v7e-m+dp/hard\libc-size-musl.a(memset.o)
 .debug_frame   0x00008fd4       0x20 C:/Program Files/Microchip/xc32/v5.00/bin/bin/../../lib/gcc/pic32c/13.2.1/../../../../pic32c/lib/thumb/v7e-m+dp/hard\libc-size-musl.a(strlen.o)
 .debug_frame   0x00008ff4       0x28 C:/Program Files/Microchip/xc32/v5.00/bin/bin/../../lib/gcc/pic32c/13.2.1/../../../../pic32c/lib/thumb/v7e-m+dp/hard\libc-size-musl.a(strchr.o)
 .debug_frame   0x0000901c       0x2c C:/Program Files/Microchip/xc32/v5.00/bin/bin/../../lib/gcc/pic32c/13.2.1/../../../../pic32c/lib/thumb/v7e-m+dp/hard\libc-size-musl.a(strchrnul.o)
 .debug_frame   0x00009048       0x28 C:/Program Files/Microchip/xc32/v5.00/bin/bin/../../lib/gcc/pic32c/13.2.1/../../../../pic32c/lib/thumb/v7e-m+dp/hard\libc-size-musl.a(strcmp.o)
 .debug_frame   0x00009070       0x28 C:/Program Files/Microchip/xc32/v5.00/bin/bin/../../lib/gcc/pic32c/13.2.1/../../../../pic32c/lib/thumb/v7e-m+dp/hard\libc-size-musl.a(strcpy.o)
 .debug_frame   0x00009098       0x28 C:/Program Files/Microchip/xc32/v5.00/bin/bin/../../lib/gcc/pic32c/13.2.1/../../../../pic32c/lib/thumb/v7e-m+dp/hard\libc-size-musl.a(strncpy.o)
 .debug_frame   0x000090c0       0x20 C:/Program Files/Microchip/xc32/v5.00/bin/bin/../../lib/gcc/pic32c/13.2.1/../../../../pic32c/lib/thumb/v7e-m+dp/hard\libc-size-musl.a(stpcpy.o)
 .debug_frame   0x000090e0       0x38 C:/Program Files/Microchip/xc32/v5.00/bin/bin/../../lib/gcc/pic32c/13.2.1/../../../../pic32c/lib/thumb/v7e-m+dp/hard\libc-size-musl.a(stpncpy.o)
 .debug_frame   0x00009118       0x30 C:/Program Files/Microchip/xc32/v5.00/bin/bin/../../lib/gcc/pic32c/13.2.1/../../../../pic32c/lib/thumb/v7e-m+dp/hard\libc-musl.a(toupper.o)
 .debug_frame   0x00009148       0x3c C:/Program Files/Microchip/xc32/v5.00/bin/bin/../../lib/gcc/pic32c/13.2.1/../../../../pic32c/lib/thumb/v7e-m+dp/hard\libc-musl.a(__libc_start_main.o)
 .debug_frame   0x00009184       0x38 C:/Program Files/Microchip/xc32/v5.00/bin/bin/../../lib/gcc/pic32c/13.2.1/../../../../pic32c/lib/thumb/v7e-m+dp/hard\libc-musl.a(vsnprintf.o)
 .debug_frame   0x000091bc       0x38 C:/Program Files/Microchip/xc32/v5.00/bin/bin/../../lib/gcc/pic32c/13.2.1/../../../../pic32c/lib/thumb/v7e-m+dp/hard\libc-musl.a(snprintf.o)
 .debug_frame   0x000091f4       0x3c C:/Program Files/Microchip/xc32/v5.00/bin/bin/../../lib/gcc/pic32c/13.2.1/../../../../pic32c/lib/thumb/v7e-m+dp/hard\libc-musl.a(sprintf.o)
 .debug_frame   0x00009230       0x20 C:/Program Files/Microchip/xc32/v5.00/bin/bin/../../lib/gcc/pic32c/13.2.1/../../../../pic32c/lib/thumb/v7e-m+dp/hard\libc-musl.a(vsprintf.o)
 .debug_frame   0x00009250       0x20 C:/Program Files/Microchip/xc32/v5.00/bin/bin/../../lib/gcc/pic32c/13.2.1/../../../../pic32c/lib/thumb/v7e-m+dp/hard\libc-musl.a(atoi.o)
 .debug_frame   0x00009270       0xc4 C:/Program Files/Microchip/xc32/v5.00/bin/bin/../../lib/gcc/pic32c/13.2.1/../../../../pic32c/lib/thumb/v7e-m+dp/hard\libc-musl.a(strtol.o)
 .debug_frame   0x00009334       0x40 C:/Program Files/Microchip/xc32/v5.00/bin/bin/../../lib/gcc/pic32c/13.2.1/../../../../pic32c/lib/thumb/v7e-m+dp/hard\libc-musl.a(intscan.o)
 .debug_frame   0x00009374       0x44 C:/Program Files/Microchip/xc32/v5.00/bin/bin/../../lib/gcc/pic32c/13.2.1/../../../../pic32c/lib/thumb/v7e-m+dp/hard\libc-musl.a(shgetc.o)
 .debug_frame   0x000093b8       0x30 C:/Program Files/Microchip/xc32/v5.00/bin/bin/../../lib/gcc/pic32c/13.2.1/../../../../pic32c/lib/thumb/v7e-m+dp/hard\libc-musl.a(__uflow.o)
 .debug_frame   0x000093e8       0x3c C:/Program Files/Microchip/xc32/v5.00/bin/bin/../../lib/gcc/pic32c/13.2.1/../../../../pic32c/lib/thumb/v7e-m+dp/hard\libc-musl.a(vfprintf.o)
 .debug_frame   0x00009424       0x38 C:/Program Files/Microchip/xc32/v5.00/bin/bin/../../lib/gcc/pic32c/13.2.1/../../../../pic32c/lib/thumb/v7e-m+dp/hard\libc-musl.a(__toread.o)
 .debug_frame   0x0000945c       0x20 C:/Program Files/Microchip/xc32/v5.00/bin/bin/../../lib/gcc/pic32c/13.2.1/../../../../pic32c/lib/thumb/v7e-m+dp/hard\libc-musl.a(__pop_float.o)
 .debug_frame   0x0000947c       0x28 C:/Program Files/Microchip/xc32/v5.00/bin/bin/../../lib/gcc/pic32c/13.2.1/../../../../pic32c/lib/thumb/v7e-m+dp/hard\libc-musl.a(__pop_int.o)
 .debug_frame   0x000094a4       0x28 C:/Program Files/Microchip/xc32/v5.00/bin/bin/../../lib/gcc/pic32c/13.2.1/../../../../pic32c/lib/thumb/v7e-m+dp/hard\libc-musl.a(__pop_ptr.o)
 .debug_frame   0x000094cc       0xd4 C:/Program Files/Microchip/xc32/v5.00/bin/bin/../../lib/gcc/pic32c/13.2.1/../../../../pic32c/lib/thumb/v7e-m+dp/hard\libc-musl.a(__printf_core.o)
 .debug_frame   0x000095a0       0x30 C:/Program Files/Microchip/xc32/v5.00/bin/bin/../../lib/gcc/pic32c/13.2.1/../../../../pic32c/lib/thumb/v7e-m+dp/hard\libc-musl.a(tolower.o)
 .debug_frame   0x000095d0       0x78 C:/Program Files/Microchip/xc32/v5.00/bin/bin/../../lib/gcc/pic32c/13.2.1/../../../../pic32c/lib/thumb/v7e-m+dp/hard\libc-musl.a(__fmt_a.o)
 .debug_frame   0x00009648       0x38 C:/Program Files/Microchip/xc32/v5.00/bin/bin/../../lib/gcc/pic32c/13.2.1/../../../../pic32c/lib/thumb/v7e-m+dp/hard\libc-musl.a(__fmt_d.o)
 .debug_frame   0x00009680       0x78 C:/Program Files/Microchip/xc32/v5.00/bin/bin/../../lib/gcc/pic32c/13.2.1/../../../../pic32c/lib/thumb/v7e-m+dp/hard\libc-musl.a(__fmt_fp.o)
 .debug_frame   0x000096f8       0x34 C:/Program Files/Microchip/xc32/v5.00/bin/bin/../../lib/gcc/pic32c/13.2.1/../../../../pic32c/lib/thumb/v7e-m+dp/hard\libc-musl.a(__fmt_o.o)
 .debug_frame   0x0000972c       0x34 C:/Program Files/Microchip/xc32/v5.00/bin/bin/../../lib/gcc/pic32c/13.2.1/../../../../pic32c/lib/thumb/v7e-m+dp/hard\libc-musl.a(__fmt_s.o)
 .debug_frame   0x00009760       0x34 C:/Program Files/Microchip/xc32/v5.00/bin/bin/../../lib/gcc/pic32c/13.2.1/../../../../pic32c/lib/thumb/v7e-m+dp/hard\libc-musl.a(__fmt_u.o)
 .debug_frame   0x00009794       0x40 C:/Program Files/Microchip/xc32/v5.00/bin/bin/../../lib/gcc/pic32c/13.2.1/../../../../pic32c/lib/thumb/v7e-m+dp/hard\libc-musl.a(__fmt_x.o)
 .debug_frame   0x000097d4       0x38 C:/Program Files/Microchip/xc32/v5.00/bin/bin/../../lib/gcc/pic32c/13.2.1/../../../../pic32c/lib/thumb/v7e-m+dp/hard\libc-musl.a(__cvt_u.o)
 .debug_frame   0x0000980c       0x2c C:/Program Files/Microchip/xc32/v5.00/bin/bin/../../lib/gcc/pic32c/13.2.1/thumb/v7e-m+dp/hard\libgcc.a(_aeabi_uldivmod.o)
 .debug_frame   0x00009838       0x34 C:/Program Files/Microchip/xc32/v5.00/bin/bin/../../lib/gcc/pic32c/13.2.1/thumb/v7e-m+dp/hard\libgcc.a(_udivmoddi4.o)
 .debug_frame   0x0000986c       0x20 C:/Program Files/Microchip/xc32/v5.00/bin/bin/../../lib/gcc/pic32c/13.2.1/../../../../pic32c/lib/thumb/v7e-m+dp/hard\libpic32c.a(pic32_data_init_clear.o)
 .debug_frame   0x0000988c       0x28 C:/Program Files/Microchip/xc32/v5.00/bin/bin/../../lib/gcc/pic32c/13.2.1/../../../../pic32c/lib/thumb/v7e-m+dp/hard\libpic32c.a(pic32_data_init_copy.o)

.note.GNU-stack
                0x00000000        0x0
 .note.GNU-stack
                0x00000000        0x0 C:/Program Files/Microchip/xc32/v5.00/bin/bin/../../lib/gcc/pic32c/13.2.1/../../../../pic32c/lib/thumb/v7e-m+dp/hard\libc-size-musl.a(memcmp.o)
 .note.GNU-stack
                0x00000000        0x0 C:/Program Files/Microchip/xc32/v5.00/bin/bin/../../lib/gcc/pic32c/13.2.1/../../../../pic32c/lib/thumb/v7e-m+dp/hard\libc-size-musl.a(memcpy.o)
 .note.GNU-stack
                0x00000000        0x0 C:/Program Files/Microchip/xc32/v5.00/bin/bin/../../lib/gcc/pic32c/13.2.1/../../../../pic32c/lib/thumb/v7e-m+dp/hard\libc-size-musl.a(memmove.o)
 .note.GNU-stack
                0x00000000        0x0 C:/Program Files/Microchip/xc32/v5.00/bin/bin/../../lib/gcc/pic32c/13.2.1/../../../../pic32c/lib/thumb/v7e-m+dp/hard\libc-size-musl.a(memset.o)
 .note.GNU-stack
                0x00000000        0x0 C:/Program Files/Microchip/xc32/v5.00/bin/bin/../../lib/gcc/pic32c/13.2.1/../../../../pic32c/lib/thumb/v7e-m+dp/hard\libc-size-musl.a(strlen.o)
 .note.GNU-stack
                0x00000000        0x0 C:/Program Files/Microchip/xc32/v5.00/bin/bin/../../lib/gcc/pic32c/13.2.1/../../../../pic32c/lib/thumb/v7e-m+dp/hard\libc-size-musl.a(strchr.o)
 .note.GNU-stack
                0x00000000        0x0 C:/Program Files/Microchip/xc32/v5.00/bin/bin/../../lib/gcc/pic32c/13.2.1/../../../../pic32c/lib/thumb/v7e-m+dp/hard\libc-size-musl.a(strchrnul.o)
 .note.GNU-stack
                0x00000000        0x0 C:/Program Files/Microchip/xc32/v5.00/bin/bin/../../lib/gcc/pic32c/13.2.1/../../../../pic32c/lib/thumb/v7e-m+dp/hard\libc-size-musl.a(strcmp.o)
 .note.GNU-stack
                0x00000000        0x0 C:/Program Files/Microchip/xc32/v5.00/bin/bin/../../lib/gcc/pic32c/13.2.1/../../../../pic32c/lib/thumb/v7e-m+dp/hard\libc-size-musl.a(strcpy.o)
 .note.GNU-stack
                0x00000000        0x0 C:/Program Files/Microchip/xc32/v5.00/bin/bin/../../lib/gcc/pic32c/13.2.1/../../../../pic32c/lib/thumb/v7e-m+dp/hard\libc-size-musl.a(strncpy.o)
 .note.GNU-stack
                0x00000000        0x0 C:/Program Files/Microchip/xc32/v5.00/bin/bin/../../lib/gcc/pic32c/13.2.1/../../../../pic32c/lib/thumb/v7e-m+dp/hard\libc-size-musl.a(stpcpy.o)
 .note.GNU-stack
                0x00000000        0x0 C:/Program Files/Microchip/xc32/v5.00/bin/bin/../../lib/gcc/pic32c/13.2.1/../../../../pic32c/lib/thumb/v7e-m+dp/hard\libc-size-musl.a(stpncpy.o)
 .note.GNU-stack
                0x00000000        0x0 C:/Program Files/Microchip/xc32/v5.00/bin/bin/../../lib/gcc/pic32c/13.2.1/../../../../pic32c/lib/thumb/v7e-m+dp/hard\libc-musl.a(toupper.o)
 .note.GNU-stack
                0x00000000        0x0 C:/Program Files/Microchip/xc32/v5.00/bin/bin/../../lib/gcc/pic32c/13.2.1/../../../../pic32c/lib/thumb/v7e-m+dp/hard\libc-musl.a(__libc_start_main.o)
 .note.GNU-stack
                0x00000000        0x0 C:/Program Files/Microchip/xc32/v5.00/bin/bin/../../lib/gcc/pic32c/13.2.1/../../../../pic32c/lib/thumb/v7e-m+dp/hard\libc-musl.a(libc.o)
 .note.GNU-stack
                0x00000000        0x0 C:/Program Files/Microchip/xc32/v5.00/bin/bin/../../lib/gcc/pic32c/13.2.1/../../../../pic32c/lib/thumb/v7e-m+dp/hard\libc-musl.a(vsnprintf.o)
 .note.GNU-stack
                0x00000000        0x0 C:/Program Files/Microchip/xc32/v5.00/bin/bin/../../lib/gcc/pic32c/13.2.1/../../../../pic32c/lib/thumb/v7e-m+dp/hard\libc-musl.a(snprintf.o)
 .note.GNU-stack
                0x00000000        0x0 C:/Program Files/Microchip/xc32/v5.00/bin/bin/../../lib/gcc/pic32c/13.2.1/../../../../pic32c/lib/thumb/v7e-m+dp/hard\libc-musl.a(sprintf.o)
 .note.GNU-stack
                0x00000000        0x0 C:/Program Files/Microchip/xc32/v5.00/bin/bin/../../lib/gcc/pic32c/13.2.1/../../../../pic32c/lib/thumb/v7e-m+dp/hard\libc-musl.a(vsprintf.o)
 .note.GNU-stack
                0x00000000        0x0 C:/Program Files/Microchip/xc32/v5.00/bin/bin/../../lib/gcc/pic32c/13.2.1/../../../../pic32c/lib/thumb/v7e-m+dp/hard\libc-musl.a(atoi.o)
 .note.GNU-stack
                0x00000000        0x0 C:/Program Files/Microchip/xc32/v5.00/bin/bin/../../lib/gcc/pic32c/13.2.1/../../../../pic32c/lib/thumb/v7e-m+dp/hard\libc-musl.a(strtol.o)
 .note.GNU-stack
                0x00000000        0x0 C:/Program Files/Microchip/xc32/v5.00/bin/bin/../../lib/gcc/pic32c/13.2.1/../../../../pic32c/lib/thumb/v7e-m+dp/hard\libc-musl.a(__environ.o)
 .note.GNU-stack
                0x00000000        0x0 C:/Program Files/Microchip/xc32/v5.00/bin/bin/../../lib/gcc/pic32c/13.2.1/../../../../pic32c/lib/thumb/v7e-m+dp/hard\libc-musl.a(__errno_location.o)
 .note.GNU-stack
                0x00000000        0x0 C:/Program Files/Microchip/xc32/v5.00/bin/bin/../../lib/gcc/pic32c/13.2.1/../../../../pic32c/lib/thumb/v7e-m+dp/hard\libc-musl.a(intscan.o)
 .note.GNU-stack
                0x00000000        0x0 C:/Program Files/Microchip/xc32/v5.00/bin/bin/../../lib/gcc/pic32c/13.2.1/../../../../pic32c/lib/thumb/v7e-m+dp/hard\libc-musl.a(shgetc.o)
 .note.GNU-stack
                0x00000000        0x0 C:/Program Files/Microchip/xc32/v5.00/bin/bin/../../lib/gcc/pic32c/13.2.1/../../../../pic32c/lib/thumb/v7e-m+dp/hard\libc-musl.a(__uflow.o)
 .note.GNU-stack
                0x00000000        0x0 C:/Program Files/Microchip/xc32/v5.00/bin/bin/../../lib/gcc/pic32c/13.2.1/../../../../pic32c/lib/thumb/v7e-m+dp/hard\libc-musl.a(vfprintf.o)
 .note.GNU-stack
                0x00000000        0x0 C:/Program Files/Microchip/xc32/v5.00/bin/bin/../../lib/gcc/pic32c/13.2.1/../../../../pic32c/lib/thumb/v7e-m+dp/hard\libc-musl.a(__toread.o)
 .note.GNU-stack
                0x00000000        0x0 C:/Program Files/Microchip/xc32/v5.00/bin/bin/../../lib/gcc/pic32c/13.2.1/../../../../pic32c/lib/thumb/v7e-m+dp/hard\libc-musl.a(__pop_float.o)
 .note.GNU-stack
                0x00000000        0x0 C:/Program Files/Microchip/xc32/v5.00/bin/bin/../../lib/gcc/pic32c/13.2.1/../../../../pic32c/lib/thumb/v7e-m+dp/hard\libc-musl.a(__pop_int.o)
 .note.GNU-stack
                0x00000000        0x0 C:/Program Files/Microchip/xc32/v5.00/bin/bin/../../lib/gcc/pic32c/13.2.1/../../../../pic32c/lib/thumb/v7e-m+dp/hard\libc-musl.a(__pop_ptr.o)
 .note.GNU-stack
                0x00000000        0x0 C:/Program Files/Microchip/xc32/v5.00/bin/bin/../../lib/gcc/pic32c/13.2.1/../../../../pic32c/lib/thumb/v7e-m+dp/hard\libc-musl.a(__printf_core.o)
 .note.GNU-stack
                0x00000000        0x0 C:/Program Files/Microchip/xc32/v5.00/bin/bin/../../lib/gcc/pic32c/13.2.1/../../../../pic32c/lib/thumb/v7e-m+dp/hard\libc-musl.a(tolower.o)
 .note.GNU-stack
                0x00000000        0x0 C:/Program Files/Microchip/xc32/v5.00/bin/bin/../../lib/gcc/pic32c/13.2.1/../../../../pic32c/lib/thumb/v7e-m+dp/hard\libc-musl.a(__fmt_a.o)
 .note.GNU-stack
                0x00000000        0x0 C:/Program Files/Microchip/xc32/v5.00/bin/bin/../../lib/gcc/pic32c/13.2.1/../../../../pic32c/lib/thumb/v7e-m+dp/hard\libc-musl.a(__fmt_d.o)
 .note.GNU-stack
                0x00000000        0x0 C:/Program Files/Microchip/xc32/v5.00/bin/bin/../../lib/gcc/pic32c/13.2.1/../../../../pic32c/lib/thumb/v7e-m+dp/hard\libc-musl.a(__fmt_fp.o)
 .note.GNU-stack
                0x00000000        0x0 C:/Program Files/Microchip/xc32/v5.00/bin/bin/../../lib/gcc/pic32c/13.2.1/../../../../pic32c/lib/thumb/v7e-m+dp/hard\libc-musl.a(__fmt_o.o)
 .note.GNU-stack
                0x00000000        0x0 C:/Program Files/Microchip/xc32/v5.00/bin/bin/../../lib/gcc/pic32c/13.2.1/../../../../pic32c/lib/thumb/v7e-m+dp/hard\libc-musl.a(__fmt_s.o)
 .note.GNU-stack
                0x00000000        0x0 C:/Program Files/Microchip/xc32/v5.00/bin/bin/../../lib/gcc/pic32c/13.2.1/../../../../pic32c/lib/thumb/v7e-m+dp/hard\libc-musl.a(__fmt_u.o)
 .note.GNU-stack
                0x00000000        0x0 C:/Program Files/Microchip/xc32/v5.00/bin/bin/../../lib/gcc/pic32c/13.2.1/../../../../pic32c/lib/thumb/v7e-m+dp/hard\libc-musl.a(__fmt_x.o)
 .note.GNU-stack
                0x00000000        0x0 C:/Program Files/Microchip/xc32/v5.00/bin/bin/../../lib/gcc/pic32c/13.2.1/../../../../pic32c/lib/thumb/v7e-m+dp/hard\libc-musl.a(__cvt_u.o)

.vfp11_veneer%z1

.v4_bx%z2

.iplt%z3

.rel.iplt%z4

.igot.plt%z5

.rodata.str1.1%1

.rodata.str1.1%2

.rodata.str1.1%3

.bss.ucHeap%4   0x20400000    0x32000
 .bss.ucHeap    0x20400000    0x32000 build/default/production/_ext/1562497596/heap_4.o

.bss.memp_memory_PBUF_POOL_base%5
                0x20432000     0xbf83
 .bss.memp_memory_PBUF_POOL_base
                0x20432000     0xbf83 build/default/production/_ext/1264479574/memp.o
                0x20432000                memp_memory_PBUF_POOL_base

.bss.ncm_epbuf%6
                0x2043df84     0x17a8
 .bss.ncm_epbuf
                0x2043df84     0x17a8 build/default/production/_ext/1439055959/ncm_device.o

.bss.ucLogStorage%7
                0x2043f72c     0x1000
 .bss.ucLogStorage
                0x2043f72c     0x1000 build/default/production/_ext/751336192/xlog.o

.bss.uart2_cliStaticBuffer%8
                0x2044072c      0xc00
 .bss.uart2_cliStaticBuffer
                0x2044072c      0xc00 build/default/production/_ext/818259185/cli_setup.o

.bss.net_cliStaticBuffer%9
                0x2044132c      0xc00
 .bss.net_cliStaticBuffer
                0x2044132c      0xc00 build/default/production/_ext/818259185/cli_setup.o

.bss.root_stack%10
                0x20441f2c      0x800
 .bss.root_stack
                0x20441f2c      0x800 build/default/production/_ext/1778509306/os.o

.bss.ram_heap%11
                0x2044272c      0x653
 .bss.ram_heap  0x2044272c      0x653 build/default/production/_ext/1264479574/mem.o
                0x2044272c                ram_heap

.bss.monitor_stack%12
                0x20442d80      0x400
 .bss.monitor_stack
                0x20442d80      0x400 build/default/production/_ext/1778509306/os.o

.bss.uart2_rx_data%13
                0x20443180      0x400
 .bss.uart2_rx_data
                0x20443180      0x400 build/default/production/_ext/216470852/uart_irq.o

.bss.uart2_tx_data%14
                0x20443580      0x400
 .bss.uart2_tx_data
                0x20443580      0x400 build/default/production/_ext/216470852/uart_irq.o

.bss.uxTimerTaskStack.0%15
                0x20443980      0x400
 .bss.uxTimerTaskStack.0
                0x20443980      0x400 build/default/production/_ext/502845695/tasks.o

.bss.uxIdleTaskStack.2%16
                0x20443d80      0x200
 .bss.uxIdleTaskStack.2
                0x20443d80      0x200 build/default/production/_ext/502845695/tasks.o

.bss.memp_memory_FRAG_PBUF_base%17
                0x20443f80      0x16b
 .bss.memp_memory_FRAG_PBUF_base
                0x20443f80      0x16b build/default/production/_ext/1264479574/memp.o
                0x20443f80                memp_memory_FRAG_PBUF_base

.bss.memp_memory_TCP_PCB_base%18
                0x204440ec      0x13b
 .bss.memp_memory_TCP_PCB_base
                0x204440ec      0x13b build/default/production/_ext/1264479574/memp.o
                0x204440ec                memp_memory_TCP_PCB_base

.bss.memp_memory_TCP_SEG_base%19
                0x20444228      0x103
 .bss.memp_memory_TCP_SEG_base
                0x20444228      0x103 build/default/production/_ext/1264479574/memp.o
                0x20444228                memp_memory_TCP_SEG_base

.bss.memp_memory_PBUF_base%20
                0x2044432c      0x103
 .bss.memp_memory_PBUF_base
                0x2044432c      0x103 build/default/production/_ext/1264479574/memp.o
                0x2044432c                memp_memory_PBUF_base

.bss.monitor_list%21
                0x20444430      0x100
 .bss.monitor_list
                0x20444430      0x100 build/default/production/_ext/1778509306/os.o

.bss.dmesg_buffer%22
                0x20444530      0x100
 .bss.dmesg_buffer
                0x20444530      0x100 build/default/production/_ext/1798135708/dmesg.o

.bss.lwip_stats%23
                0x20444630       0xf8
 .bss.lwip_stats
                0x20444630       0xf8 build/default/production/_ext/1264479574/stats.o
                0x20444630                lwip_stats

.bss.arp_table%24
                0x20444728       0xf0
 .bss.arp_table
                0x20444728       0xf0 build/default/production/_ext/1349076522/etharp.o

.bss._usbd_qdef_buf%25
                0x20444818       0xc0
 .bss._usbd_qdef_buf
                0x20444818       0xc0 build/default/production/_ext/781065747/usbd.o

.bss.memp_memory_REASSDATA_base%26
                0x204448d8       0xa3
 .bss.memp_memory_REASSDATA_base
                0x204448d8       0xa3 build/default/production/_ext/1264479574/memp.o
                0x204448d8                memp_memory_REASSDATA_base

.bss.xfer_status%27
                0x2044497c       0xa0
 .bss.xfer_status
                0x2044497c       0xa0 build/default/production/_ext/2093936272/dcd_samx7x.o

.bss.memp_memory_UDP_PCB_base%28
                0x20444a1c       0x83
 .bss.memp_memory_UDP_PCB_base
                0x20444a1c       0x83 build/default/production/_ext/1264479574/memp.o
                0x20444a1c                memp_memory_UDP_PCB_base

.bss.memp_memory_TCPIP_MSG_API_base%29
                0x20444aa0       0x83
 .bss.memp_memory_TCPIP_MSG_API_base
                0x20444aa0       0x83 build/default/production/_ext/1264479574/memp.o
                0x20444aa0                memp_memory_TCPIP_MSG_API_base

.bss.memp_memory_TCPIP_MSG_INPKT_base%30
                0x20444b24       0x83
 .bss.memp_memory_TCPIP_MSG_INPKT_base
                0x20444b24       0x83 build/default/production/_ext/1264479574/memp.o
                0x20444b24                memp_memory_TCPIP_MSG_INPKT_base

.bss.memp_memory_RAW_PCB_base%31
                0x20444ba8       0x73
 .bss.memp_memory_RAW_PCB_base
                0x20444ba8       0x73 build/default/production/_ext/1264479574/memp.o
                0x20444ba8                memp_memory_RAW_PCB_base

.bss.pxReadyTasksLists%32
                0x20444c1c       0x64
 .bss.pxReadyTasksLists
                0x20444c1c       0x64 build/default/production/_ext/502845695/tasks.o

.bss.root_tcb%33
                0x20444c80       0x5c
 .bss.root_tcb  0x20444c80       0x5c build/default/production/_ext/1778509306/os.o

.bss.monitor_tcb%34
                0x20444cdc       0x5c
 .bss.monitor_tcb
                0x20444cdc       0x5c build/default/production/_ext/1778509306/os.o

.bss.xIdleTaskTCB.3%35
                0x20444d38       0x5c
 .bss.xIdleTaskTCB.3
                0x20444d38       0x5c build/default/production/_ext/502845695/tasks.o

.bss.xTimerTaskTCB.1%36
                0x20444d94       0x5c
 .bss.xTimerTaskTCB.1
                0x20444d94       0x5c build/default/production/_ext/502845695/tasks.o

.bss.auth_uart%37
                0x20444df0       0x5c
 .bss.auth_uart
                0x20444df0       0x5c build/default/production/_ext/30620426/app_cli.o
                0x20444df0                auth_uart

.bss.auth_net%38
                0x20444e4c       0x5c
 .bss.auth_net  0x20444e4c       0x5c build/default/production/_ext/1389938436/app_network.o

.bss.ucStaticTimerQueueStorage.1%39
                0x20444ea8       0x50
 .bss.ucStaticTimerQueueStorage.1
                0x20444ea8       0x50 build/default/production/_ext/502845695/timers.o

.bss.xStaticTimerQueue.0%40
                0x20444ef8       0x50
 .bss.xStaticTimerQueue.0
                0x20444ef8       0x50 build/default/production/_ext/502845695/timers.o

.bss._ubsd_mutexdef%41
                0x20444f48       0x50
 .bss._ubsd_mutexdef
                0x20444f48       0x50 build/default/production/_ext/781065747/usbd.o

.bss%42         0x20444f98       0x50
 .bss           0x20444f98       0x50 C:/Program Files/Microchip/xc32/v5.00/bin/bin/../../lib/gcc/pic32c/13.2.1/../../../../pic32c/lib/thumb/v7e-m+dp/hard\libc-musl.a(libc.o)
                0x20444f98                __progname_full
                0x20444f98                program_invocation_name
                0x20444f9c                program_invocation_short_name
                0x20444f9c                __progname
                0x20444fa0                __sysinfo
                0x20444fa4                __hwcap
                0x20444fa8                __libc

.bss._desc_str%43
                0x20444fe8       0x42
 .bss._desc_str
                0x20444fe8       0x42 build/default/production/_ext/783082040/usb_descriptors.o

.bss.xQueueRegistry%44
                0x2044502c       0x40
 .bss.xQueueRegistry
                0x2044502c       0x40 build/default/production/_ext/502845695/queue.o
                0x2044502c                xQueueRegistry

.bss._ctrl_epbuf%45
                0x2044506c       0x40
 .bss._ctrl_epbuf
                0x2044506c       0x40 build/default/production/_ext/781065747/usbd_control.o

.bss._usbd_dev%46
                0x204450ac       0x3f
 .bss._usbd_dev
                0x204450ac       0x3f build/default/production/_ext/781065747/usbd.o

.bss.ncm_interface%47
                0x204450ec       0x38
 .bss.ncm_interface
                0x204450ec       0x38 build/default/production/_ext/1439055959/ncm_device.o

.bss.memp_memory_SYS_TIMEOUT_base%48
                0x20445124       0x33
 .bss.memp_memory_SYS_TIMEOUT_base
                0x20445124       0x33 build/default/production/_ext/1264479574/memp.o
                0x20445124                memp_memory_SYS_TIMEOUT_base

.bss.uart2Obj%49
                0x20445158       0x30
 .bss.uart2Obj  0x20445158       0x30 build/default/production/_ext/1865657120/plib_uart2.o

.bss.netif_data%50
                0x20445188       0x30
 .bss.netif_data
                0x20445188       0x30 build/default/production/_ext/1389938436/app_network.o

.bss.xStreamBufferStruct%51
                0x204451b8       0x28
 .bss.xStreamBufferStruct
                0x204451b8       0x28 build/default/production/_ext/751336192/xlog.o

.bss.memp_memory_TCP_PCB_LISTEN_base%52
                0x204451e0       0x1f
 .bss.memp_memory_TCP_PCB_LISTEN_base
                0x204451e0       0x1f build/default/production/_ext/1264479574/memp.o
                0x204451e0                memp_memory_TCP_PCB_LISTEN_base

.bss%53         0x20445200       0x1c
 .bss           0x20445200       0x1c C:/Program Files/Microchip/xc32/v5.00/bin/bin/../../lib/gcc/pic32c/13.2.1/thumb/v7e-m+dp/hard/crtbegin.o

.bss.defaultConfig%54
                0x2044521c       0x1c
 .bss.defaultConfig
                0x2044521c       0x1c build/default/production/_ext/1422079320/embedded_cli.o

.bss.ip_data%55
                0x20445238       0x18
 .bss.ip_data   0x20445238       0x18 build/default/production/_ext/1264479574/ip.o
                0x20445238                ip_data

.bss.xDelayedTaskList1%56
                0x20445250       0x14
 .bss.xDelayedTaskList1
                0x20445250       0x14 build/default/production/_ext/502845695/tasks.o

.bss.xDelayedTaskList2%57
                0x20445264       0x14
 .bss.xDelayedTaskList2
                0x20445264       0x14 build/default/production/_ext/502845695/tasks.o

.bss.xPendingReadyList%58
                0x20445278       0x14
 .bss.xPendingReadyList
                0x20445278       0x14 build/default/production/_ext/502845695/tasks.o

.bss.xTasksWaitingTermination%59
                0x2044528c       0x14
 .bss.xTasksWaitingTermination
                0x2044528c       0x14 build/default/production/_ext/502845695/tasks.o

.bss.xSuspendedTaskList%60
                0x204452a0       0x14
 .bss.xSuspendedTaskList
                0x204452a0       0x14 build/default/production/_ext/502845695/tasks.o

.bss.xActiveTimerList1%61
                0x204452b4       0x14
 .bss.xActiveTimerList1
                0x204452b4       0x14 build/default/production/_ext/502845695/timers.o

.bss.xActiveTimerList2%62
                0x204452c8       0x14
 .bss.xActiveTimerList2
                0x204452c8       0x14 build/default/production/_ext/502845695/timers.o

.bss._ctrl_xfer%63
                0x204452dc       0x14
 .bss._ctrl_xfer
                0x204452dc       0x14 build/default/production/_ext/781065747/usbd_control.o

.bss.inseg%64   0x204452f0       0x10
 .bss.inseg     0x204452f0       0x10 build/default/production/_ext/1264479574/tcp_in.o

.bss.systick%65
                0x20445300        0xc
 .bss.systick   0x20445300        0xc build/default/production/_ext/1827571544/plib_systick.o

.bss.memp_stats_RAW_PCB%66
                0x2044530c        0xa
 .bss.memp_stats_RAW_PCB
                0x2044530c        0xa build/default/production/_ext/1264479574/memp.o

.bss.memp_stats_UDP_PCB%67
                0x20445318        0xa
 .bss.memp_stats_UDP_PCB
                0x20445318        0xa build/default/production/_ext/1264479574/memp.o

.bss.memp_stats_TCP_PCB%68
                0x20445324        0xa
 .bss.memp_stats_TCP_PCB
                0x20445324        0xa build/default/production/_ext/1264479574/memp.o

.bss.memp_stats_TCP_PCB_LISTEN%69
                0x20445330        0xa
 .bss.memp_stats_TCP_PCB_LISTEN
                0x20445330        0xa build/default/production/_ext/1264479574/memp.o

.bss.memp_stats_TCP_SEG%70
                0x2044533c        0xa
 .bss.memp_stats_TCP_SEG
                0x2044533c        0xa build/default/production/_ext/1264479574/memp.o

.bss.memp_stats_REASSDATA%71
                0x20445348        0xa
 .bss.memp_stats_REASSDATA
                0x20445348        0xa build/default/production/_ext/1264479574/memp.o

.bss.memp_stats_FRAG_PBUF%72
                0x20445354        0xa
 .bss.memp_stats_FRAG_PBUF
                0x20445354        0xa build/default/production/_ext/1264479574/memp.o

.bss.memp_stats_TCPIP_MSG_API%73
                0x20445360        0xa
 .bss.memp_stats_TCPIP_MSG_API
                0x20445360        0xa build/default/production/_ext/1264479574/memp.o

.bss.memp_stats_TCPIP_MSG_INPKT%74
                0x2044536c        0xa
 .bss.memp_stats_TCPIP_MSG_INPKT
                0x2044536c        0xa build/default/production/_ext/1264479574/memp.o

.bss.memp_stats_SYS_TIMEOUT%75
                0x20445378        0xa
 .bss.memp_stats_SYS_TIMEOUT
                0x20445378        0xa build/default/production/_ext/1264479574/memp.o

.bss.memp_stats_PBUF%76
                0x20445384        0xa
 .bss.memp_stats_PBUF
                0x20445384        0xa build/default/production/_ext/1264479574/memp.o

.bss.memp_stats_PBUF_POOL%77
                0x20445390        0xa
 .bss.memp_stats_PBUF_POOL
                0x20445390        0xa build/default/production/_ext/1264479574/memp.o

.bss.TC3_CH0_CallbackObj%78
                0x2044539c        0x8
 .bss.TC3_CH0_CallbackObj
                0x2044539c        0x8 build/default/production/_ext/829342655/plib_tc3.o

.bss.xStart%79  0x204453a4        0x8
 .bss.xStart    0x204453a4        0x8 build/default/production/_ext/1562497596/heap_4.o

.bss.s_WorkingTimeClock_context%80
                0x204453ac        0x8
 .bss.s_WorkingTimeClock_context
                0x204453ac        0x8 build/default/production/_ext/697864676/date_time.o

.bss.gpnvmReg.0%81
                0x204453b4        0x4
 .bss.gpnvmReg.0
                0x204453b4        0x4 build/default/production/_ext/1171490990/startup_xc32.o

.bss.cmd.1%82   0x204453b8        0x4
 .bss.cmd.1     0x204453b8        0x4 build/default/production/_ext/1171490990/startup_xc32.o

.bss.i.1%83     0x204453bc        0x4
 .bss.i.1       0x204453bc        0x4 build/default/production/_ext/249897560/boot_manager.o

.bss.g_root_init_callback%84
                0x204453c0        0x4
 .bss.g_root_init_callback
                0x204453c0        0x4 build/default/production/_ext/1778509306/os.o

.bss.pf_Net_WriteChar%85
                0x204453c4        0x4
 .bss.pf_Net_WriteChar
                0x204453c4        0x4 build/default/production/_ext/818259185/cli_setup.o

.bss.cli_uart2%86
                0x204453c8        0x4
 .bss.cli_uart2
                0x204453c8        0x4 build/default/production/_ext/818259185/cli_setup.o

.bss.cli_net%87
                0x204453cc        0x4
 .bss.cli_net   0x204453cc        0x4 build/default/production/_ext/818259185/cli_setup.o

.bss.ulMaxPRIGROUPValue%88
                0x204453d0        0x4
 .bss.ulMaxPRIGROUPValue
                0x204453d0        0x4 build/default/production/_ext/1908456078/port.o

.bss.pxEnd%89   0x204453d4        0x4
 .bss.pxEnd     0x204453d4        0x4 build/default/production/_ext/1562497596/heap_4.o

.bss.xFreeBytesRemaining%90
                0x204453d8        0x4
 .bss.xFreeBytesRemaining
                0x204453d8        0x4 build/default/production/_ext/1562497596/heap_4.o

.bss.xMinimumEverFreeBytesRemaining%91
                0x204453dc        0x4
 .bss.xMinimumEverFreeBytesRemaining
                0x204453dc        0x4 build/default/production/_ext/1562497596/heap_4.o

.bss.xNumberOfSuccessfulAllocations%92
                0x204453e0        0x4
 .bss.xNumberOfSuccessfulAllocations
                0x204453e0        0x4 build/default/production/_ext/1562497596/heap_4.o

.bss.xNumberOfSuccessfulFrees%93
                0x204453e4        0x4
 .bss.xNumberOfSuccessfulFrees
                0x204453e4        0x4 build/default/production/_ext/1562497596/heap_4.o

.bss.pxCurrentTCB%94
                0x204453e8        0x4
 .bss.pxCurrentTCB
                0x204453e8        0x4 build/default/production/_ext/502845695/tasks.o
                0x204453e8                pxCurrentTCB

.bss.pxDelayedTaskList%95
                0x204453ec        0x4
 .bss.pxDelayedTaskList
                0x204453ec        0x4 build/default/production/_ext/502845695/tasks.o

.bss.pxOverflowDelayedTaskList%96
                0x204453f0        0x4
 .bss.pxOverflowDelayedTaskList
                0x204453f0        0x4 build/default/production/_ext/502845695/tasks.o

.bss.uxDeletedTasksWaitingCleanUp%97
                0x204453f4        0x4
 .bss.uxDeletedTasksWaitingCleanUp
                0x204453f4        0x4 build/default/production/_ext/502845695/tasks.o

.bss.uxCurrentNumberOfTasks%98
                0x204453f8        0x4
 .bss.uxCurrentNumberOfTasks
                0x204453f8        0x4 build/default/production/_ext/502845695/tasks.o

.bss.xTickCount%99
                0x204453fc        0x4
 .bss.xTickCount
                0x204453fc        0x4 build/default/production/_ext/502845695/tasks.o

.bss.uxTopReadyPriority%100
                0x20445400        0x4
 .bss.uxTopReadyPriority
                0x20445400        0x4 build/default/production/_ext/502845695/tasks.o

.bss.xSchedulerRunning%101
                0x20445404        0x4
 .bss.xSchedulerRunning
                0x20445404        0x4 build/default/production/_ext/502845695/tasks.o

.bss.xPendedTicks%102
                0x20445408        0x4
 .bss.xPendedTicks
                0x20445408        0x4 build/default/production/_ext/502845695/tasks.o

.bss.xYieldPendings%103
                0x2044540c        0x4
 .bss.xYieldPendings
                0x2044540c        0x4 build/default/production/_ext/502845695/tasks.o

.bss.xNumOfOverflows%104
                0x20445410        0x4
 .bss.xNumOfOverflows
                0x20445410        0x4 build/default/production/_ext/502845695/tasks.o

.bss.uxTaskNumber%105
                0x20445414        0x4
 .bss.uxTaskNumber
                0x20445414        0x4 build/default/production/_ext/502845695/tasks.o

.bss.xNextTaskUnblockTime%106
                0x20445418        0x4
 .bss.xNextTaskUnblockTime
                0x20445418        0x4 build/default/production/_ext/502845695/tasks.o

.bss.xIdleTaskHandles%107
                0x2044541c        0x4
 .bss.xIdleTaskHandles
                0x2044541c        0x4 build/default/production/_ext/502845695/tasks.o

.bss.uxSchedulerSuspended%108
                0x20445420        0x4
 .bss.uxSchedulerSuspended
                0x20445420        0x4 build/default/production/_ext/502845695/tasks.o

.bss.pxCurrentTimerList%109
                0x20445424        0x4
 .bss.pxCurrentTimerList
                0x20445424        0x4 build/default/production/_ext/502845695/timers.o

.bss.pxOverflowTimerList%110
                0x20445428        0x4
 .bss.pxOverflowTimerList
                0x20445428        0x4 build/default/production/_ext/502845695/timers.o

.bss.xTimerQueue%111
                0x2044542c        0x4
 .bss.xTimerQueue
                0x2044542c        0x4 build/default/production/_ext/502845695/timers.o

.bss.xTimerTaskHandle%112
                0x20445430        0x4
 .bss.xTimerTaskHandle
                0x20445430        0x4 build/default/production/_ext/502845695/timers.o

.bss.xLastTime.2%113
                0x20445434        0x4
 .bss.xLastTime.2
                0x20445434        0x4 build/default/production/_ext/502845695/timers.o

.bss.LL_Tick%114
                0x20445438        0x4
 .bss.LL_Tick   0x20445438        0x4 build/default/production/_ext/1226835810/tick.o
                0x20445438                LL_Tick

.bss.tick%115   0x2044543c        0x4
 .bss.tick      0x2044543c        0x4 build/default/production/_ext/1360937237/ATSAMV71cm7_it.o

.bss.write_offset%116
                0x20445440        0x4
 .bss.write_offset
                0x20445440        0x4 build/default/production/_ext/1798135708/dmesg.o

.bss.read_offset%117
                0x20445444        0x4
 .bss.read_offset
                0x20445444        0x4 build/default/production/_ext/1798135708/dmesg.o

.bss.log_count%118
                0x20445448        0x4
 .bss.log_count
                0x20445448        0x4 build/default/production/_ext/1798135708/dmesg.o

.bss.total_writes%119
                0x2044544c        0x4
 .bss.total_writes
                0x2044544c        0x4 build/default/production/_ext/1798135708/dmesg.o

.bss.dropped_messages%120
                0x20445450        0x4
 .bss.dropped_messages
                0x20445450        0x4 build/default/production/_ext/1798135708/dmesg.o

.bss.max_entries_reached%121
                0x20445454        0x4
 .bss.max_entries_reached
                0x20445454        0x4 build/default/production/_ext/1798135708/dmesg.o

.bss.xLogMutex%122
                0x20445458        0x4
 .bss.xLogMutex
                0x20445458        0x4 build/default/production/_ext/751336192/xlog.o
                0x20445458                xLogMutex

.bss.xLogStreamBuffer%123
                0x2044545c        0x4
 .bss.xLogStreamBuffer
                0x2044545c        0x4 build/default/production/_ext/751336192/xlog.o
                0x2044545c                xLogStreamBuffer

.bss.current_cli_pcb%124
                0x20445460        0x4
 .bss.current_cli_pcb
                0x20445460        0x4 build/default/production/_ext/1389938436/app_network.o

.bss.tcpip_mbox%125
                0x20445464        0x4
 .bss.tcpip_mbox
                0x20445464        0x4 build/default/production/_ext/2037418415/tcpip.o

.bss.reassdatagrams%126
                0x20445468        0x4
 .bss.reassdatagrams
                0x20445468        0x4 build/default/production/_ext/1349076522/ip4_frag.o

.bss.ram%127    0x2044546c        0x4
 .bss.ram       0x2044546c        0x4 build/default/production/_ext/1264479574/mem.o

.bss.ram_end%128
                0x20445470        0x4
 .bss.ram_end   0x20445470        0x4 build/default/production/_ext/1264479574/mem.o

.bss.mem_mutex%129
                0x20445474        0x4
 .bss.mem_mutex
                0x20445474        0x4 build/default/production/_ext/1264479574/mem.o

.bss.lfree%130  0x20445478        0x4
 .bss.lfree     0x20445478        0x4 build/default/production/_ext/1264479574/mem.o

.bss.memp_tab_RAW_PCB%131
                0x2044547c        0x4
 .bss.memp_tab_RAW_PCB
                0x2044547c        0x4 build/default/production/_ext/1264479574/memp.o

.bss.memp_tab_UDP_PCB%132
                0x20445480        0x4
 .bss.memp_tab_UDP_PCB
                0x20445480        0x4 build/default/production/_ext/1264479574/memp.o

.bss.memp_tab_TCP_PCB%133
                0x20445484        0x4
 .bss.memp_tab_TCP_PCB
                0x20445484        0x4 build/default/production/_ext/1264479574/memp.o

.bss.memp_tab_TCP_PCB_LISTEN%134
                0x20445488        0x4
 .bss.memp_tab_TCP_PCB_LISTEN
                0x20445488        0x4 build/default/production/_ext/1264479574/memp.o

.bss.memp_tab_TCP_SEG%135
                0x2044548c        0x4
 .bss.memp_tab_TCP_SEG
                0x2044548c        0x4 build/default/production/_ext/1264479574/memp.o

.bss.memp_tab_REASSDATA%136
                0x20445490        0x4
 .bss.memp_tab_REASSDATA
                0x20445490        0x4 build/default/production/_ext/1264479574/memp.o

.bss.memp_tab_FRAG_PBUF%137
                0x20445494        0x4
 .bss.memp_tab_FRAG_PBUF
                0x20445494        0x4 build/default/production/_ext/1264479574/memp.o

.bss.memp_tab_TCPIP_MSG_API%138
                0x20445498        0x4
 .bss.memp_tab_TCPIP_MSG_API
                0x20445498        0x4 build/default/production/_ext/1264479574/memp.o

.bss.memp_tab_TCPIP_MSG_INPKT%139
                0x2044549c        0x4
 .bss.memp_tab_TCPIP_MSG_INPKT
                0x2044549c        0x4 build/default/production/_ext/1264479574/memp.o

.bss.memp_tab_SYS_TIMEOUT%140
                0x204454a0        0x4
 .bss.memp_tab_SYS_TIMEOUT
                0x204454a0        0x4 build/default/production/_ext/1264479574/memp.o

.bss.memp_tab_PBUF%141
                0x204454a4        0x4
 .bss.memp_tab_PBUF
                0x204454a4        0x4 build/default/production/_ext/1264479574/memp.o

.bss.memp_tab_PBUF_POOL%142
                0x204454a8        0x4
 .bss.memp_tab_PBUF_POOL
                0x204454a8        0x4 build/default/production/_ext/1264479574/memp.o

.bss.netif_default%143
                0x204454ac        0x4
 .bss.netif_default
                0x204454ac        0x4 build/default/production/_ext/1264479574/netif.o
                0x204454ac                netif_default

.bss.raw_pcbs%144
                0x204454b0        0x4
 .bss.raw_pcbs  0x204454b0        0x4 build/default/production/_ext/1264479574/raw.o

.bss.tcp_ticks%145
                0x204454b4        0x4
 .bss.tcp_ticks
                0x204454b4        0x4 build/default/production/_ext/1264479574/tcp.o
                0x204454b4                tcp_ticks

.bss.tcp_bound_pcbs%146
                0x204454b8        0x4
 .bss.tcp_bound_pcbs
                0x204454b8        0x4 build/default/production/_ext/1264479574/tcp.o
                0x204454b8                tcp_bound_pcbs

.bss.tcp_listen_pcbs%147
                0x204454bc        0x4
 .bss.tcp_listen_pcbs
                0x204454bc        0x4 build/default/production/_ext/1264479574/tcp.o
                0x204454bc                tcp_listen_pcbs

.bss.tcp_active_pcbs%148
                0x204454c0        0x4
 .bss.tcp_active_pcbs
                0x204454c0        0x4 build/default/production/_ext/1264479574/tcp.o
                0x204454c0                tcp_active_pcbs

.bss.tcp_tw_pcbs%149
                0x204454c4        0x4
 .bss.tcp_tw_pcbs
                0x204454c4        0x4 build/default/production/_ext/1264479574/tcp.o
                0x204454c4                tcp_tw_pcbs

.bss.tcphdr%150
                0x204454c8        0x4
 .bss.tcphdr    0x204454c8        0x4 build/default/production/_ext/1264479574/tcp_in.o

.bss.tcphdr_opt2%151
                0x204454cc        0x4
 .bss.tcphdr_opt2
                0x204454cc        0x4 build/default/production/_ext/1264479574/tcp_in.o

.bss.seqno%152  0x204454d0        0x4
 .bss.seqno     0x204454d0        0x4 build/default/production/_ext/1264479574/tcp_in.o

.bss.ackno%153  0x204454d4        0x4
 .bss.ackno     0x204454d4        0x4 build/default/production/_ext/1264479574/tcp_in.o

.bss.recv_data%154
                0x204454d8        0x4
 .bss.recv_data
                0x204454d8        0x4 build/default/production/_ext/1264479574/tcp_in.o

.bss.tcp_input_pcb%155
                0x204454dc        0x4
 .bss.tcp_input_pcb
                0x204454dc        0x4 build/default/production/_ext/1264479574/tcp_in.o
                0x204454dc                tcp_input_pcb

.bss.next_timeout%156
                0x204454e0        0x4
 .bss.next_timeout
                0x204454e0        0x4 build/default/production/_ext/1264479574/timeouts.o

.bss.current_timeout_due_time%157
                0x204454e4        0x4
 .bss.current_timeout_due_time
                0x204454e4        0x4 build/default/production/_ext/1264479574/timeouts.o

.bss.tcpip_tcp_timer_active%158
                0x204454e8        0x4
 .bss.tcpip_tcp_timer_active
                0x204454e8        0x4 build/default/production/_ext/1264479574/timeouts.o

.bss.udp_pcbs%159
                0x204454ec        0x4
 .bss.udp_pcbs  0x204454ec        0x4 build/default/production/_ext/1264479574/udp.o
                0x204454ec                udp_pcbs

.bss._app_driver%160
                0x204454f0        0x4
 .bss._app_driver
                0x204454f0        0x4 build/default/production/_ext/781065747/usbd.o

.bss._usbd_spin%161
                0x204454f4        0x4
 .bss._usbd_spin
                0x204454f4        0x4 build/default/production/_ext/781065747/usbd.o

.bss._usbd_q%162
                0x204454f8        0x4
 .bss._usbd_q   0x204454f8        0x4 build/default/production/_ext/781065747/usbd.o

.bss._usbd_mutex%163
                0x204454fc        0x4
 .bss._usbd_mutex
                0x204454fc        0x4 build/default/production/_ext/781065747/usbd.o

.bss%164        0x20445500        0x4
 .bss           0x20445500        0x4 C:/Program Files/Microchip/xc32/v5.00/bin/bin/../../lib/gcc/pic32c/13.2.1/../../../../pic32c/lib/thumb/v7e-m+dp/hard\libpic32c.a(data_init.o)

.bss%165        0x20445504        0x4
 .bss           0x20445504        0x4 C:/Program Files/Microchip/xc32/v5.00/bin/bin/../../lib/gcc/pic32c/13.2.1/../../../../pic32c/lib/thumb/v7e-m+dp/hard\libc-musl.a(__environ.o)
                0x20445504                __environ
                0x20445504                environ
                0x20445504                ___environ
                0x20445504                _environ

.bss%166        0x20445508        0x4
 .bss           0x20445508        0x4 C:/Program Files/Microchip/xc32/v5.00/bin/bin/../../lib/gcc/pic32c/13.2.1/../../../../pic32c/lib/thumb/v7e-m+dp/hard\libc-musl.a(__errno_location.o)
                0x20445508                __errno_val

.bss._tusb_rhport_role%167
                0x2044550c        0x2
 .bss._tusb_rhport_role
                0x2044550c        0x2 build/default/production/_ext/1119931634/tusb.o
                0x2044550c                _tusb_rhport_role

.bss.ip_id%168  0x2044502a        0x2
 .bss.ip_id     0x2044502a        0x2 build/default/production/_ext/1349076522/ip4.o

.bss.ip_reass_pbufcount%169
                0x20445316        0x2
 .bss.ip_reass_pbufcount
                0x20445316        0x2 build/default/production/_ext/1349076522/ip4_frag.o

.bss.tcphdr_optlen%170
                0x20445322        0x2
 .bss.tcphdr_optlen
                0x20445322        0x2 build/default/production/_ext/1264479574/tcp_in.o

.bss.tcphdr_opt1len%171
                0x2044532e        0x2
 .bss.tcphdr_opt1len
                0x2044532e        0x2 build/default/production/_ext/1264479574/tcp_in.o

.bss.tcp_optidx%172
                0x2044533a        0x2
 .bss.tcp_optidx
                0x2044533a        0x2 build/default/production/_ext/1264479574/tcp_in.o

.bss.recv_acked%173
                0x20445346        0x2
 .bss.recv_acked
                0x20445346        0x2 build/default/production/_ext/1264479574/tcp_in.o

.bss.tcplen%174
                0x20445352        0x2
 .bss.tcplen    0x20445352        0x2 build/default/production/_ext/1264479574/tcp_in.o

.bss.monitor_count%175
                0x2043df83        0x1
 .bss.monitor_count
                0x2043df83        0x1 build/default/production/_ext/1778509306/os.o

.bss.cliIsReady%176
                0x20442d7f        0x1
 .bss.cliIsReady
                0x20442d7f        0x1 build/default/production/_ext/818259185/cli_setup.o

.bss.ucMaxSysCallPriority%177
                0x204440eb        0x1
 .bss.ucMaxSysCallPriority
                0x204440eb        0x1 build/default/production/_ext/1908456078/port.o

.bss.toggleState%178
                0x20444227        0x1
 .bss.toggleState
                0x20444227        0x1 build/default/production/_ext/1360937237/ATSAMV71cm7_it.o

.bss.counter.0%179
                0x2044432b        0x1
 .bss.counter.0
                0x2044432b        0x1 build/default/production/_ext/1525186148/app_alive.o

.bss.initialized%180
                0x2044442f        0x1
 .bss.initialized
                0x2044442f        0x1 build/default/production/_ext/1798135708/dmesg.o

.bss.etharp_cached_entry%181
                0x2044497b        0x1
 .bss.etharp_cached_entry
                0x2044497b        0x1 build/default/production/_ext/1349076522/etharp.o

.bss.netif_num%182
                0x20444a9f        0x1
 .bss.netif_num
                0x20444a9f        0x1 build/default/production/_ext/1264479574/netif.o

.bss.pbuf_free_ooseq_pending%183
                0x20444b23        0x1
 .bss.pbuf_free_ooseq_pending
                0x20444b23        0x1 build/default/production/_ext/1264479574/pbuf.o
                0x20444b23                pbuf_free_ooseq_pending

.bss.tcp_active_pcbs_changed%184
                0x20444ba7        0x1
 .bss.tcp_active_pcbs_changed
                0x20444ba7        0x1 build/default/production/_ext/1264479574/tcp.o
                0x20444ba7                tcp_active_pcbs_changed

.bss.tcp_timer%185
                0x20444c1b        0x1
 .bss.tcp_timer
                0x20444c1b        0x1 build/default/production/_ext/1264479574/tcp.o

.bss.tcp_timer_ctr%186
                0x204450eb        0x1
 .bss.tcp_timer_ctr
                0x204450eb        0x1 build/default/production/_ext/1264479574/tcp.o

.bss.flags%187  0x20445157        0x1
 .bss.flags     0x20445157        0x1 build/default/production/_ext/1264479574/tcp_in.o

.bss.recv_flags%188
                0x204451ff        0x1
 .bss.recv_flags
                0x204451ff        0x1 build/default/production/_ext/1264479574/tcp_in.o

.bss._usbd_queued_setup%189
                0x2044535e        0x1
 .bss._usbd_queued_setup
                0x2044535e        0x1 build/default/production/_ext/781065747/usbd.o

.bss._app_driver_count%190
                0x2044535f        0x1
 .bss._app_driver_count
                0x2044535f        0x1 build/default/production/_ext/781065747/usbd.o

.bss.ctrl_dir.0%191
                0x2044536a        0x1
 .bss.ctrl_dir.0
                0x2044536a        0x1 build/default/production/_ext/2093936272/dcd_samx7x.o

.data.uart_drivers%192
                0x20445510       0x80
 .data.uart_drivers
                0x20445510       0x80 build/default/production/_ext/216470852/uart_irq.o

.data._usbd_qdef%193
                0x20445590       0x5c
 .data._usbd_qdef
                0x20445590       0x5c build/default/production/_ext/781065747/usbd.o
                0x20445590                _usbd_qdef

.data.string_desc_arr%194
                0x204455ec       0x18
 .data.string_desc_arr
                0x204455ec       0x18 build/default/production/_ext/783082040/usb_descriptors.o

.data.s_RealTimeClock_context%195
                0x20445604        0x6
 .data.s_RealTimeClock_context
                0x20445604        0x6 build/default/production/_ext/697864676/date_time.o

.data.tud_network_mac_address%196
                0x2044560c        0x6
 .data.tud_network_mac_address
                0x2044560c        0x6 build/default/production/_ext/1389938436/app_network.o
                0x2044560c                tud_network_mac_address

.data.m.0%197   0x20445614        0x4
 .data.m.0      0x20445614        0x4 build/default/production/_ext/249897560/boot_manager.o

.data.lineBreak%198
                0x20445618        0x4
 .data.lineBreak
                0x20445618        0x4 build/default/production/_ext/1422079320/embedded_cli.o

.data.escSeqCursorRight%199
                0x2044561c        0x4
 .data.escSeqCursorRight
                0x2044561c        0x4 build/default/production/_ext/1422079320/embedded_cli.o

.data.escSeqCursorLeft%200
                0x20445620        0x4
 .data.escSeqCursorLeft
                0x20445620        0x4 build/default/production/_ext/1422079320/embedded_cli.o

.data.escSeqCursorSave%201
                0x20445624        0x4
 .data.escSeqCursorSave
                0x20445624        0x4 build/default/production/_ext/1422079320/embedded_cli.o

.data.escSeqCursorRestore%202
                0x20445628        0x4
 .data.escSeqCursorRestore
                0x20445628        0x4 build/default/production/_ext/1422079320/embedded_cli.o

.data.escSeqInsertChar%203
                0x2044562c        0x4
 .data.escSeqInsertChar
                0x2044562c        0x4 build/default/production/_ext/1422079320/embedded_cli.o

.data.escSeqDeleteChar%204
                0x20445630        0x4
 .data.escSeqDeleteChar
                0x20445630        0x4 build/default/production/_ext/1422079320/embedded_cli.o

.data.uxCriticalNesting%205
                0x20445634        0x4
 .data.uxCriticalNesting
                0x20445634        0x4 build/default/production/_ext/1908456078/port.o

.data.dmesg_magic%206
                0x20445638        0x4
 .data.dmesg_magic
                0x20445638        0x4 build/default/production/_ext/1798135708/dmesg.o

.data.iss.0%207
                0x2044563c        0x4
 .data.iss.0    0x2044563c        0x4 build/default/production/_ext/1264479574/tcp.o

.data.tcp_port%208
                0x20445376        0x2
 .data.tcp_port
                0x20445376        0x2 build/default/production/_ext/1264479574/tcp.o

.data._usbd_rhport%209
                0x2044536b        0x1
 .data._usbd_rhport
                0x2044536b        0x1 build/default/production/_ext/781065747/usbd.o

.eh_frame%z6    0x00000000        0x0
 .eh_frame      0x00000000        0x0 C:/Program Files/Microchip/xc32/v5.00/bin/bin/../../lib/gcc/pic32c/13.2.1/thumb/v7e-m+dp/hard/crtbegin.o

.config_D0000000%210
                0xd0000000        0x4
 .config_D0000000
                0xd0000000        0x4 build/default/production/_ext/1171490990/initialization.o
                0xd0000000                __config_D0000000

.text.tcp_receive%211
                0x00400190      0xda8
 .text.tcp_receive
                0x00400190      0xda8 build/default/production/_ext/1264479574/tcp_in.o

.dinit%212      0x00400f38      0x860
 .dinit         0x00400f38      0x860 data_init

.text.tcp_input%213
                0x00401798      0x7c0
 .text.tcp_input
                0x00401798      0x7c0 build/default/production/_ext/1264479574/tcp_in.o
                0x00401798                tcp_input

.text.tcp_process%214
                0x00401f58      0x74c
 .text.tcp_process
                0x00401f58      0x74c build/default/production/_ext/1264479574/tcp_in.o

.rodata%215     0x004026a4      0x609
 .rodata        0x004026a4      0x609 build/default/production/_ext/667517761/cli_command.o

.text.dcd_event_handler%216
                0x00402cb0      0x5c4
 .text.dcd_event_handler
                0x00402cb0      0x5c4 build/default/production/_ext/781065747/usbd.o
                0x00402cb0                dcd_event_handler

.text.process_control_request%217
                0x00403274      0x5c0
 .text.process_control_request
                0x00403274      0x5c0 build/default/production/_ext/781065747/usbd.o

.text.tcp_slowtmr%218
                0x00403834      0x558
 .text.tcp_slowtmr
                0x00403834      0x558 build/default/production/_ext/1264479574/tcp.o
                0x00403834                tcp_slowtmr

.text.tcp_write%219
                0x00403d8c      0x554
 .text.tcp_write
                0x00403d8c      0x554 build/default/production/_ext/1264479574/tcp_out.o
                0x00403d8c                tcp_write

.text.dcd_ep_handler%220
                0x004042e0      0x4a4
 .text.dcd_ep_handler
                0x004042e0      0x4a4 build/default/production/_ext/2093936272/dcd_samx7x.o

.text.tud_task_ext%221
                0x00404784      0x404
 .text.tud_task_ext
                0x00404784      0x404 build/default/production/_ext/781065747/usbd.o
                0x00404784                tud_task_ext

.text.CMD_Dev%222
                0x00404b88      0x3fc
 .text.CMD_Dev  0x00404b88      0x3fc build/default/production/_ext/1422079320/embedded_cli.o
                0x00404b88                CMD_Dev

.text.__intscan%223
                0x00404f84      0x3d4
 .text.__intscan
                0x00404f84      0x3d4 C:/Program Files/Microchip/xc32/v5.00/bin/bin/../../lib/gcc/pic32c/13.2.1/../../../../pic32c/lib/thumb/v7e-m+dp/hard\libc-musl.a(intscan.o)
                0x00404f84                __intscan

.text.__fmt_a%224
                0x00405358      0x3cc
 .text.__fmt_a  0x00405358      0x3cc C:/Program Files/Microchip/xc32/v5.00/bin/bin/../../lib/gcc/pic32c/13.2.1/../../../../pic32c/lib/thumb/v7e-m+dp/hard\libc-musl.a(__fmt_a.o)
                0x00405358                __fmt_a_needed
                0x00405358                __fmt_a

.text.__fmt_fp%225
                0x00405728      0x3b0
 .text.__fmt_fp
                0x00405728      0x3b0 C:/Program Files/Microchip/xc32/v5.00/bin/bin/../../lib/gcc/pic32c/13.2.1/../../../../pic32c/lib/thumb/v7e-m+dp/hard\libc-musl.a(__fmt_fp.o)
                0x00405728                __fmt_f_needed
                0x00405728                __fmt_fp

.text.CMD_Help%226
                0x00405ad8      0x39c
 .text.CMD_Help
                0x00405ad8      0x39c build/default/production/_ext/1422079320/embedded_cli.o
                0x00405ad8                CMD_Help

.text.tcp_output%227
                0x00405e74      0x38c
 .text.tcp_output
                0x00405e74      0x38c build/default/production/_ext/1264479574/tcp_out.o
                0x00405e74                tcp_output

.text.ip4_input%228
                0x00406200      0x334
 .text.ip4_input
                0x00406200      0x334 build/default/production/_ext/1349076522/ip4.o
                0x00406200                ip4_input

.text.__printf_core%229
                0x00406534      0x330
 .text.__printf_core
                0x00406534      0x330 C:/Program Files/Microchip/xc32/v5.00/bin/bin/../../lib/gcc/pic32c/13.2.1/../../../../pic32c/lib/thumb/v7e-m+dp/hard\libc-musl.a(__printf_core.o)
                0x00406534                __printf_core

.text.ip4_reass%230
                0x00406864      0x32c
 .text.ip4_reass
                0x00406864      0x32c build/default/production/_ext/1349076522/ip4_frag.o
                0x00406864                ip4_reass

.text.Shield_ReceiveChar%231
                0x00406b90      0x30c
 .text.Shield_ReceiveChar
                0x00406b90      0x30c build/default/production/_ext/1134253236/simple_shield.o
                0x00406b90                Shield_ReceiveChar

.text.tu_fifo_write_n_access_mode%232
                0x00406e9c      0x2b0
 .text.tu_fifo_write_n_access_mode
                0x00406e9c      0x2b0 build/default/production/_ext/761407912/tusb_fifo.o
                0x00406e9c                tu_fifo_write_n_access_mode

.text.udp_input%233
                0x0040714c      0x2a4
 .text.udp_input
                0x0040714c      0x2a4 build/default/production/_ext/1264479574/udp.o
                0x0040714c                udp_input

.text%234       0x004073f0      0x2a0
 .text          0x004073f0      0x2a0 C:/Program Files/Microchip/xc32/v5.00/bin/bin/../../lib/gcc/pic32c/13.2.1/thumb/v7e-m+dp/hard\libgcc.a(_udivmoddi4.o)
                0x004073f0                __udivmoddi4

.text.icmp_input%235
                0x00407690      0x29c
 .text.icmp_input
                0x00407690      0x29c build/default/production/_ext/1349076522/icmp.o
                0x00407690                icmp_input

.text.pvPortMalloc%236
                0x0040792c      0x27c
 .text.pvPortMalloc
                0x0040792c      0x27c build/default/production/_ext/1562497596/heap_4.o
                0x0040792c                pvPortMalloc

.text.CMD_RtcGet%237
                0x00407ba8      0x278
 .text.CMD_RtcGet
                0x00407ba8      0x278 build/default/production/_ext/667517761/cli_command.o

.rodata%238     0x00407e20      0x26b
 .rodata        0x00407e20      0x26b build/default/production/_ext/1134253236/simple_shield.o

.text.xTaskGenericNotify%239
                0x0040808c      0x268
 .text.xTaskGenericNotify
                0x0040808c      0x268 build/default/production/_ext/502845695/tasks.o
                0x0040808c                xTaskGenericNotify

.text.ip4_frag%240
                0x004082f4      0x25c
 .text.ip4_frag
                0x004082f4      0x25c build/default/production/_ext/1349076522/ip4_frag.o
                0x004082f4                ip4_frag

.text.parseCommand%241
                0x00408550      0x254
 .text.parseCommand
                0x00408550      0x254 build/default/production/_ext/1422079320/embedded_cli.o

.text.process_set_config%242
                0x004087a4      0x250
 .text.process_set_config
                0x004087a4      0x250 build/default/production/_ext/781065747/usbd.o

.text.ip_reass_chain_frag_into_datagram_and_validate%243
                0x004089f4      0x248
 .text.ip_reass_chain_frag_into_datagram_and_validate
                0x004089f4      0x248 build/default/production/_ext/1349076522/ip4_frag.o

.text.dcd_int_handler%244
                0x00408c3c      0x244
 .text.dcd_int_handler
                0x00408c3c      0x244 build/default/production/_ext/2093936272/dcd_samx7x.o
                0x00408c3c                dcd_int_handler

.text.CMD_OsStat%245
                0x00408e80      0x240
 .text.CMD_OsStat
                0x00408e80      0x240 build/default/production/_ext/667517761/cli_command.o

.text.xTaskIncrementTick%246
                0x004090c0      0x234
 .text.xTaskIncrementTick
                0x004090c0      0x234 build/default/production/_ext/502845695/tasks.o
                0x004090c0                xTaskIncrementTick

.text.CMD_RtcSet%247
                0x004092f4      0x228
 .text.CMD_RtcSet
                0x004092f4      0x228 build/default/production/_ext/667517761/cli_command.o

.text.ip4_output_if_src%248
                0x0040951c      0x224
 .text.ip4_output_if_src
                0x0040951c      0x224 build/default/production/_ext/1349076522/ip4.o
                0x0040951c                ip4_output_if_src

.text.tcp_split_unsent_seg%249
                0x00409740      0x224
 .text.tcp_split_unsent_seg
                0x00409740      0x224 build/default/production/_ext/1264479574/tcp_out.o
                0x00409740                tcp_split_unsent_seg

.text.etharp_query%250
                0x00409964      0x220
 .text.etharp_query
                0x00409964      0x220 build/default/production/_ext/1349076522/etharp.o
                0x00409964                etharp_query

.text.xTaskResumeAll%251
                0x00409b84      0x214
 .text.xTaskResumeAll
                0x00409b84      0x214 build/default/production/_ext/502845695/tasks.o
                0x00409b84                xTaskResumeAll

.text.etharp_find_entry%252
                0x00409d98      0x214
 .text.etharp_find_entry
                0x00409d98      0x214 build/default/production/_ext/1349076522/etharp.o

.text.xQueueGenericSend%253
                0x00409fac      0x20c
 .text.xQueueGenericSend
                0x00409fac      0x20c build/default/production/_ext/502845695/queue.o
                0x00409fac                xQueueGenericSend

.text.xQueueSemaphoreTake%254
                0x0040a1b8      0x208
 .text.xQueueSemaphoreTake
                0x0040a1b8      0x208 build/default/production/_ext/502845695/queue.o
                0x0040a1b8                xQueueSemaphoreTake

.text.tud_rhport_init%255
                0x0040a3c0      0x208
 .text.tud_rhport_init
                0x0040a3c0      0x208 build/default/production/_ext/781065747/usbd.o
                0x0040a3c0                tud_rhport_init

.text.mem_malloc%256
                0x0040a5c8      0x1f4
 .text.mem_malloc
                0x0040a5c8      0x1f4 build/default/production/_ext/1264479574/mem.o
                0x0040a5c8                mem_malloc

.text.netd_open%257
                0x0040a7bc      0x1f4
 .text.netd_open
                0x0040a7bc      0x1f4 build/default/production/_ext/1439055959/ncm_device.o
                0x0040a7bc                netd_open

.text.Dmesg_GetLatestN%258
                0x0040a9b0      0x1f0
 .text.Dmesg_GetLatestN
                0x0040a9b0      0x1f0 build/default/production/_ext/1798135708/dmesg.o
                0x0040a9b0                Dmesg_GetLatestN

.text.tcp_listen_input%259
                0x0040aba0      0x1f0
 .text.tcp_listen_input
                0x0040aba0      0x1f0 build/default/production/_ext/1264479574/tcp_in.o

.text.mem_trim%260
                0x0040ad90      0x1e4
 .text.mem_trim
                0x0040ad90      0x1e4 build/default/production/_ext/1264479574/mem.o
                0x0040ad90                mem_trim

.text.dcd_edpt_xfer%261
                0x0040af74      0x1e4
 .text.dcd_edpt_xfer
                0x0040af74      0x1e4 build/default/production/_ext/2093936272/dcd_samx7x.o
                0x0040af74                dcd_edpt_xfer

.text.xQueueReceive%262
                0x0040b158      0x1cc
 .text.xQueueReceive
                0x0040b158      0x1cc build/default/production/_ext/502845695/queue.o
                0x0040b158                xQueueReceive

.text.dcd_edpt_open%263
                0x0040b324      0x1cc
 .text.dcd_edpt_open
                0x0040b324      0x1cc build/default/production/_ext/2093936272/dcd_samx7x.o
                0x0040b324                dcd_edpt_open

.text.prvProcessReceivedCommands%264
                0x0040b4f0      0x1c8
 .text.prvProcessReceivedCommands
                0x0040b4f0      0x1c8 build/default/production/_ext/502845695/timers.o

.text.xTaskRemoveFromEventList%265
                0x0040b6b8      0x1b4
 .text.xTaskRemoveFromEventList
                0x0040b6b8      0x1b4 build/default/production/_ext/502845695/tasks.o
                0x0040b6b8                xTaskRemoveFromEventList

.text.process_get_descriptor%266
                0x0040b86c      0x1b4
 .text.process_get_descriptor
                0x0040b86c      0x1b4 build/default/production/_ext/781065747/usbd.o

.text.PIO_Initialize%267
                0x0040ba20      0x1b0
 .text.PIO_Initialize
                0x0040ba20      0x1b0 build/default/production/_ext/60177924/plib_pio.o
                0x0040ba20                PIO_Initialize

.text.xPortStartScheduler%268
                0x0040bbd0      0x198
 .text.xPortStartScheduler
                0x0040bbd0      0x198 build/default/production/_ext/1908456078/port.o
                0x0040bbd0                xPortStartScheduler

.text.etharp_output%269
                0x0040bd68      0x190
 .text.etharp_output
                0x0040bd68      0x190 build/default/production/_ext/1349076522/etharp.o
                0x0040bd68                etharp_output

.text.tcp_close_shutdown%270
                0x0040bef8      0x188
 .text.tcp_close_shutdown
                0x0040bef8      0x188 build/default/production/_ext/1264479574/tcp.o

.text.tcp_output_segment%271
                0x0040c080      0x184
 .text.tcp_output_segment
                0x0040c080      0x184 build/default/production/_ext/1264479574/tcp_out.o

.text.recv_validate_datagram%272
                0x0040c204      0x184
 .text.recv_validate_datagram
                0x0040c204      0x184 build/default/production/_ext/1439055959/ncm_device.o

.rodata%273     0x0040c388      0x181
 .rodata        0x0040c388      0x181 build/default/production/_ext/1389938436/app_network.o

.text.vTaskPriorityDisinheritAfterTimeout%274
                0x0040c50c      0x17c
 .text.vTaskPriorityDisinheritAfterTimeout
                0x0040c50c      0x17c build/default/production/_ext/502845695/tasks.o
                0x0040c50c                vTaskPriorityDisinheritAfterTimeout

.text.getAutocompletedCommand%275
                0x0040c688      0x17a
 .text.getAutocompletedCommand
                0x0040c688      0x17a build/default/production/_ext/1422079320/embedded_cli.o

.text.xQueueGenericSendFromISR%276
                0x0040c802      0x178
 .text.xQueueGenericSendFromISR
                0x0040c802      0x178 build/default/production/_ext/502845695/queue.o
                0x0040c802                xQueueGenericSendFromISR

.text.pbuf_alloc%277
                0x0040c97a      0x176
 .text.pbuf_alloc
                0x0040c97a      0x176 build/default/production/_ext/1264479574/pbuf.o
                0x0040c97a                pbuf_alloc

.rodata%278     0x0040caf0      0x16d
 .rodata        0x0040caf0      0x16d build/default/production/_ext/1422079320/embedded_cli.o

.text.write_entry_internal%279
                0x0040cc60      0x16c
 .text.write_entry_internal
                0x0040cc60      0x16c build/default/production/_ext/1798135708/dmesg.o

.text.notification_xmit%280
                0x0040cdcc      0x16c
 .text.notification_xmit
                0x0040cdcc      0x16c build/default/production/_ext/1439055959/ncm_device.o

.text.etharp_update_arp_entry%281
                0x0040cf38      0x168
 .text.etharp_update_arp_entry
                0x0040cf38      0x168 build/default/production/_ext/1349076522/etharp.o

.text.usbd_control_xfer_cb%282
                0x0040d0a0      0x168
 .text.usbd_control_xfer_cb
                0x0040d0a0      0x168 build/default/production/_ext/781065747/usbd_control.o
                0x0040d0a0                usbd_control_xfer_cb

.text.ethernet_input%283
                0x0040d208      0x164
 .text.ethernet_input
                0x0040d208      0x164 build/default/production/_ext/534298161/ethernet.o
                0x0040d208                ethernet_input

.text.tcp_alloc%284
                0x0040d36c      0x15c
 .text.tcp_alloc
                0x0040d36c      0x15c build/default/production/_ext/1264479574/tcp.o
                0x0040d36c                tcp_alloc

.text.xStreamBufferReceive%285
                0x0040d4c8      0x158
 .text.xStreamBufferReceive
                0x0040d4c8      0x158 build/default/production/_ext/502845695/stream_buffer.o
                0x0040d4c8                xStreamBufferReceive

.text.etharp_tmr%286
                0x0040d620      0x158
 .text.etharp_tmr
                0x0040d620      0x158 build/default/production/_ext/1349076522/etharp.o
                0x0040d620                etharp_tmr

.text.xTaskPriorityDisinherit%287
                0x0040d778      0x154
 .text.xTaskPriorityDisinherit
                0x0040d778      0x154 build/default/production/_ext/502845695/tasks.o
                0x0040d778                xTaskPriorityDisinherit

.text.tcp_enqueue_flags%288
                0x0040d8cc      0x150
 .text.tcp_enqueue_flags
                0x0040d8cc      0x150 build/default/production/_ext/1264479574/tcp_out.o
                0x0040d8cc                tcp_enqueue_flags

.text.tu_fifo_read_n_access_mode%289
                0x0040da1c      0x14c
 .text.tu_fifo_read_n_access_mode
                0x0040da1c      0x14c build/default/production/_ext/761407912/tusb_fifo.o
                0x0040da1c                tu_fifo_read_n_access_mode

.text.xStreamBufferGenericCreateStatic%290
                0x0040db68      0x148
 .text.xStreamBufferGenericCreateStatic
                0x0040db68      0x148 build/default/production/_ext/502845695/stream_buffer.o
                0x0040db68                xStreamBufferGenericCreateStatic

.text.vTaskDelete%291
                0x0040dcb0      0x148
 .text.vTaskDelete
                0x0040dcb0      0x148 build/default/production/_ext/502845695/tasks.o
                0x0040dcb0                vTaskDelete

.text.tcp_abandon%292
                0x0040ddf8      0x148
 .text.tcp_abandon
                0x0040ddf8      0x148 build/default/production/_ext/1264479574/tcp.o
                0x0040ddf8                tcp_abandon

.text.xTaskPriorityInherit%293
                0x0040df40      0x140
 .text.xTaskPriorityInherit
                0x0040df40      0x140 build/default/production/_ext/502845695/tasks.o
                0x0040df40                xTaskPriorityInherit

.text.mem_free%294
                0x0040e080      0x138
 .text.mem_free
                0x0040e080      0x138 build/default/production/_ext/1264479574/mem.o
                0x0040e080                mem_free

.text.tcp_zero_window_probe%295
                0x0040e1b8      0x134
 .text.tcp_zero_window_probe
                0x0040e1b8      0x134 build/default/production/_ext/1264479574/tcp_out.o
                0x0040e1b8                tcp_zero_window_probe

.text.prvAddNewTaskToReadyList%296
                0x0040e2ec      0x130
 .text.prvAddNewTaskToReadyList
                0x0040e2ec      0x130 build/default/production/_ext/502845695/tasks.o

.text.xTaskGenericNotifyWait%297
                0x0040e41c      0x130
 .text.xTaskGenericNotifyWait
                0x0040e41c      0x130 build/default/production/_ext/502845695/tasks.o
                0x0040e41c                xTaskGenericNotifyWait

.text.onControlInput%298
                0x0040e54c      0x128
 .text.onControlInput
                0x0040e54c      0x128 build/default/production/_ext/1422079320/embedded_cli.o

.text.xQueueGenericReset%299
                0x0040e674      0x128
 .text.xQueueGenericReset
                0x0040e674      0x128 build/default/production/_ext/502845695/queue.o
                0x0040e674                xQueueGenericReset

.text.Utils_SoftTime_Update%300
                0x0040e79c      0x128
 .text.Utils_SoftTime_Update
                0x0040e79c      0x128 build/default/production/_ext/697864676/date_time.o
                0x0040e79c                Utils_SoftTime_Update

.text.tud_descriptor_string_cb%301
                0x0040e8c4      0x128
 .text.tud_descriptor_string_cb
                0x0040e8c4      0x128 build/default/production/_ext/783082040/usb_descriptors.o
                0x0040e8c4                tud_descriptor_string_cb

.text.etharp_input%302
                0x0040e9ec      0x128
 .text.etharp_input
                0x0040e9ec      0x128 build/default/production/_ext/1349076522/etharp.o
                0x0040e9ec                etharp_input

.text.tcp_listen_with_backlog_and_err%303
                0x0040eb14      0x128
 .text.tcp_listen_with_backlog_and_err
                0x0040eb14      0x128 build/default/production/_ext/1264479574/tcp.o
                0x0040eb14                tcp_listen_with_backlog_and_err

.text.onAutocompleteRequest%304
                0x0040ec3c      0x124
 .text.onAutocompleteRequest
                0x0040ec3c      0x124 build/default/production/_ext/1422079320/embedded_cli.o

.text.prvInitialiseNewTask%305
                0x0040ed60      0x124
 .text.prvInitialiseNewTask
                0x0040ed60      0x124 build/default/production/_ext/502845695/tasks.o

.text.__fmt_x%306
                0x0040ee84      0x122
 .text.__fmt_x  0x0040ee84      0x122 C:/Program Files/Microchip/xc32/v5.00/bin/bin/../../lib/gcc/pic32c/13.2.1/../../../../pic32c/lib/thumb/v7e-m+dp/hard\libc-musl.a(__fmt_x.o)
                0x0040ee84                __fmt_x_needed
                0x0040ee84                __fmt_x

.text.embeddedCliProcess%307
                0x0040efa6      0x120
 .text.embeddedCliProcess
                0x0040efa6      0x120 build/default/production/_ext/1422079320/embedded_cli.o
                0x0040efa6                embeddedCliProcess

.text.embeddedCliNew%308
                0x0040f0c6      0x11e
 .text.embeddedCliNew
                0x0040f0c6      0x11e build/default/production/_ext/1422079320/embedded_cli.o
                0x0040f0c6                embeddedCliNew

.text.uxTaskGetSystemState%309
                0x0040f1e4      0x11c
 .text.uxTaskGetSystemState
                0x0040f1e4      0x11c build/default/production/_ext/502845695/tasks.o
                0x0040f1e4                uxTaskGetSystemState

.text.tu_bind_driver_to_ep_itf%310
                0x0040f300      0x11c
 .text.tu_bind_driver_to_ep_itf
                0x0040f300      0x11c build/default/production/_ext/1119931634/tusb.o
                0x0040f300                tu_bind_driver_to_ep_itf

.text.SystemCLI_Init%311
                0x0040f41c      0x118
 .text.SystemCLI_Init
                0x0040f41c      0x118 build/default/production/_ext/818259185/cli_setup.o
                0x0040f41c                SystemCLI_Init

.text.pbuf_copy%312
                0x0040f534      0x118
 .text.pbuf_copy
                0x0040f534      0x118 build/default/production/_ext/1264479574/pbuf.o
                0x0040f534                pbuf_copy

.text.eTaskGetState%313
                0x0040f64c      0x110
 .text.eTaskGetState
                0x0040f64c      0x110 build/default/production/_ext/502845695/tasks.o
                0x0040f64c                eTaskGetState

.text.vTaskGetInfo%314
                0x0040f75c      0x110
 .text.vTaskGetInfo
                0x0040f75c      0x110 build/default/production/_ext/502845695/tasks.o
                0x0040f75c                vTaskGetInfo

.text.EpochToDateTime%315
                0x0040f86c      0x110
 .text.EpochToDateTime
                0x0040f86c      0x110 build/default/production/_ext/697864676/date_time.o
                0x0040f86c                EpochToDateTime

.text.osThreadNew_WithMonitor%316
                0x0040f97c      0x10c
 .text.osThreadNew_WithMonitor
                0x0040f97c      0x10c build/default/production/_ext/1778509306/os.o
                0x0040f97c                osThreadNew_WithMonitor

.rodata%317     0x0040fa88      0x10a
 .rodata        0x0040fa88      0x10a C:/Program Files/Microchip/xc32/v5.00/bin/bin/../../lib/gcc/pic32c/13.2.1/../../../../pic32c/lib/thumb/v7e-m+dp/hard\libc-musl.a(intscan.o)

.text.vTaskSwitchContext%318
                0x0040fb94      0x108
 .text.vTaskSwitchContext
                0x0040fb94      0x108 build/default/production/_ext/502845695/tasks.o
                0x0040fb94                vTaskSwitchContext

.text.prvAddCurrentTaskToDelayedList%319
                0x0040fc9c      0x104
 .text.prvAddCurrentTaskToDelayedList
                0x0040fc9c      0x104 build/default/production/_ext/502845695/tasks.o

.text.etharp_output_to_arp_index%320
                0x0040fda0      0x104
 .text.etharp_output_to_arp_index
                0x0040fda0      0x104 build/default/production/_ext/1349076522/etharp.o

.text.tcp_bind%321
                0x0040fea4      0x104
 .text.tcp_bind
                0x0040fea4      0x104 build/default/production/_ext/1264479574/tcp.o
                0x0040fea4                tcp_bind

.text.recv_transfer_datagram_to_glue_logic%322
                0x0040ffa8      0x104
 .text.recv_transfer_datagram_to_glue_logic
                0x0040ffa8      0x104 build/default/production/_ext/1439055959/ncm_device.o

.text.dcd_dma_handler%323
                0x004100ac      0x104
 .text.dcd_dma_handler
                0x004100ac      0x104 build/default/production/_ext/2093936272/dcd_samx7x.o

.text.tcp_server_recv%324
                0x004101b0      0x100
 .text.tcp_server_recv
                0x004101b0      0x100 build/default/production/_ext/1389938436/app_network.o

.text.netd_control_xfer_cb%325
                0x004102b0      0x100
 .text.netd_control_xfer_cb
                0x004102b0      0x100 build/default/production/_ext/1439055959/ncm_device.o
                0x004102b0                netd_control_xfer_cb

.text.tcp_create_segment%326
                0x004103b0       0xfc
 .text.tcp_create_segment
                0x004103b0       0xfc build/default/production/_ext/1264479574/tcp_out.o

.text.prvInsertBlockIntoFreeList%327
                0x004104ac       0xf8
 .text.prvInsertBlockIntoFreeList
                0x004104ac       0xf8 build/default/production/_ext/1562497596/heap_4.o

.text.vPortFree%328
                0x004105a4       0xf4
 .text.vPortFree
                0x004105a4       0xf4 build/default/production/_ext/1562497596/heap_4.o
                0x004105a4                vPortFree

.text.read_entry_at_offset%329
                0x00410698       0xf4
 .text.read_entry_at_offset
                0x00410698       0xf4 build/default/production/_ext/1798135708/dmesg.o

.text.usbd_edpt_xfer%330
                0x0041078c       0xf4
 .text.usbd_edpt_xfer
                0x0041078c       0xf4 build/default/production/_ext/781065747/usbd.o
                0x0041078c                usbd_edpt_xfer

.text.CMD_RtcSetEpoch%331
                0x00410880       0xf0
 .text.CMD_RtcSetEpoch
                0x00410880       0xf0 build/default/production/_ext/667517761/cli_command.o

.text.tcp_oos_insert_segment%332
                0x00410970       0xf0
 .text.tcp_oos_insert_segment
                0x00410970       0xf0 build/default/production/_ext/1264479574/tcp_in.o

.text.xmit_setup_next_glue_ntb%333
                0x00410a60       0xec
 .text.xmit_setup_next_glue_ntb
                0x00410a60       0xec build/default/production/_ext/1439055959/ncm_device.o

.text.embeddedCliTokenizeArgs%334
                0x00410b4c       0xe8
 .text.embeddedCliTokenizeArgs
                0x00410b4c       0xe8 build/default/production/_ext/1422079320/embedded_cli.o
                0x00410b4c                embeddedCliTokenizeArgs

.text.navigateHistory%335
                0x00410c34       0xe8
 .text.navigateHistory
                0x00410c34       0xe8 build/default/production/_ext/1422079320/embedded_cli.o

.text.Dmesg_GetLogs%336
                0x00410d1c       0xe4
 .text.Dmesg_GetLogs
                0x00410d1c       0xe4 build/default/production/_ext/1798135708/dmesg.o
                0x00410d1c                Dmesg_GetLogs

.text.raw_input%337
                0x00410e00       0xe4
 .text.raw_input
                0x00410e00       0xe4 build/default/production/_ext/1264479574/raw.o
                0x00410e00                raw_input

.text.prvReadBytesFromBuffer%338
                0x00410ee4       0xe0
 .text.prvReadBytesFromBuffer
                0x00410ee4       0xe0 build/default/production/_ext/502845695/stream_buffer.o

.text.tcp_server_accept%339
                0x00410fc4       0xe0
 .text.tcp_server_accept
                0x00410fc4       0xe0 build/default/production/_ext/1389938436/app_network.o

.text.etharp_raw%340
                0x004110a4       0xe0
 .text.etharp_raw
                0x004110a4       0xe0 build/default/production/_ext/1349076522/etharp.o

.text.tcp_process_refused_data%341
                0x00411184       0xe0
 .text.tcp_process_refused_data
                0x00411184       0xe0 build/default/production/_ext/1264479574/tcp.o
                0x00411184                tcp_process_refused_data

.text.tud_control_xfer%342
                0x00411264       0xe0
 .text.tud_control_xfer
                0x00411264       0xe0 build/default/production/_ext/781065747/usbd_control.o
                0x00411264                tud_control_xfer

.text.inet_cksum_pseudo_base%343
                0x00411344       0xde
 .text.inet_cksum_pseudo_base
                0x00411344       0xde build/default/production/_ext/1264479574/inet_chksum.o

.rodata.cliStaticBindings_internal%344
                0x00411424       0xd8
 .rodata.cliStaticBindings_internal
                0x00411424       0xd8 build/default/production/_ext/667517761/cli_command.o

.text.icmp_send_response%345
                0x004114fc       0xd8
 .text.icmp_send_response
                0x004114fc       0xd8 build/default/production/_ext/1349076522/icmp.o

.text.configuration_reset%346
                0x004115d4       0xd8
 .text.configuration_reset
                0x004115d4       0xd8 build/default/production/_ext/781065747/usbd.o

.text.prvCopyDataToQueue%347
                0x004116ac       0xd4
 .text.prvCopyDataToQueue
                0x004116ac       0xd4 build/default/production/_ext/502845695/queue.o

.text.xTaskCheckForTimeOut%348
                0x00411780       0xd4
 .text.xTaskCheckForTimeOut
                0x00411780       0xd4 build/default/production/_ext/502845695/tasks.o
                0x00411780                xTaskCheckForTimeOut

.text.tcp_timewait_input%349
                0x00411854       0xd4
 .text.tcp_timewait_input
                0x00411854       0xd4 build/default/production/_ext/1264479574/tcp_in.o

.text.prvCreateIdleTasks%350
                0x00411928       0xd0
 .text.prvCreateIdleTasks
                0x00411928       0xd0 build/default/production/_ext/502845695/tasks.o

.text.usbd_open_edpt_pair%351
                0x004119f8       0xd0
 .text.usbd_open_edpt_pair
                0x004119f8       0xd0 build/default/production/_ext/781065747/usbd.o
                0x004119f8                usbd_open_edpt_pair

.text.plug_holes%352
                0x00411ac8       0xcc
 .text.plug_holes
                0x00411ac8       0xcc build/default/production/_ext/1264479574/mem.o

.text.tcp_parseopt%353
                0x00411b94       0xcc
 .text.tcp_parseopt
                0x00411b94       0xcc build/default/production/_ext/1264479574/tcp_in.o

.text.historyPut%354
                0x00411c60       0xc8
 .text.historyPut
                0x00411c60       0xc8 build/default/production/_ext/1422079320/embedded_cli.o

.text.xQueueGenericCreateStatic%355
                0x00411d28       0xc8
 .text.xQueueGenericCreateStatic
                0x00411d28       0xc8 build/default/production/_ext/502845695/queue.o
                0x00411d28                xQueueGenericCreateStatic

.text.prvCreateStaticTask%356
                0x00411df0       0xc8
 .text.prvCreateStaticTask
                0x00411df0       0xc8 build/default/production/_ext/502845695/tasks.o

.text.tcp_fasttmr%357
                0x00411eb8       0xc8
 .text.tcp_fasttmr
                0x00411eb8       0xc8 build/default/production/_ext/1264479574/tcp.o
                0x00411eb8                tcp_fasttmr

.text.data_stage_xact%358
                0x00411f80       0xc8
 .text.data_stage_xact
                0x00411f80       0xc8 build/default/production/_ext/781065747/usbd_control.o

.rodata%359     0x00412048       0xc7
 .rodata        0x00412048       0xc7 build/default/production/_ext/1798135708/dmesg.o

.text.printLiveAutocompletion%360
                0x00412110       0xc4
 .text.printLiveAutocompletion
                0x00412110       0xc4 build/default/production/_ext/1422079320/embedded_cli.o

.text.ip_reass_remove_oldest_datagram%361
                0x004121d4       0xc4
 .text.ip_reass_remove_oldest_datagram
                0x004121d4       0xc4 build/default/production/_ext/1349076522/ip4_frag.o

.text.netif_add%362
                0x00412298       0xc4
 .text.netif_add
                0x00412298       0xc4 build/default/production/_ext/1264479574/netif.o
                0x00412298                netif_add

.text.dcd_transmit_packet%363
                0x0041235c       0xc4
 .text.dcd_transmit_packet
                0x0041235c       0xc4 build/default/production/_ext/2093936272/dcd_samx7x.o

.text.__pop_int%364
                0x00412420       0xc4
 .text.__pop_int
                0x00412420       0xc4 C:/Program Files/Microchip/xc32/v5.00/bin/bin/../../lib/gcc/pic32c/13.2.1/../../../../pic32c/lib/thumb/v7e-m+dp/hard\libc-musl.a(__pop_int.o)
                0x00412420                __pop_int_needed
                0x00412420                __pop_int

.text.tcp_rexmit_rto_prepare%365
                0x004124e4       0xc0
 .text.tcp_rexmit_rto_prepare
                0x004124e4       0xc0 build/default/production/_ext/1264479574/tcp_out.o
                0x004124e4                tcp_rexmit_rto_prepare

.text.pbuf_realloc%366
                0x004125a4       0xbe
 .text.pbuf_realloc
                0x004125a4       0xbe build/default/production/_ext/1264479574/pbuf.o
                0x004125a4                pbuf_realloc

.text.tcp_output_alloc_header_common%367
                0x00412662       0xbe
 .text.tcp_output_alloc_header_common
                0x00412662       0xbe build/default/production/_ext/1264479574/tcp_out.o

.text.ff_push_n%368
                0x00412720       0xbe
 .text.ff_push_n
                0x00412720       0xbe build/default/production/_ext/761407912/tusb_fifo.o

.text.ff_pull_n%369
                0x004127de       0xbe
 .text.ff_pull_n
                0x004127de       0xbe build/default/production/_ext/761407912/tusb_fifo.o

.text.Shield_Process%370
                0x0041289c       0xbc
 .text.Shield_Process
                0x0041289c       0xbc build/default/production/_ext/1134253236/simple_shield.o

.text.onEscapedInput%371
                0x00412958       0xbc
 .text.onEscapedInput
                0x00412958       0xbc build/default/production/_ext/1422079320/embedded_cli.o

.text.ip_reass_free_complete_datagram%372
                0x00412a14       0xbc
 .text.ip_reass_free_complete_datagram
                0x00412a14       0xbc build/default/production/_ext/1349076522/ip4_frag.o

.text.sys_timeout_abs%373
                0x00412ad0       0xbc
 .text.sys_timeout_abs
                0x00412ad0       0xbc build/default/production/_ext/1264479574/timeouts.o

.text.floor%374
                0x00412b90       0xbc
 .text.floor    0x00412b90       0xbc C:/Program Files/Microchip/xc32/v5.00/bin/bin/../../lib/gcc/pic32c/13.2.1/../../../../pic32c/lib/thumb/v7e-m+dp/hard\libm-fast-emfloat.a(floor.o)
                0x00412b90                floor

.text.historyRemove%375
                0x00412c4c       0xba
 .text.historyRemove
                0x00412c4c       0xba build/default/production/_ext/1422079320/embedded_cli.o

.text.lwip_standard_chksum%376
                0x00412d06       0xba
 .text.lwip_standard_chksum
                0x00412d06       0xba build/default/production/_ext/1264479574/inet_chksum.o
                0x00412d06                lwip_standard_chksum

.text.tu_fifo_peek_n_access_mode%377
                0x00412dc0       0xba
 .text.tu_fifo_peek_n_access_mode
                0x00412dc0       0xba build/default/production/_ext/761407912/tusb_fifo.o
                0x00412dc0                tu_fifo_peek_n_access_mode

.text.DateTimeToEpoch%378
                0x00412e7c       0xb8
 .text.DateTimeToEpoch
                0x00412e7c       0xb8 build/default/production/_ext/697864676/date_time.o

.text.pbuf_copy_partial%379
                0x00412f34       0xb8
 .text.pbuf_copy_partial
                0x00412f34       0xb8 build/default/production/_ext/1264479574/pbuf.o
                0x00412f34                pbuf_copy_partial

.text.tcp_rexmit%380
                0x00412fec       0xb8
 .text.tcp_rexmit
                0x00412fec       0xb8 build/default/production/_ext/1264479574/tcp_out.o
                0x00412fec                tcp_rexmit

.text.tud_network_xmit%381
                0x004130a4       0xb8
 .text.tud_network_xmit
                0x004130a4       0xb8 build/default/production/_ext/1439055959/ncm_device.o
                0x004130a4                tud_network_xmit

.text.netd_xfer_cb%382
                0x0041315c       0xb8
 .text.netd_xfer_cb
                0x0041315c       0xb8 build/default/production/_ext/1439055959/ncm_device.o
                0x0041315c                netd_xfer_cb

.text.prvHeapInit%383
                0x00413214       0xb4
 .text.prvHeapInit
                0x00413214       0xb4 build/default/production/_ext/1562497596/heap_4.o

.text.evict_oldest_entry%384
                0x004132c8       0xb4
 .text.evict_oldest_entry
                0x004132c8       0xb4 build/default/production/_ext/1798135708/dmesg.o

.text.pbuf_add_header_impl%385
                0x0041337c       0xb4
 .text.pbuf_add_header_impl
                0x0041337c       0xb4 build/default/production/_ext/1264479574/pbuf.o

.text.tcp_write_checks%386
                0x00413430       0xb4
 .text.tcp_write_checks
                0x00413430       0xb4 build/default/production/_ext/1264479574/tcp_out.o

.rodata.desc_ms_os_20%387
                0x004134e4       0xb2
 .rodata.desc_ms_os_20
                0x004134e4       0xb2 build/default/production/_ext/783082040/usb_descriptors.o
                0x004134e4                desc_ms_os_20

.text.pbuf_free%388
                0x00413596       0xb2
 .text.pbuf_free
                0x00413596       0xb2 build/default/production/_ext/1264479574/pbuf.o
                0x00413596                pbuf_free

.text.pbuf_take%389
                0x00413648       0xb2
 .text.pbuf_take
                0x00413648       0xb2 build/default/production/_ext/1264479574/pbuf.o
                0x00413648                pbuf_take

.text.tcp_close_shutdown_fin%390
                0x004136fa       0xb2
 .text.tcp_close_shutdown_fin
                0x004136fa       0xb2 build/default/production/_ext/1264479574/tcp.o

.text.UART_RX_Callback%391
                0x004137ac       0xac
 .text.UART_RX_Callback
                0x004137ac       0xac build/default/production/_ext/216470852/uart_irq.o

.text.App_NetworkTask%392
                0x00413858       0xac
 .text.App_NetworkTask
                0x00413858       0xac build/default/production/_ext/1389938436/app_network.o
                0x00413858                App_NetworkTask

.text.tcp_free_acked_segments%393
                0x00413904       0xac
 .text.tcp_free_acked_segments
                0x00413904       0xac build/default/production/_ext/1264479574/tcp_in.o

.text.xQueueGenericCreate%394
                0x004139b0       0xa8
 .text.xQueueGenericCreate
                0x004139b0       0xa8 build/default/production/_ext/502845695/queue.o
                0x004139b0                xQueueGenericCreate

.text.board_usb_get_serial%395
                0x00413a58       0xa8
 .text.board_usb_get_serial
                0x00413a58       0xa8 build/default/production/_ext/783082040/usb_descriptors.o

.text.tcp_output_control_segment%396
                0x00413b00       0xa8
 .text.tcp_output_control_segment
                0x00413b00       0xa8 build/default/production/_ext/1264479574/tcp_out.o

.text.onCharInput%397
                0x00413ba8       0xa4
 .text.onCharInput
                0x00413ba8       0xa4 build/default/production/_ext/1422079320/embedded_cli.o

.text.prvUnlockQueue%398
                0x00413c4c       0xa4
 .text.prvUnlockQueue
                0x00413c4c       0xa4 build/default/production/_ext/502845695/queue.o

.text.tcp_pbuf_prealloc%399
                0x00413cf0       0xa4
 .text.tcp_pbuf_prealloc
                0x00413cf0       0xa4 build/default/production/_ext/1264479574/tcp_out.o

.text.tcp_rexmit_fast%400
                0x00413d94       0xa4
 .text.tcp_rexmit_fast
                0x00413d94       0xa4 build/default/production/_ext/1264479574/tcp_out.o
                0x00413d94                tcp_rexmit_fast

.text.__fmt_d%401
                0x00413e38       0xa4
 .text.__fmt_d  0x00413e38       0xa4 C:/Program Files/Microchip/xc32/v5.00/bin/bin/../../lib/gcc/pic32c/13.2.1/../../../../pic32c/lib/thumb/v7e-m+dp/hard\libc-musl.a(__fmt_d.o)
                0x00413e38                __fmt_d
                0x00413e38                __fmt_d_needed

.text.tcp_send_empty_ack%402
                0x00413edc       0xa2
 .text.tcp_send_empty_ack
                0x00413edc       0xa2 build/default/production/_ext/1264479574/tcp_out.o
                0x00413edc                tcp_send_empty_ack

.text.vQueueAddToRegistry%403
                0x00413f80       0xa0
 .text.vQueueAddToRegistry
                0x00413f80       0xa0 build/default/production/_ext/502845695/queue.o
                0x00413f80                vQueueAddToRegistry

.text.tcp_pcb_remove%404
                0x00414020       0x9e
 .text.tcp_pcb_remove
                0x00414020       0x9e build/default/production/_ext/1264479574/tcp.o
                0x00414020                tcp_pcb_remove

.text.CLK_MainClockInitialize%405
                0x004140c0       0x9c
 .text.CLK_MainClockInitialize
                0x004140c0       0x9c build/default/production/_ext/60165520/plib_clk.o

.text.embeddedCliPrint%406
                0x0041415c       0x9c
 .text.embeddedCliPrint
                0x0041415c       0x9c build/default/production/_ext/1422079320/embedded_cli.o
                0x0041415c                embeddedCliPrint

.text.prvProcessTimerOrBlockTask%407
                0x004141f8       0x9c
 .text.prvProcessTimerOrBlockTask
                0x004141f8       0x9c build/default/production/_ext/502845695/timers.o

.text.AppRoot_GrowUp%408
                0x00414294       0x9c
 .text.AppRoot_GrowUp
                0x00414294       0x9c build/default/production/_ext/1026660007/app_root.o
                0x00414294                AppRoot_GrowUp

.text.tcp_kill_prio%409
                0x00414330       0x9c
 .text.tcp_kill_prio
                0x00414330       0x9c build/default/production/_ext/1264479574/tcp.o

.text.inet_chksum_pbuf%410
                0x004143cc       0x9a
 .text.inet_chksum_pbuf
                0x004143cc       0x9a build/default/production/_ext/1264479574/inet_chksum.o
                0x004143cc                inet_chksum_pbuf

.text.udp_input_local_match%411
                0x00414468       0x98
 .text.udp_input_local_match
                0x00414468       0x98 build/default/production/_ext/1264479574/udp.o

.text.xmit_start_if_possible%412
                0x00414500       0x98
 .text.xmit_start_if_possible
                0x00414500       0x98 build/default/production/_ext/1439055959/ncm_device.o

.text.UART2_ISR_TX_Handler%413
                0x00414598       0x94
 .text.UART2_ISR_TX_Handler
                0x00414598       0x94 build/default/production/_ext/1865657120/plib_uart2.o

.text.Shield_Init%414
                0x0041462c       0x94
 .text.Shield_Init
                0x0041462c       0x94 build/default/production/_ext/1134253236/simple_shield.o
                0x0041462c                Shield_Init

.text.UART_Driver_Init%415
                0x004146c0       0x94
 .text.UART_Driver_Init
                0x004146c0       0x94 build/default/production/_ext/216470852/uart_irq.o
                0x004146c0                UART_Driver_Init

.text.xTimerCreateTimerTask%416
                0x00414754       0x94
 .text.xTimerCreateTimerTask
                0x00414754       0x94 build/default/production/_ext/502845695/timers.o
                0x00414754                xTimerCreateTimerTask

.text.netif_set_addr%417
                0x004147e8       0x94
 .text.netif_set_addr
                0x004147e8       0x94 build/default/production/_ext/1264479574/netif.o
                0x004147e8                netif_set_addr

.text.recv_try_to_start_new_reception%418
                0x0041487c       0x94
 .text.recv_try_to_start_new_reception
                0x0041487c       0x94 build/default/production/_ext/1439055959/ncm_device.o

.text.osThreadNew%419
                0x00414910       0x92
 .text.osThreadNew
                0x00414910       0x92 build/default/production/_ext/1778509306/os.o
                0x00414910                osThreadNew

.text.UART2_ISR_RX_Handler%420
                0x004149a4       0x90
 .text.UART2_ISR_RX_Handler
                0x004149a4       0x90 build/default/production/_ext/1865657120/plib_uart2.o

.text.vTaskStartScheduler%421
                0x00414a34       0x90
 .text.vTaskStartScheduler
                0x00414a34       0x90 build/default/production/_ext/502845695/tasks.o
                0x00414a34                vTaskStartScheduler

.text.vTaskPlaceOnEventListRestricted%422
                0x00414ac4       0x90
 .text.vTaskPlaceOnEventListRestricted
                0x00414ac4       0x90 build/default/production/_ext/502845695/tasks.o
                0x00414ac4                vTaskPlaceOnEventListRestricted

.text.mem_init%423
                0x00414b54       0x90
 .text.mem_init
                0x00414b54       0x90 build/default/production/_ext/1264479574/mem.o
                0x00414b54                mem_init

.text.CMD_Dmesg%424
                0x00414be4       0x8c
 .text.CMD_Dmesg
                0x00414be4       0x8c build/default/production/_ext/667517761/cli_command.o

.text.RingBuffer_Put%425
                0x00414c70       0x8c
 .text.RingBuffer_Put
                0x00414c70       0x8c build/default/production/_ext/1260377903/ring_buffer.o
                0x00414c70                RingBuffer_Put

.text.init_lwip%426
                0x00414cfc       0x8c
 .text.init_lwip
                0x00414cfc       0x8c build/default/production/_ext/1389938436/app_network.o

.text.tcp_new_port%427
                0x00414d88       0x8c
 .text.tcp_new_port
                0x00414d88       0x8c build/default/production/_ext/1264479574/tcp.o

.text.xmit_insert_required_zlp%428
                0x00414e14       0x8c
 .text.xmit_insert_required_zlp
                0x00414e14       0x8c build/default/production/_ext/1439055959/ncm_device.o

.text.UART2_InterruptHandler%429
                0x00414ea0       0x88
 .text.UART2_InterruptHandler
                0x00414ea0       0x88 build/default/production/_ext/1865657120/plib_uart2.o
                0x00414ea0                UART2_InterruptHandler

.text.vPortValidateInterruptPriority%430
                0x00414f28       0x88
 .text.vPortValidateInterruptPriority
                0x00414f28       0x88 build/default/production/_ext/1908456078/port.o
                0x00414f28                vPortValidateInterruptPriority

.text.usbd_edpt_open%431
                0x00414fb0       0x88
 .text.usbd_edpt_open
                0x00414fb0       0x88 build/default/production/_ext/781065747/usbd.o
                0x00414fb0                usbd_edpt_open

.text.UART_Driver_Write%432
                0x00415038       0x86
 .text.UART_Driver_Write
                0x00415038       0x86 build/default/production/_ext/216470852/uart_irq.o
                0x00415038                UART_Driver_Write

.text.Reset_Handler%433
                0x004150c0       0x84
 .text.Reset_Handler
                0x004150c0       0x84 build/default/production/_ext/1171490990/startup_xc32.o
                0x004150c0                Reset_Handler

.text.osMonitorTask%434
                0x00415144       0x84
 .text.osMonitorTask
                0x00415144       0x84 build/default/production/_ext/1778509306/os.o

.text.prvInsertTimerInActiveList%435
                0x004151c8       0x84
 .text.prvInsertTimerInActiveList
                0x004151c8       0x84 build/default/production/_ext/502845695/timers.o

.text.ip_reass_enqueue_new_datagram%436
                0x0041524c       0x84
 .text.ip_reass_enqueue_new_datagram
                0x0041524c       0x84 build/default/production/_ext/1349076522/ip4_frag.o

.text.tcp_pcb_purge%437
                0x004152d0       0x84
 .text.tcp_pcb_purge
                0x004152d0       0x84 build/default/production/_ext/1264479574/tcp.o
                0x004152d0                tcp_pcb_purge

.text.netd_init%438
                0x00415354       0x84
 .text.netd_init
                0x00415354       0x84 build/default/production/_ext/1439055959/ncm_device.o
                0x00415354                netd_init

.text.RingBuffer_Get%439
                0x004153d8       0x82
 .text.RingBuffer_Get
                0x004153d8       0x82 build/default/production/_ext/1260377903/ring_buffer.o
                0x004153d8                RingBuffer_Get

.text.NVIC_Initialize%440
                0x0041545c       0x80
 .text.NVIC_Initialize
                0x0041545c       0x80 build/default/production/_ext/1865468468/plib_nvic.o
                0x0041545c                NVIC_Initialize

.text.TCM_Configure%441
                0x004154dc       0x80
 .text.TCM_Configure
                0x004154dc       0x80 build/default/production/_ext/1171490990/startup_xc32.o

.text.prvCreateTask%442
                0x0041555c       0x80
 .text.prvCreateTask
                0x0041555c       0x80 build/default/production/_ext/502845695/tasks.o

.text.prvInitialiseTaskLists%443
                0x004155dc       0x80
 .text.prvInitialiseTaskLists
                0x004155dc       0x80 build/default/production/_ext/502845695/tasks.o

.text.prvCheckForValidListAndQueue%444
                0x0041565c       0x80
 .text.prvCheckForValidListAndQueue
                0x0041565c       0x80 build/default/production/_ext/502845695/timers.o

.text.tcp_server_init%445
                0x004156dc       0x80
 .text.tcp_server_init
                0x004156dc       0x80 build/default/production/_ext/1389938436/app_network.o
                0x004156dc                tcp_server_init

.text.tcp_send_fin%446
                0x0041575c       0x80
 .text.tcp_send_fin
                0x0041575c       0x80 build/default/production/_ext/1264479574/tcp_out.o
                0x0041575c                tcp_send_fin

.text.dcd_connect%447
                0x004157dc       0x80
 .text.dcd_connect
                0x004157dc       0x80 build/default/production/_ext/2093936272/dcd_samx7x.o
                0x004157dc                dcd_connect

.text.tusb_rhport_init%448
                0x0041585c       0x80
 .text.tusb_rhport_init
                0x0041585c       0x80 build/default/production/_ext/1119931634/tusb.o
                0x0041585c                tusb_rhport_init

.text.ip4_addr_isbroadcast_u32%449
                0x004158dc       0x7e
 .text.ip4_addr_isbroadcast_u32
                0x004158dc       0x7e build/default/production/_ext/1349076522/ip4_addr.o
                0x004158dc                ip4_addr_isbroadcast_u32

.text.getTokenPosition%450
                0x0041595a       0x7c
 .text.getTokenPosition
                0x0041595a       0x7c build/default/production/_ext/1422079320/embedded_cli.o

.text.Dmesg_Init%451
                0x004159d8       0x7c
 .text.Dmesg_Init
                0x004159d8       0x7c build/default/production/_ext/1798135708/dmesg.o
                0x004159d8                Dmesg_Init

.text.tcp_update_rcv_ann_wnd%452
                0x00415a54       0x7c
 .text.tcp_update_rcv_ann_wnd
                0x00415a54       0x7c build/default/production/_ext/1264479574/tcp.o
                0x00415a54                tcp_update_rcv_ann_wnd

.text.tcp_netif_ip_addr_changed%453
                0x00415ad0       0x7c
 .text.tcp_netif_ip_addr_changed
                0x00415ad0       0x7c build/default/production/_ext/1264479574/tcp.o
                0x00415ad0                tcp_netif_ip_addr_changed

.text.ethernet_output%454
                0x00415b4c       0x7c
 .text.ethernet_output
                0x00415b4c       0x7c build/default/production/_ext/534298161/ethernet.o
                0x00415b4c                ethernet_output

.text.usbd_edpt_stall%455
                0x00415bc8       0x7c
 .text.usbd_edpt_stall
                0x00415bc8       0x7c build/default/production/_ext/781065747/usbd.o
                0x00415bc8                usbd_edpt_stall

.text.usbd_edpt_clear_stall%456
                0x00415c44       0x7c
 .text.usbd_edpt_clear_stall
                0x00415c44       0x7c build/default/production/_ext/781065747/usbd.o
                0x00415c44                usbd_edpt_clear_stall

.text.__pad%457
                0x00415cc0       0x7c
 .text.__pad    0x00415cc0       0x7c C:/Program Files/Microchip/xc32/v5.00/bin/bin/../../lib/gcc/pic32c/13.2.1/../../../../pic32c/lib/thumb/v7e-m+dp/hard\libc-musl.a(__printf_core.o)
                0x00415cc0                __pad

.text.prvReadMessageFromBuffer%458
                0x00415d3c       0x7a
 .text.prvReadMessageFromBuffer
                0x00415d3c       0x7a build/default/production/_ext/502845695/stream_buffer.o

.text.linkoutput_fn%459
                0x00415db6       0x7a
 .text.linkoutput_fn
                0x00415db6       0x7a build/default/production/_ext/1389938436/app_network.o

.text.xTaskGenericNotifyStateClear%460
                0x00415e30       0x78
 .text.xTaskGenericNotifyStateClear
                0x00415e30       0x78 build/default/production/_ext/502845695/tasks.o
                0x00415e30                xTaskGenericNotifyStateClear

.text.mem_link_valid%461
                0x00415ea8       0x78
 .text.mem_link_valid
                0x00415ea8       0x78 build/default/production/_ext/1264479574/mem.o

.text.__cvt_u%462
                0x00415f20       0x78
 .text.__cvt_u  0x00415f20       0x78 C:/Program Files/Microchip/xc32/v5.00/bin/bin/../../lib/gcc/pic32c/13.2.1/../../../../pic32c/lib/thumb/v7e-m+dp/hard\libc-musl.a(__cvt_u.o)
                0x00415f20                __cvt_u

.text.UART2_RX_Thread%463
                0x00415f98       0x74
 .text.UART2_RX_Thread
                0x00415f98       0x74 build/default/production/_ext/30620426/app_cli.o

.text.Dmesg_Write%464
                0x0041600c       0x74
 .text.Dmesg_Write
                0x0041600c       0x74 build/default/production/_ext/1798135708/dmesg.o
                0x0041600c                Dmesg_Write

.text.do_memp_malloc_pool%465
                0x00416080       0x74
 .text.do_memp_malloc_pool
                0x00416080       0x74 build/default/production/_ext/1264479574/memp.o

.text.pbuf_remove_header%466
                0x004160f4       0x74
 .text.pbuf_remove_header
                0x004160f4       0x74 build/default/production/_ext/1264479574/pbuf.o
                0x004160f4                pbuf_remove_header

.text.raw_input_local_match%467
                0x00416168       0x74
 .text.raw_input_local_match
                0x00416168       0x74 build/default/production/_ext/1264479574/raw.o

.text.sys_check_timeouts%468
                0x004161dc       0x74
 .text.sys_check_timeouts
                0x004161dc       0x74 build/default/production/_ext/1264479574/timeouts.o
                0x004161dc                sys_check_timeouts

.text.vListInsert%469
                0x00416250       0x72
 .text.vListInsert
                0x00416250       0x72 build/default/production/_ext/502845695/list.o
                0x00416250                vListInsert

.text.__fmt_o%470
                0x004162c2       0x72
 .text.__fmt_o  0x004162c2       0x72 C:/Program Files/Microchip/xc32/v5.00/bin/bin/../../lib/gcc/pic32c/13.2.1/../../../../pic32c/lib/thumb/v7e-m+dp/hard\libc-musl.a(__fmt_o.o)
                0x004162c2                __fmt_o
                0x004162c2                __fmt_o_needed

.text.UART2_Initialize%471
                0x00416334       0x70
 .text.UART2_Initialize
                0x00416334       0x70 build/default/production/_ext/1865657120/plib_uart2.o
                0x00416334                UART2_Initialize

.text.xQueueTakeMutexRecursive%472
                0x004163a4       0x70
 .text.xQueueTakeMutexRecursive
                0x004163a4       0x70 build/default/production/_ext/502845695/queue.o
                0x004163a4                xQueueTakeMutexRecursive

.text.tud_vendor_control_xfer_cb%473
                0x00416414       0x70
 .text.tud_vendor_control_xfer_cb
                0x00416414       0x70 build/default/production/_ext/783082040/usb_descriptors.o
                0x00416414                tud_vendor_control_xfer_cb

.text.inet_chksum_pseudo%474
                0x00416484       0x70
 .text.inet_chksum_pseudo
                0x00416484       0x70 build/default/production/_ext/1264479574/inet_chksum.o
                0x00416484                inet_chksum_pseudo

.text.ip4_route%475
                0x004164f4       0x70
 .text.ip4_route
                0x004164f4       0x70 build/default/production/_ext/1349076522/ip4.o
                0x004164f4                ip4_route

.text.tcp_kill_state%476
                0x00416564       0x70
 .text.tcp_kill_state
                0x00416564       0x70 build/default/production/_ext/1264479574/tcp.o

.text.__pop_ptr%477
                0x004165d4       0x70
 .text.__pop_ptr
                0x004165d4       0x70 C:/Program Files/Microchip/xc32/v5.00/bin/bin/../../lib/gcc/pic32c/13.2.1/../../../../pic32c/lib/thumb/v7e-m+dp/hard\libc-musl.a(__pop_ptr.o)
                0x004165d4                __pop_ptr
                0x004165d4                __pop_ptr_needed

.text.CLK_MasterClockInitialize%478
                0x00416644       0x6c
 .text.CLK_MasterClockInitialize
                0x00416644       0x6c build/default/production/_ext/60165520/plib_clk.o

.text.PMC_EnablePeripheralClock%479
                0x004166b0       0x6c
 .text.PMC_EnablePeripheralClock
                0x004166b0       0x6c build/default/production/_ext/60165520/plib_clk.o

.rodata%480     0x0041671c       0x6c
 .rodata        0x0041671c       0x6c build/default/production/_ext/1778509306/os.o

.text.moveCursor%481
                0x00416788       0x6c
 .text.moveCursor
                0x00416788       0x6c build/default/production/_ext/1422079320/embedded_cli.o

.text.xQueueGiveMutexRecursive%482
                0x004167f4       0x6c
 .text.xQueueGiveMutexRecursive
                0x004167f4       0x6c build/default/production/_ext/502845695/queue.o
                0x004167f4                xQueueGiveMutexRecursive

.text.prvInitialiseNewStreamBuffer%483
                0x00416860       0x6c
 .text.prvInitialiseNewStreamBuffer
                0x00416860       0x6c build/default/production/_ext/502845695/stream_buffer.o

.text.vTaskDelay%484
                0x004168cc       0x6c
 .text.vTaskDelay
                0x004168cc       0x6c build/default/production/_ext/502845695/tasks.o
                0x004168cc                vTaskDelay

.text.tcp_recved%485
                0x00416938       0x6c
 .text.tcp_recved
                0x00416938       0x6c build/default/production/_ext/1264479574/tcp.o
                0x00416938                tcp_recved

.text.tcp_get_next_optbyte%486
                0x004169a4       0x6c
 .text.tcp_get_next_optbyte
                0x004169a4       0x6c build/default/production/_ext/1264479574/tcp_in.o

.text.sys_mutex_new%487
                0x00416a10       0x6c
 .text.sys_mutex_new
                0x00416a10       0x6c build/default/production/_ext/1017385999/sys_arch.o
                0x00416a10                sys_mutex_new

.text.clearCurrentLine%488
                0x00416a7c       0x6a
 .text.clearCurrentLine
                0x00416a7c       0x6a build/default/production/_ext/1422079320/embedded_cli.o

.text.prvListTasksWithinSingleList%489
                0x00416ae6       0x6a
 .text.prvListTasksWithinSingleList
                0x00416ae6       0x6a build/default/production/_ext/502845695/tasks.o

.text.tcp_rst%490
                0x00416b50       0x6a
 .text.tcp_rst  0x00416b50       0x6a build/default/production/_ext/1264479574/tcp_out.o
                0x00416b50                tcp_rst

.text.pxPortInitialiseStack%491
                0x00416bbc       0x68
 .text.pxPortInitialiseStack
                0x00416bbc       0x68 build/default/production/_ext/1908456078/port.o
                0x00416bbc                pxPortInitialiseStack

.text.vPortEnterCritical%492
                0x00416c24       0x68
 .text.vPortEnterCritical
                0x00416c24       0x68 build/default/production/_ext/1908456078/port.o
                0x00416c24                vPortEnterCritical

.text.PendSV_Handler%493
                0x00416c90       0x68
 .text.PendSV_Handler
                0x00416c90       0x68 build/default/production/_ext/1908456078/port.o
                0x00416c90                PendSV_Handler

.text.vQueueWaitForMessageRestricted%494
                0x00416cf8       0x68
 .text.vQueueWaitForMessageRestricted
                0x00416cf8       0x68 build/default/production/_ext/502845695/queue.o
                0x00416cf8                vQueueWaitForMessageRestricted

.text.EX_TC3_CH0_Handler%495
                0x00416d60       0x68
 .text.EX_TC3_CH0_Handler
                0x00416d60       0x68 build/default/production/_ext/1360937237/ATSAMV71cm7_it.o

.text.memp_init_pool%496
                0x00416dc8       0x68
 .text.memp_init_pool
                0x00416dc8       0x68 build/default/production/_ext/1264479574/memp.o
                0x00416dc8                memp_init_pool

.text.pbuf_alloced_custom%497
                0x00416e30       0x68
 .text.pbuf_alloced_custom
                0x00416e30       0x68 build/default/production/_ext/1264479574/pbuf.o
                0x00416e30                pbuf_alloced_custom

.text.RingBuffer_Create%498
                0x00416e98       0x66
 .text.RingBuffer_Create
                0x00416e98       0x66 build/default/production/_ext/1260377903/ring_buffer.o
                0x00416e98                RingBuffer_Create

.text.etharp_free_entry%499
                0x00416f00       0x64
 .text.etharp_free_entry
                0x00416f00       0x64 build/default/production/_ext/1349076522/etharp.o

.text.lwip_cyclic_timer%500
                0x00416f64       0x64
 .text.lwip_cyclic_timer
                0x00416f64       0x64 build/default/production/_ext/1264479574/timeouts.o

.text.embeddedCliRequiredSize%501
                0x00416fc8       0x62
 .text.embeddedCliRequiredSize
                0x00416fc8       0x62 build/default/production/_ext/1422079320/embedded_cli.o
                0x00416fc8                embeddedCliRequiredSize

.text.prvDeleteTCB%502
                0x0041702a       0x62
 .text.prvDeleteTCB
                0x0041702a       0x62 build/default/production/_ext/502845695/tasks.o

.rodata%503     0x0041708c       0x61
 .rodata        0x0041708c       0x61 build/default/production/_ext/783082040/usb_descriptors.o

.text.prvTaskExitError%504
                0x004170f0       0x60
 .text.prvTaskExitError
                0x004170f0       0x60 build/default/production/_ext/1908456078/port.o

.text.prvProcessExpiredTimer%505
                0x00417150       0x60
 .text.prvProcessExpiredTimer
                0x00417150       0x60 build/default/production/_ext/502845695/timers.o

.text.isLeapYear%506
                0x004171b0       0x60
 .text.isLeapYear
                0x004171b0       0x60 build/default/production/_ext/697864676/date_time.o

.text.raw_netif_ip_addr_changed%507
                0x00417210       0x60
 .text.raw_netif_ip_addr_changed
                0x00417210       0x60 build/default/production/_ext/1264479574/raw.o
                0x00417210                raw_netif_ip_addr_changed

.text.tcp_kill_timewait%508
                0x00417270       0x60
 .text.tcp_kill_timewait
                0x00417270       0x60 build/default/production/_ext/1264479574/tcp.o

.text.tcp_input_delayed_close%509
                0x004172d0       0x60
 .text.tcp_input_delayed_close
                0x004172d0       0x60 build/default/production/_ext/1264479574/tcp_in.o

.text.tcp_keepalive%510
                0x00417330       0x60
 .text.tcp_keepalive
                0x00417330       0x60 build/default/production/_ext/1264479574/tcp_out.o
                0x00417330                tcp_keepalive

.text.udp_netif_ip_addr_changed%511
                0x00417390       0x60
 .text.udp_netif_ip_addr_changed
                0x00417390       0x60 build/default/production/_ext/1264479574/udp.o
                0x00417390                udp_netif_ip_addr_changed

.text.tud_network_can_xmit%512
                0x004173f0       0x60
 .text.tud_network_can_xmit
                0x004173f0       0x60 build/default/production/_ext/1439055959/ncm_device.o
                0x004173f0                tud_network_can_xmit

.text.__strchrnul%513
                0x00417450       0x60
 .text.__strchrnul
                0x00417450       0x60 C:/Program Files/Microchip/xc32/v5.00/bin/bin/../../lib/gcc/pic32c/13.2.1/../../../../pic32c/lib/thumb/v7e-m+dp/hard\libc-size-musl.a(strchrnul.o)
                0x00417450                strchrnul
                0x00417450                __strchrnul

.text.vsnprintf%514
                0x004174b0       0x60
 .text.vsnprintf
                0x004174b0       0x60 C:/Program Files/Microchip/xc32/v5.00/bin/bin/../../lib/gcc/pic32c/13.2.1/../../../../pic32c/lib/thumb/v7e-m+dp/hard\libc-musl.a(vsnprintf.o)
                0x004174b0                vsnprintf

.rodata.ncm_configuration%515
                0x00417510       0x5e
 .rodata.ncm_configuration
                0x00417510       0x5e build/default/production/_ext/783082040/usb_descriptors.o

.text.osKernelStart%516
                0x00417570       0x5c
 .text.osKernelStart
                0x00417570       0x5c build/default/production/_ext/1778509306/os.o
                0x00417570                osKernelStart

.text.prvCheckTasksWaitingTermination%517
                0x004175cc       0x5c
 .text.prvCheckTasksWaitingTermination
                0x004175cc       0x5c build/default/production/_ext/502845695/tasks.o

.text.tud_network_recv_cb%518
                0x00417628       0x5c
 .text.tud_network_recv_cb
                0x00417628       0x5c build/default/production/_ext/1389938436/app_network.o
                0x00417628                tud_network_recv_cb

.text.tcpip_try_callback%519
                0x00417684       0x5c
 .text.tcpip_try_callback
                0x00417684       0x5c build/default/production/_ext/2037418415/tcpip.o
                0x00417684                tcpip_try_callback

.text.netif_issue_reports%520
                0x004176e0       0x5c
 .text.netif_issue_reports
                0x004176e0       0x5c build/default/production/_ext/1264479574/netif.o

.text.xmit_get_free_ntb%521
                0x0041773c       0x5c
 .text.xmit_get_free_ntb
                0x0041773c       0x5c build/default/production/_ext/1439055959/ncm_device.o

.text.usbd_edpt_busy%522
                0x00417798       0x5c
 .text.usbd_edpt_busy
                0x00417798       0x5c build/default/production/_ext/781065747/usbd.o
                0x00417798                usbd_edpt_busy

.text.usbd_edpt_stalled%523
                0x004177f4       0x5c
 .text.usbd_edpt_stalled
                0x004177f4       0x5c build/default/production/_ext/781065747/usbd.o
                0x004177f4                usbd_edpt_stalled

.text.dcd_edpt0_status_complete%524
                0x00417850       0x5c
 .text.dcd_edpt0_status_complete
                0x00417850       0x5c build/default/production/_ext/2093936272/dcd_samx7x.o
                0x00417850                dcd_edpt0_status_complete

.text.__libc_start_init%525
                0x004178ac       0x5c
 .text.__libc_start_init
                0x004178ac       0x5c C:/Program Files/Microchip/xc32/v5.00/bin/bin/../../lib/gcc/pic32c/13.2.1/../../../../pic32c/lib/thumb/v7e-m+dp/hard\libc-musl.a(__libc_start_main.o)
                0x004178ac                __libc_init_array

.text.embeddedCliGetTokenCount%526
                0x00417908       0x5a
 .text.embeddedCliGetTokenCount
                0x00417908       0x5a build/default/production/_ext/1422079320/embedded_cli.o
                0x00417908                embeddedCliGetTokenCount

.text.UART_Driver_StartTx%527
                0x00417962       0x5a
 .text.UART_Driver_StartTx
                0x00417962       0x5a build/default/production/_ext/216470852/uart_irq.o

.text.netif_do_set_ipaddr%528
                0x004179bc       0x5a
 .text.netif_do_set_ipaddr
                0x004179bc       0x5a build/default/production/_ext/1264479574/netif.o

.text.pbuf_cat%529
                0x00417a16       0x5a
 .text.pbuf_cat
                0x00417a16       0x5a build/default/production/_ext/1264479574/pbuf.o
                0x00417a16                pbuf_cat

.text.tcp_output_alloc_header%530
                0x00417a70       0x5a
 .text.tcp_output_alloc_header
                0x00417a70       0x5a build/default/production/_ext/1264479574/tcp_out.o

.text.osThreadFeed%531
                0x00417acc       0x58
 .text.osThreadFeed
                0x00417acc       0x58 build/default/production/_ext/1778509306/os.o
                0x00417acc                osThreadFeed

.text.vPortExitCritical%532
                0x00417b24       0x58
 .text.vPortExitCritical
                0x00417b24       0x58 build/default/production/_ext/1908456078/port.o
                0x00417b24                vPortExitCritical

.text.Utils_GetWorkingTime%533
                0x00417b7c       0x58
 .text.Utils_GetWorkingTime
                0x00417b7c       0x58 build/default/production/_ext/697864676/date_time.o
                0x00417b7c                Utils_GetWorkingTime

.text.ip_reass_tmr%534
                0x00417bd4       0x58
 .text.ip_reass_tmr
                0x00417bd4       0x58 build/default/production/_ext/1349076522/ip4_frag.o
                0x00417bd4                ip_reass_tmr

.text.tcp_eff_send_mss_netif%535
                0x00417c2c       0x58
 .text.tcp_eff_send_mss_netif
                0x00417c2c       0x58 build/default/production/_ext/1264479574/tcp.o
                0x00417c2c                tcp_eff_send_mss_netif

.text.xmit_requested_datagram_fits_into_current_ntb%536
                0x00417c84       0x58
 .text.xmit_requested_datagram_fits_into_current_ntb
                0x00417c84       0x58 build/default/production/_ext/1439055959/ncm_device.o

.text.__shgetc%537
                0x00417cdc       0x58
 .text.__shgetc
                0x00417cdc       0x58 C:/Program Files/Microchip/xc32/v5.00/bin/bin/../../lib/gcc/pic32c/13.2.1/../../../../pic32c/lib/thumb/v7e-m+dp/hard\libc-musl.a(shgetc.o)
                0x00417cdc                __shgetc

.text.__fmt_s%538
                0x00417d34       0x58
 .text.__fmt_s  0x00417d34       0x58 C:/Program Files/Microchip/xc32/v5.00/bin/bin/../../lib/gcc/pic32c/13.2.1/../../../../pic32c/lib/thumb/v7e-m+dp/hard\libc-musl.a(__fmt_s.o)
                0x00417d34                __fmt_s
                0x00417d34                __fmt_0_needed
                0x00417d34                __fmt_s_needed

.text.__fmt_u%539
                0x00417d8c       0x56
 .text.__fmt_u  0x00417d8c       0x56 C:/Program Files/Microchip/xc32/v5.00/bin/bin/../../lib/gcc/pic32c/13.2.1/../../../../pic32c/lib/thumb/v7e-m+dp/hard\libc-musl.a(__fmt_u.o)
                0x00417d8c                __fmt_u_needed
                0x00417d8c                __fmt_u

.text.__NVIC_SetPriority%540
                0x00417de4       0x54
 .text.__NVIC_SetPriority
                0x00417de4       0x54 build/default/production/_ext/1865468468/plib_nvic.o

.text.embeddedCliDefaultConfig%541
                0x00417e38       0x54
 .text.embeddedCliDefaultConfig
                0x00417e38       0x54 build/default/production/_ext/1422079320/embedded_cli.o
                0x00417e38                embeddedCliDefaultConfig

.text.fifoBufPush%542
                0x00417e8c       0x54
 .text.fifoBufPush
                0x00417e8c       0x54 build/default/production/_ext/1422079320/embedded_cli.o

.text.uxListRemove%543
                0x00417ee0       0x54
 .text.uxListRemove
                0x00417ee0       0x54 build/default/production/_ext/502845695/list.o
                0x00417ee0                uxListRemove

.text.Utils_SoftTime_Init%544
                0x00417f34       0x54
 .text.Utils_SoftTime_Init
                0x00417f34       0x54 build/default/production/_ext/697864676/date_time.o
                0x00417f34                Utils_SoftTime_Init

.text.CLI_Handle_Thread%545
                0x00417f88       0x54
 .text.CLI_Handle_Thread
                0x00417f88       0x54 build/default/production/_ext/30620426/app_cli.o

.text.App_LogTask%546
                0x00417fdc       0x54
 .text.App_LogTask
                0x00417fdc       0x54 build/default/production/_ext/1918720202/app_logging.o
                0x00417fdc                App_LogTask

.text.usbnet_netif_link_callback%547
                0x00418030       0x54
 .text.usbnet_netif_link_callback
                0x00418030       0x54 build/default/production/_ext/1389938436/app_network.o

.text.pbuf_pool_is_empty%548
                0x00418084       0x54
 .text.pbuf_pool_is_empty
                0x00418084       0x54 build/default/production/_ext/1264479574/pbuf.o

.text.pbuf_init_alloced_pbuf%549
                0x004180d8       0x54
 .text.pbuf_init_alloced_pbuf
                0x004180d8       0x54 build/default/production/_ext/1264479574/pbuf.o

.text.xmit_put_ntb_into_free_list%550
                0x0041812c       0x54
 .text.xmit_put_ntb_into_free_list
                0x0041812c       0x54 build/default/production/_ext/1439055959/ncm_device.o

.text.recv_get_free_ntb%551
                0x00418180       0x54
 .text.recv_get_free_ntb
                0x00418180       0x54 build/default/production/_ext/1439055959/ncm_device.o

.text.tud_network_recv_renew%552
                0x004181d4       0x54
 .text.tud_network_recv_renew
                0x004181d4       0x54 build/default/production/_ext/1439055959/ncm_device.o
                0x004181d4                tud_network_recv_renew

.rodata%553     0x00418228       0x53
 .rodata        0x00418228       0x53 build/default/production/_ext/249897560/boot_manager.o

.text.UART_TX_Callback%554
                0x0041827c       0x52
 .text.UART_TX_Callback
                0x0041827c       0x52 build/default/production/_ext/216470852/uart_irq.o

.text.ip4_output_if%555
                0x004182ce       0x52
 .text.ip4_output_if
                0x004182ce       0x52 build/default/production/_ext/1349076522/ip4.o
                0x004182ce                ip4_output_if

.text.strtox%556
                0x00418320       0x52
 .text.strtox   0x00418320       0x52 C:/Program Files/Microchip/xc32/v5.00/bin/bin/../../lib/gcc/pic32c/13.2.1/../../../../pic32c/lib/thumb/v7e-m+dp/hard\libc-musl.a(strtol.o)

.text.CLK_UTMIPLLInitialize%557
                0x00418374       0x50
 .text.CLK_UTMIPLLInitialize
                0x00418374       0x50 build/default/production/_ext/60165520/plib_clk.o

.text.BootManager_SystemInit%558
                0x004183c4       0x50
 .text.BootManager_SystemInit
                0x004183c4       0x50 build/default/production/_ext/249897560/boot_manager.o
                0x004183c4                BootManager_SystemInit

.text.vApplicationStackOverflowHook%559
                0x00418414       0x50
 .text.vApplicationStackOverflowHook
                0x00418414       0x50 build/default/production/_ext/1778509306/os.o
                0x00418414                vApplicationStackOverflowHook

.text.fifoBufPop%560
                0x00418464       0x50
 .text.fifoBufPop
                0x00418464       0x50 build/default/production/_ext/1422079320/embedded_cli.o

.text.App_AliveTask%561
                0x004184b4       0x50
 .text.App_AliveTask
                0x004184b4       0x50 build/default/production/_ext/1525186148/app_alive.o
                0x004184b4                App_AliveTask

.text.ip4_input_accept%562
                0x00418504       0x50
 .text.ip4_input_accept
                0x00418504       0x50 build/default/production/_ext/1349076522/ip4.o

.text.memp_init%563
                0x00418554       0x50
 .text.memp_init
                0x00418554       0x50 build/default/production/_ext/1264479574/memp.o
                0x00418554                memp_init

.text.tcp_recv_null%564
                0x004185a4       0x50
 .text.tcp_recv_null
                0x004185a4       0x50 build/default/production/_ext/1264479574/tcp.o
                0x004185a4                tcp_recv_null

.text.tud_network_link_state%565
                0x004185f4       0x50
 .text.tud_network_link_state
                0x004185f4       0x50 build/default/production/_ext/1439055959/ncm_device.o
                0x004185f4                tud_network_link_state

.text.printAlignedColumn%566
                0x00418644       0x4c
 .text.printAlignedColumn
                0x00418644       0x4c build/default/production/_ext/1422079320/embedded_cli.o

.text.UART_Driver_WriteByte%567
                0x00418690       0x4c
 .text.UART_Driver_WriteByte
                0x00418690       0x4c build/default/production/_ext/216470852/uart_irq.o
                0x00418690                UART_Driver_WriteByte

.text.prvCopyDataFromQueue%568
                0x004186dc       0x4c
 .text.prvCopyDataFromQueue
                0x004186dc       0x4c build/default/production/_ext/502845695/queue.o

.text.vTaskPlaceOnEventList%569
                0x00418728       0x4c
 .text.vTaskPlaceOnEventList
                0x00418728       0x4c build/default/production/_ext/502845695/tasks.o
                0x00418728                vTaskPlaceOnEventList

.text.prvSwitchTimerLists%570
                0x00418774       0x4c
 .text.prvSwitchTimerLists
                0x00418774       0x4c build/default/production/_ext/502845695/timers.o

.text.netif_init_cb%571
                0x004187c0       0x4c
 .text.netif_init_cb
                0x004187c0       0x4c build/default/production/_ext/1389938436/app_network.o

.text.netif_set_link_up%572
                0x0041880c       0x4c
 .text.netif_set_link_up
                0x0041880c       0x4c build/default/production/_ext/1264479574/netif.o
                0x0041880c                netif_set_link_up

.text.pbuf_free_ooseq%573
                0x00418858       0x4c
 .text.pbuf_free_ooseq
                0x00418858       0x4c build/default/production/_ext/1264479574/pbuf.o

.text.tcp_handle_closepend%574
                0x004188a4       0x4c
 .text.tcp_handle_closepend
                0x004188a4       0x4c build/default/production/_ext/1264479574/tcp.o

.text.advance_index%575
                0x004188f0       0x4c
 .text.advance_index
                0x004188f0       0x4c build/default/production/_ext/761407912/tusb_fifo.o

.text.dcd_edpt_stall%576
                0x0041893c       0x4c
 .text.dcd_edpt_stall
                0x0041893c       0x4c build/default/production/_ext/2093936272/dcd_samx7x.o
                0x0041893c                dcd_edpt_stall

.text.dcd_edpt_clear_stall%577
                0x00418988       0x4c
 .text.dcd_edpt_clear_stall
                0x00418988       0x4c build/default/production/_ext/2093936272/dcd_samx7x.o
                0x00418988                dcd_edpt_clear_stall

.text.__toread%578
                0x004189d4       0x4a
 .text.__toread
                0x004189d4       0x4a C:/Program Files/Microchip/xc32/v5.00/bin/bin/../../lib/gcc/pic32c/13.2.1/../../../../pic32c/lib/thumb/v7e-m+dp/hard\libc-musl.a(__toread.o)
                0x004189d4                __toread

.text.__NVIC_SetPriorityGrouping%579
                0x00418a20       0x48
 .text.__NVIC_SetPriorityGrouping
                0x00418a20       0x48 build/default/production/_ext/1865468468/plib_nvic.o

.text.BootManager_SystemStart%580
                0x00418a68       0x48
 .text.BootManager_SystemStart
                0x00418a68       0x48 build/default/production/_ext/249897560/boot_manager.o
                0x00418a68                BootManager_SystemStart

.text.fnv1a32%581
                0x00418ab0       0x48
 .text.fnv1a32  0x00418ab0       0x48 build/default/production/_ext/1134253236/simple_shield.o

.text.findCategoryIndex%582
                0x00418af8       0x48
 .text.findCategoryIndex
                0x00418af8       0x48 build/default/production/_ext/1422079320/embedded_cli.o

.text.UART_Driver_Get%583
                0x00418b40       0x48
 .text.UART_Driver_Get
                0x00418b40       0x48 build/default/production/_ext/216470852/uart_irq.o

.text.SysTick_Handler%584
                0x00418b88       0x48
 .text.SysTick_Handler
                0x00418b88       0x48 build/default/production/_ext/1908456078/port.o
                0x00418b88                SysTick_Handler

.text.vListInsertEnd%585
                0x00418bd0       0x48
 .text.vListInsertEnd
                0x00418bd0       0x48 build/default/production/_ext/502845695/list.o
                0x00418bd0                vListInsertEnd

.text.xTaskCreateStatic%586
                0x00418c18       0x48
 .text.xTaskCreateStatic
                0x00418c18       0x48 build/default/production/_ext/502845695/tasks.o
                0x00418c18                xTaskCreateStatic

.text.prvGetNextExpireTime%587
                0x00418c60       0x48
 .text.prvGetNextExpireTime
                0x00418c60       0x48 build/default/production/_ext/502845695/timers.o

.text.xlog_Init%588
                0x00418ca8       0x48
 .text.xlog_Init
                0x00418ca8       0x48 build/default/production/_ext/751336192/xlog.o
                0x00418ca8                xlog_Init

.text.tcpip_tcp_timer%589
                0x00418cf0       0x48
 .text.tcpip_tcp_timer
                0x00418cf0       0x48 build/default/production/_ext/1264479574/timeouts.o

.text.recv_put_ntb_into_ready_list%590
                0x00418d38       0x48
 .text.recv_put_ntb_into_ready_list
                0x00418d38       0x48 build/default/production/_ext/1439055959/ncm_device.o

.text.__NVIC_DisableIRQ%591
                0x00418d80       0x48
 .text.__NVIC_DisableIRQ
                0x00418d80       0x48 build/default/production/_ext/2093936272/dcd_samx7x.o

.text.atoi%592  0x00418dc8       0x48
 .text.atoi     0x00418dc8       0x48 C:/Program Files/Microchip/xc32/v5.00/bin/bin/../../lib/gcc/pic32c/13.2.1/../../../../pic32c/lib/thumb/v7e-m+dp/hard\libc-musl.a(atoi.o)
                0x00418dc8                atoi

.text.embeddedCliReceiveChar%593
                0x00418e10       0x46
 .text.embeddedCliReceiveChar
                0x00418e10       0x46 build/default/production/_ext/1422079320/embedded_cli.o
                0x00418e10                embeddedCliReceiveChar

.text.prvInitialiseNewQueue%594
                0x00418e56       0x46
 .text.prvInitialiseNewQueue
                0x00418e56       0x46 build/default/production/_ext/502845695/queue.o

.text.xTaskCreate%595
                0x00418e9c       0x46
 .text.xTaskCreate
                0x00418e9c       0x46 build/default/production/_ext/502845695/tasks.o
                0x00418e9c                xTaskCreate

.text.SYS_Initialize%596
                0x00418ee4       0x44
 .text.SYS_Initialize
                0x00418ee4       0x44 build/default/production/_ext/1171490990/initialization.o
                0x00418ee4                SYS_Initialize

.text.onUnknownCommand%597
                0x00418f28       0x44
 .text.onUnknownCommand
                0x00418f28       0x44 build/default/production/_ext/1422079320/embedded_cli.o

.text.tcp_server_err%598
                0x00418f6c       0x44
 .text.tcp_server_err
                0x00418f6c       0x44 build/default/production/_ext/1389938436/app_network.o

.text.netif_get_by_index%599
                0x00418fb0       0x44
 .text.netif_get_by_index
                0x00418fb0       0x44 build/default/production/_ext/1264479574/netif.o
                0x00418fb0                netif_get_by_index

.text.tcp_netif_ip_addr_changed_pcblist%600
                0x00418ff4       0x44
 .text.tcp_netif_ip_addr_changed_pcblist
                0x00418ff4       0x44 build/default/production/_ext/1264479574/tcp.o

.text.sys_timeouts_init%601
                0x00419038       0x44
 .text.sys_timeouts_init
                0x00419038       0x44 build/default/production/_ext/1264479574/timeouts.o
                0x00419038                sys_timeouts_init

.text.xmit_put_ntb_into_ready_list%602
                0x0041907c       0x44
 .text.xmit_put_ntb_into_ready_list
                0x0041907c       0x44 build/default/production/_ext/1439055959/ncm_device.o

.text.recv_put_ntb_into_free_list%603
                0x004190c0       0x44
 .text.recv_put_ntb_into_free_list
                0x004190c0       0x44 build/default/production/_ext/1439055959/ncm_device.o

.text.sys_mbox_trypost%604
                0x00419104       0x44
 .text.sys_mbox_trypost
                0x00419104       0x44 build/default/production/_ext/1017385999/sys_arch.o
                0x00419104                sys_mbox_trypost

.text.writeToOutput%605
                0x00419148       0x42
 .text.writeToOutput
                0x00419148       0x42 build/default/production/_ext/1422079320/embedded_cli.o

.text.fifoBufAvailable%606
                0x0041918a       0x42
 .text.fifoBufAvailable
                0x0041918a       0x42 build/default/production/_ext/1422079320/embedded_cli.o

.text.UART_Driver_ReadByte%607
                0x004191cc       0x42
 .text.UART_Driver_ReadByte
                0x004191cc       0x42 build/default/production/_ext/216470852/uart_irq.o
                0x004191cc                UART_Driver_ReadByte

.text.prvReloadTimer%608
                0x0041920e       0x42
 .text.prvReloadTimer
                0x0041920e       0x42 build/default/production/_ext/502845695/timers.o

.text.pbuf_alloc_reference%609
                0x00419250       0x42
 .text.pbuf_alloc_reference
                0x00419250       0x42 build/default/production/_ext/1264479574/pbuf.o
                0x00419250                pbuf_alloc_reference

.text.pbuf_header_impl%610
                0x00419292       0x42
 .text.pbuf_header_impl
                0x00419292       0x42 build/default/production/_ext/1264479574/pbuf.o

.text%611       0x004192d4       0x40
 .text          0x004192d4       0x40 C:/Program Files/Microchip/xc32/v5.00/bin/bin/../../lib/gcc/pic32c/13.2.1/thumb/v7e-m+dp/hard/crtbegin.o

.text.SYSTICK_TimerInitialize%612
                0x00419314       0x40
 .text.SYSTICK_TimerInitialize
                0x00419314       0x40 build/default/production/_ext/1827571544/plib_systick.o
                0x00419314                SYSTICK_TimerInitialize

.text.TC3_CH0_InterruptHandler%613
                0x00419354       0x40
 .text.TC3_CH0_InterruptHandler
                0x00419354       0x40 build/default/production/_ext/829342655/plib_tc3.o
                0x00419354                TC3_CH0_InterruptHandler

.text.hash_equal%614
                0x00419394       0x40
 .text.hash_equal
                0x00419394       0x40 build/default/production/_ext/1134253236/simple_shield.o

.text.printBindingHelp%615
                0x004193d4       0x40
 .text.printBindingHelp
                0x004193d4       0x40 build/default/production/_ext/1422079320/embedded_cli.o

.text.isControlChar%616
                0x00419414       0x40
 .text.isControlChar
                0x00419414       0x40 build/default/production/_ext/1422079320/embedded_cli.o

.text.vListInitialise%617
                0x00419454       0x40
 .text.vListInitialise
                0x00419454       0x40 build/default/production/_ext/502845695/list.o
                0x00419454                vListInitialise

.text.uxQueueMessagesWaiting%618
                0x00419494       0x40
 .text.uxQueueMessagesWaiting
                0x00419494       0x40 build/default/production/_ext/502845695/queue.o
                0x00419494                uxQueueMessagesWaiting

.text.prvBytesInBuffer%619
                0x004194d4       0x40
 .text.prvBytesInBuffer
                0x004194d4       0x40 build/default/production/_ext/502845695/stream_buffer.o

.text.prvSampleTimeNow%620
                0x00419514       0x40
 .text.prvSampleTimeNow
                0x00419514       0x40 build/default/production/_ext/502845695/timers.o

.text.Utils_SetEpoch%621
                0x00419554       0x40
 .text.Utils_SetEpoch
                0x00419554       0x40 build/default/production/_ext/697864676/date_time.o
                0x00419554                Utils_SetEpoch

.text.get_available_space%622
                0x00419594       0x40
 .text.get_available_space
                0x00419594       0x40 build/default/production/_ext/1798135708/dmesg.o

.text.etharp_request_dst%623
                0x004195d4       0x40
 .text.etharp_request_dst
                0x004195d4       0x40 build/default/production/_ext/1349076522/etharp.o

.text.do_memp_free_pool%624
                0x00419614       0x40
 .text.do_memp_free_pool
                0x00419614       0x40 build/default/production/_ext/1264479574/memp.o

.text.pbuf_clone%625
                0x00419654       0x40
 .text.pbuf_clone
                0x00419654       0x40 build/default/production/_ext/1264479574/pbuf.o
                0x00419654                pbuf_clone

.text.tcp_timer_needed%626
                0x00419694       0x40
 .text.tcp_timer_needed
                0x00419694       0x40 build/default/production/_ext/1264479574/timeouts.o
                0x00419694                tcp_timer_needed

.text.correct_read_index%627
                0x004196d4       0x40
 .text.correct_read_index
                0x004196d4       0x40 build/default/production/_ext/761407912/tusb_fifo.o

.text.tud_control_status%628
                0x00419714       0x40
 .text.tud_control_status
                0x00419714       0x40 build/default/production/_ext/781065747/usbd_control.o
                0x00419714                tud_control_status

.text.dcd_set_address%629
                0x00419754       0x40
 .text.dcd_set_address
                0x00419754       0x40 build/default/production/_ext/2093936272/dcd_samx7x.o
                0x00419754                dcd_set_address

.text.memmove%630
                0x00419794       0x40
 .text.memmove  0x00419794       0x40 C:/Program Files/Microchip/xc32/v5.00/bin/bin/../../lib/gcc/pic32c/13.2.1/../../../../pic32c/lib/thumb/v7e-m+dp/hard\libc-size-musl.a(memmove.o)
                0x00419794                memmove

.text.stpncpy%631
                0x004197d4       0x40
 .text.stpncpy  0x004197d4       0x40 C:/Program Files/Microchip/xc32/v5.00/bin/bin/../../lib/gcc/pic32c/13.2.1/../../../../pic32c/lib/thumb/v7e-m+dp/hard\libc-size-musl.a(stpncpy.o)
                0x004197d4                __stpncpy
                0x004197d4                stpncpy

.text.netif_do_set_netmask%632
                0x00419814       0x3e
 .text.netif_do_set_netmask
                0x00419814       0x3e build/default/production/_ext/1264479574/netif.o

.text.netif_do_set_gw%633
                0x00419852       0x3e
 .text.netif_do_set_gw
                0x00419852       0x3e build/default/production/_ext/1264479574/netif.o

.text.CLK_ProgrammableClockInitialize%634
                0x00419890       0x3c
 .text.CLK_ProgrammableClockInitialize
                0x00419890       0x3c build/default/production/_ext/60165520/plib_clk.o

.text.CLOCK_Initialize%635
                0x004198cc       0x3c
 .text.CLOCK_Initialize
                0x004198cc       0x3c build/default/production/_ext/60165520/plib_clk.o
                0x004198cc                CLOCK_Initialize

.text.__NVIC_EnableIRQ%636
                0x00419908       0x3c
 .text.__NVIC_EnableIRQ
                0x00419908       0x3c build/default/production/_ext/1865468468/plib_nvic.o

.text.xTaskGetSchedulerState%637
                0x00419944       0x3c
 .text.xTaskGetSchedulerState
                0x00419944       0x3c build/default/production/_ext/502845695/tasks.o
                0x00419944                xTaskGetSchedulerState

.text.getMaxDays%638
                0x00419980       0x3c
 .text.getMaxDays
                0x00419980       0x3c build/default/production/_ext/697864676/date_time.o

.text.ip_reass_dequeue_datagram%639
                0x004199bc       0x3c
 .text.ip_reass_dequeue_datagram
                0x004199bc       0x3c build/default/production/_ext/1349076522/ip4_frag.o

.text.tcp_listen_closed%640
                0x004199f8       0x3c
 .text.tcp_listen_closed
                0x004199f8       0x3c build/default/production/_ext/1264479574/tcp.o

.text.tcp_close%641
                0x00419a34       0x3c
 .text.tcp_close
                0x00419a34       0x3c build/default/production/_ext/1264479574/tcp.o
                0x00419a34                tcp_close

.text.status_stage_xact%642
                0x00419a70       0x3c
 .text.status_stage_xact
                0x00419a70       0x3c build/default/production/_ext/781065747/usbd_control.o

.text.__NVIC_EnableIRQ%643
                0x00419aac       0x3c
 .text.__NVIC_EnableIRQ
                0x00419aac       0x3c build/default/production/_ext/2093936272/dcd_samx7x.o

.text.tcp_remove_listener%644
                0x00419ae8       0x3a
 .text.tcp_remove_listener
                0x00419ae8       0x3a build/default/production/_ext/1264479574/tcp.o

.text.historyGet%645
                0x00419b22       0x38
 .text.historyGet
                0x00419b22       0x38 build/default/production/_ext/1422079320/embedded_cli.o

.text.vPortSetupTimerInterrupt%646
                0x00419b5c       0x38
 .text.vPortSetupTimerInterrupt
                0x00419b5c       0x38 build/default/production/_ext/1908456078/port.o
                0x00419b5c                vPortSetupTimerInterrupt

.text.prvResetNextTaskUnblockTime%647
                0x00419b94       0x38
 .text.prvResetNextTaskUnblockTime
                0x00419b94       0x38 build/default/production/_ext/502845695/tasks.o

.text.App_USBTask%648
                0x00419bcc       0x38
 .text.App_USBTask
                0x00419bcc       0x38 build/default/production/_ext/30602918/app_usb.o
                0x00419bcc                App_USBTask

.text.memp_free%649
                0x00419c04       0x38
 .text.memp_free
                0x00419c04       0x38 build/default/production/_ext/1264479574/memp.o
                0x00419c04                memp_free

.text.tcp_seg_copy%650
                0x00419c3c       0x38
 .text.tcp_seg_copy
                0x00419c3c       0x38 build/default/production/_ext/1264479574/tcp.o
                0x00419c3c                tcp_seg_copy

.text.tcp_route%651
                0x00419c74       0x38
 .text.tcp_route
                0x00419c74       0x38 build/default/production/_ext/1264479574/tcp_out.o

.text.__fmt_state%652
                0x00419cac       0x38
 .text.__fmt_state
                0x00419cac       0x38 C:/Program Files/Microchip/xc32/v5.00/bin/bin/../../lib/gcc/pic32c/13.2.1/../../../../pic32c/lib/thumb/v7e-m+dp/hard\libc-musl.a(__printf_core.o)
                0x00419cac                __fmt_state

.text.embeddedCliGetToken%653
                0x00419ce4       0x36
 .text.embeddedCliGetToken
                0x00419ce4       0x36 build/default/production/_ext/1422079320/embedded_cli.o
                0x00419ce4                embeddedCliGetToken

.text.embeddedCliGetTokenVariable%654
                0x00419d1a       0x36
 .text.embeddedCliGetTokenVariable
                0x00419d1a       0x36 build/default/production/_ext/1422079320/embedded_cli.o
                0x00419d1a                embeddedCliGetTokenVariable

.text.xQueueCreateMutexStatic%655
                0x00419d50       0x36
 .text.xQueueCreateMutexStatic
                0x00419d50       0x36 build/default/production/_ext/502845695/queue.o
                0x00419d50                xQueueCreateMutexStatic

.text.prvTaskCheckFreeStackSpace%656
                0x00419d86       0x36
 .text.prvTaskCheckFreeStackSpace
                0x00419d86       0x36 build/default/production/_ext/502845695/tasks.o

.text.TC3_CH0_TimerInitialize%657
                0x00419dbc       0x34
 .text.TC3_CH0_TimerInitialize
                0x00419dbc       0x34 build/default/production/_ext/829342655/plib_tc3.o
                0x00419dbc                TC3_CH0_TimerInitialize

.text.CMD_ClearCLI%658
                0x00419df0       0x34
 .text.CMD_ClearCLI
                0x00419df0       0x34 build/default/production/_ext/667517761/cli_command.o

.text.prvInitialiseMutex%659
                0x00419e24       0x34
 .text.prvInitialiseMutex
                0x00419e24       0x34 build/default/production/_ext/502845695/queue.o

.text.vApplicationGetIdleTaskMemory%660
                0x00419e58       0x34
 .text.vApplicationGetIdleTaskMemory
                0x00419e58       0x34 build/default/production/_ext/502845695/tasks.o
                0x00419e58                vApplicationGetIdleTaskMemory

.text.vApplicationGetTimerTaskMemory%661
                0x00419e8c       0x34
 .text.vApplicationGetTimerTaskMemory
                0x00419e8c       0x34 build/default/production/_ext/502845695/tasks.o
                0x00419e8c                vApplicationGetTimerTaskMemory

.text.board_get_unique_id%662
                0x00419ec0       0x34
 .text.board_get_unique_id
                0x00419ec0       0x34 build/default/production/_ext/783082040/board_api.o
                0x00419ec0                board_get_unique_id

.text.memp_malloc%663
                0x00419ef4       0x34
 .text.memp_malloc
                0x00419ef4       0x34 build/default/production/_ext/1264479574/memp.o
                0x00419ef4                memp_malloc

.text.usbd_control_set_request%664
                0x00419f28       0x34
 .text.usbd_control_set_request
                0x00419f28       0x34 build/default/production/_ext/781065747/usbd_control.o
                0x00419f28                usbd_control_set_request

.text.get_speed%665
                0x00419f5c       0x34
 .text.get_speed
                0x00419f5c       0x34 build/default/production/_ext/2093936272/dcd_samx7x.o

.text.__pic32c_data_initialization%666
                0x00419f90       0x34
 .text.__pic32c_data_initialization
                0x00419f90       0x34 C:/Program Files/Microchip/xc32/v5.00/bin/bin/../../lib/gcc/pic32c/13.2.1/../../../../pic32c/lib/thumb/v7e-m+dp/hard\libpic32c.a(data_init.o)
                0x00419f90                __pic32c_data_initialization

.text.lwip_htonl%667
                0x00419fc4       0x32
 .text.lwip_htonl
                0x00419fc4       0x32 build/default/production/_ext/1264479574/def.o
                0x00419fc4                lwip_htonl

.text.lwip_init%668
                0x00419ff6       0x32
 .text.lwip_init
                0x00419ff6       0x32 build/default/production/_ext/1264479574/init.o
                0x00419ff6                lwip_init

.text.tcp_output_fill_options%669
                0x0041a028       0x32
 .text.tcp_output_fill_options
                0x0041a028       0x32 build/default/production/_ext/1264479574/tcp_out.o

.text.TCM_Disable%670
                0x0041a05c       0x30
 .text.TCM_Disable
                0x0041a05c       0x30 build/default/production/_ext/1171490990/startup_xc32.o

.text.vApplicationMallocFailedHook%671
                0x0041a08c       0x30
 .text.vApplicationMallocFailedHook
                0x0041a08c       0x30 build/default/production/_ext/1778509306/os.o
                0x0041a08c                vApplicationMallocFailedHook

.text.UART_Driver_SendString%672
                0x0041a0bc       0x30
 .text.UART_Driver_SendString
                0x0041a0bc       0x30 build/default/production/_ext/216470852/uart_irq.o
                0x0041a0bc                UART_Driver_SendString

.text.xQueueCreateMutex%673
                0x0041a0ec       0x30
 .text.xQueueCreateMutex
                0x0041a0ec       0x30 build/default/production/_ext/502845695/queue.o
                0x0041a0ec                xQueueCreateMutex

.text.prvGetDisinheritPriorityAfterTimeout%674
                0x0041a11c       0x30
 .text.prvGetDisinheritPriorityAfterTimeout
                0x0041a11c       0x30 build/default/production/_ext/502845695/queue.o

.text.prvIsQueueFull%675
                0x0041a14c       0x30
 .text.prvIsQueueFull
                0x0041a14c       0x30 build/default/production/_ext/502845695/queue.o

.text.prvIdleTask%676
                0x0041a17c       0x30
 .text.prvIdleTask
                0x0041a17c       0x30 build/default/production/_ext/502845695/tasks.o

.text.pvTaskIncrementMutexHeldCount%677
                0x0041a1ac       0x30
 .text.pvTaskIncrementMutexHeldCount
                0x0041a1ac       0x30 build/default/production/_ext/502845695/tasks.o
                0x0041a1ac                pvTaskIncrementMutexHeldCount

.rodata.memp_pools%678
                0x0041a1dc       0x30
 .rodata.memp_pools
                0x0041a1dc       0x30 build/default/production/_ext/1264479574/memp.o
                0x0041a1dc                memp_pools

.text.tcp_seg_free%679
                0x0041a20c       0x30
 .text.tcp_seg_free
                0x0041a20c       0x30 build/default/production/_ext/1264479574/tcp.o
                0x0041a20c                tcp_seg_free

.text.tcp_next_iss%680
                0x0041a23c       0x30
 .text.tcp_next_iss
                0x0041a23c       0x30 build/default/production/_ext/1264479574/tcp.o
                0x0041a23c                tcp_next_iss

.text.tcp_rexmit_rto_commit%681
                0x0041a26c       0x30
 .text.tcp_rexmit_rto_commit
                0x0041a26c       0x30 build/default/production/_ext/1264479574/tcp_out.o
                0x0041a26c                tcp_rexmit_rto_commit

.text%682       0x0041a29c       0x30
 .text          0x0041a29c       0x30 C:/Program Files/Microchip/xc32/v5.00/bin/bin/../../lib/gcc/pic32c/13.2.1/thumb/v7e-m+dp/hard\libgcc.a(_aeabi_uldivmod.o)
                0x0041a29c                __aeabi_uldivmod

.text.Shield_WriteString%683
                0x0041a2cc       0x2e
 .text.Shield_WriteString
                0x0041a2cc       0x2e build/default/production/_ext/1134253236/simple_shield.o
                0x0041a2cc                Shield_WriteString

.text.isDisplayableChar%684
                0x0041a2fa       0x2e
 .text.isDisplayableChar
                0x0041a2fa       0x2e build/default/production/_ext/1422079320/embedded_cli.o

.text.pbuf_clen%685
                0x0041a328       0x2e
 .text.pbuf_clen
                0x0041a328       0x2e build/default/production/_ext/1264479574/pbuf.o
                0x0041a328                pbuf_clen

.text.pbuf_ref%686
                0x0041a356       0x2e
 .text.pbuf_ref
                0x0041a356       0x2e build/default/production/_ext/1264479574/pbuf.o
                0x0041a356                pbuf_ref

.text.tcp_accept%687
                0x0041a384       0x2e
 .text.tcp_accept
                0x0041a384       0x2e build/default/production/_ext/1264479574/tcp.o
                0x0041a384                tcp_accept

.text.invoke_class_control%688
                0x0041a3b2       0x2e
 .text.invoke_class_control
                0x0041a3b2       0x2e build/default/production/_ext/781065747/usbd.o

.text.CLK_PLLAInitialize%689
                0x0041a3e0       0x2c
 .text.CLK_PLLAInitialize
                0x0041a3e0       0x2c build/default/production/_ext/60165520/plib_clk.o

.text.verify_password%690
                0x0041a40c       0x2c
 .text.verify_password
                0x0041a40c       0x2c build/default/production/_ext/1134253236/simple_shield.o
                0x0041a40c                verify_password

.text.__NVIC_SystemReset%691
                0x0041a438       0x2c
 .text.__NVIC_SystemReset
                0x0041a438       0x2c build/default/production/_ext/667517761/cli_command.o

.text.writeCharToCli_Net%692
                0x0041a464       0x2c
 .text.writeCharToCli_Net
                0x0041a464       0x2c build/default/production/_ext/818259185/cli_setup.o

.text.prvPortStartFirstTask%693
                0x0041a490       0x2c
 .text.prvPortStartFirstTask
                0x0041a490       0x2c build/default/production/_ext/1908456078/port.o

.text.prvIsQueueEmpty%694
                0x0041a4bc       0x2c
 .text.prvIsQueueEmpty
                0x0041a4bc       0x2c build/default/production/_ext/502845695/queue.o

.text.vTaskInternalSetTimeOutState%695
                0x0041a4e8       0x2c
 .text.vTaskInternalSetTimeOutState
                0x0041a4e8       0x2c build/default/production/_ext/502845695/tasks.o
                0x0041a4e8                vTaskInternalSetTimeOutState

.text.Utils_GetRTC%696
                0x0041a514       0x2c
 .text.Utils_GetRTC
                0x0041a514       0x2c build/default/production/_ext/697864676/date_time.o
                0x0041a514                Utils_GetRTC

.text.Utils_SetRTC%697
                0x0041a540       0x2c
 .text.Utils_SetRTC
                0x0041a540       0x2c build/default/production/_ext/697864676/date_time.o
                0x0041a540                Utils_SetRTC

.text.App_CLITask%698
                0x0041a56c       0x2c
 .text.App_CLITask
                0x0041a56c       0x2c build/default/production/_ext/30620426/app_cli.o
                0x0041a56c                App_CLITask

.text.Network_CLI_Tx_Wrapper%699
                0x0041a598       0x2c
 .text.Network_CLI_Tx_Wrapper
                0x0041a598       0x2c build/default/production/_ext/1389938436/app_network.o

.text.lwip_htons%700
                0x0041a5c4       0x2c
 .text.lwip_htons
                0x0041a5c4       0x2c build/default/production/_ext/1264479574/def.o
                0x0041a5c4                lwip_htons

.text.ip_chksum_pseudo%701
                0x0041a5f0       0x2c
 .text.ip_chksum_pseudo
                0x0041a5f0       0x2c build/default/production/_ext/1264479574/inet_chksum.o
                0x0041a5f0                ip_chksum_pseudo

.text.ipfrag_free_pbuf_custom%702
                0x0041a61c       0x2c
 .text.ipfrag_free_pbuf_custom
                0x0041a61c       0x2c build/default/production/_ext/1349076522/ip4_frag.o

.text.tcp_tmr%703
                0x0041a648       0x2c
 .text.tcp_tmr  0x0041a648       0x2c build/default/production/_ext/1264479574/tcp.o
                0x0041a648                tcp_tmr

.text.tcp_poll%704
                0x0041a674       0x2c
 .text.tcp_poll
                0x0041a674       0x2c build/default/production/_ext/1264479574/tcp.o
                0x0041a674                tcp_poll

.text.tud_network_xmit_cb%705
                0x0041a6a0       0x2a
 .text.tud_network_xmit_cb
                0x0041a6a0       0x2a build/default/production/_ext/1389938436/app_network.o
                0x0041a6a0                tud_network_xmit_cb

.text.netif_do_ip_addr_changed%706
                0x0041a6ca       0x2a
 .text.netif_do_ip_addr_changed
                0x0041a6ca       0x2a build/default/production/_ext/1264479574/netif.o

.text.tcp_segs_free%707
                0x0041a6f4       0x2a
 .text.tcp_segs_free
                0x0041a6f4       0x2a build/default/production/_ext/1264479574/tcp.o
                0x0041a6f4                tcp_segs_free

.text.sys_timeout%708
                0x0041a71e       0x2a
 .text.sys_timeout
                0x0041a71e       0x2a build/default/production/_ext/1264479574/timeouts.o
                0x0041a71e                sys_timeout

.text.__pop_float%709
                0x0041a748       0x2a
 .text.__pop_float
                0x0041a748       0x2a C:/Program Files/Microchip/xc32/v5.00/bin/bin/../../lib/gcc/pic32c/13.2.1/../../../../pic32c/lib/thumb/v7e-m+dp/hard\libc-musl.a(__pop_float.o)
                0x0041a748                __pop_float_needed
                0x0041a748                __pop_float

.text.SYSTICK_TimerCallbackSet%710
                0x0041a774       0x28
 .text.SYSTICK_TimerCallbackSet
                0x0041a774       0x28 build/default/production/_ext/1827571544/plib_systick.o
                0x0041a774                SYSTICK_TimerCallbackSet

.text.TC3_CH0_TimerCallbackRegister%711
                0x0041a79c       0x28
 .text.TC3_CH0_TimerCallbackRegister
                0x0041a79c       0x28 build/default/production/_ext/829342655/plib_tc3.o
                0x0041a79c                TC3_CH0_TimerCallbackRegister

.text.UART2_WriteCallbackRegister%712
                0x0041a7c4       0x28
 .text.UART2_WriteCallbackRegister
                0x0041a7c4       0x28 build/default/production/_ext/1865657120/plib_uart2.o
                0x0041a7c4                UART2_WriteCallbackRegister

.text.UART2_ReadCallbackRegister%713
                0x0041a7ec       0x28
 .text.UART2_ReadCallbackRegister
                0x0041a7ec       0x28 build/default/production/_ext/1865657120/plib_uart2.o
                0x0041a7ec                UART2_ReadCallbackRegister

.text.FPU_Enable%714
                0x0041a814       0x28
 .text.FPU_Enable
                0x0041a814       0x28 build/default/production/_ext/1171490990/startup_xc32.o

.text.osRootTask%715
                0x0041a83c       0x28
 .text.osRootTask
                0x0041a83c       0x28 build/default/production/_ext/1778509306/os.o

.text.verify_user_password%716
                0x0041a864       0x28
 .text.verify_user_password
                0x0041a864       0x28 build/default/production/_ext/1134253236/simple_shield.o

.text.writeCharToCli_UART2%717
                0x0041a88c       0x28
 .text.writeCharToCli_UART2
                0x0041a88c       0x28 build/default/production/_ext/818259185/cli_setup.o

.text.SVCall_Handler%718
                0x0041a8c0       0x28
 .text.SVCall_Handler
                0x0041a8c0       0x28 build/default/production/_ext/1908456078/port.o
                0x0041a8c0                SVCall_Handler

.text.is_buffer_corrupted%719
                0x0041a8e8       0x28
 .text.is_buffer_corrupted
                0x0041a8e8       0x28 build/default/production/_ext/1798135708/dmesg.o

.text.tud_descriptor_configuration_cb%720
                0x0041a910       0x28
 .text.tud_descriptor_configuration_cb
                0x0041a910       0x28 build/default/production/_ext/783082040/usb_descriptors.o
                0x0041a910                tud_descriptor_configuration_cb

.text.tcp_free_ooseq%721
                0x0041a938       0x28
 .text.tcp_free_ooseq
                0x0041a938       0x28 build/default/production/_ext/1264479574/tcp.o
                0x0041a938                tcp_free_ooseq

.text.xmit_get_next_ready_ntb%722
                0x0041a960       0x28
 .text.xmit_get_next_ready_ntb
                0x0041a960       0x28 build/default/production/_ext/1439055959/ncm_device.o

.text.recv_get_next_ready_ntb%723
                0x0041a988       0x28
 .text.recv_get_next_ready_ntb
                0x0041a988       0x28 build/default/production/_ext/1439055959/ncm_device.o

.text.__uflow%724
                0x0041a9b0       0x28
 .text.__uflow  0x0041a9b0       0x28 C:/Program Files/Microchip/xc32/v5.00/bin/bin/../../lib/gcc/pic32c/13.2.1/../../../../pic32c/lib/thumb/v7e-m+dp/hard\libc-musl.a(__uflow.o)
                0x0041a9b0                __uflow

.text.__string_out%725
                0x0041a9d8       0x28
 .text.__string_out
                0x0041a9d8       0x28 C:/Program Files/Microchip/xc32/v5.00/bin/bin/../../lib/gcc/pic32c/13.2.1/../../../../pic32c/lib/thumb/v7e-m+dp/hard\libc-musl.a(__printf_core.o)
                0x0041a9d8                __out

.text.SYSTICK_TimerStart%726
                0x0041aa00       0x24
 .text.SYSTICK_TimerStart
                0x0041aa00       0x24 build/default/production/_ext/1827571544/plib_systick.o
                0x0041aa00                SYSTICK_TimerStart

.text.Shield_ResetTimer%727
                0x0041aa24       0x24
 .text.Shield_ResetTimer
                0x0041aa24       0x24 build/default/production/_ext/1134253236/simple_shield.o
                0x0041aa24                Shield_ResetTimer

.text.prvTimerTask%728
                0x0041aa48       0x24
 .text.prvTimerTask
                0x0041aa48       0x24 build/default/production/_ext/502845695/timers.o

.text.writeChar_auth_UART2%729
                0x0041aa6c       0x24
 .text.writeChar_auth_UART2
                0x0041aa6c       0x24 build/default/production/_ext/30620426/app_cli.o

.text.inet_chksum%730
                0x0041aa90       0x24
 .text.inet_chksum
                0x0041aa90       0x24 build/default/production/_ext/1264479574/inet_chksum.o
                0x0041aa90                inet_chksum

.text.etharp_request%731
                0x0041aab4       0x24
 .text.etharp_request
                0x0041aab4       0x24 build/default/production/_ext/1349076522/etharp.o
                0x0041aab4                etharp_request

.text.ptr_to_mem%732
                0x0041aad8       0x24
 .text.ptr_to_mem
                0x0041aad8       0x24 build/default/production/_ext/1264479574/mem.o

.text.mem_to_ptr%733
                0x0041aafc       0x24
 .text.mem_to_ptr
                0x0041aafc       0x24 build/default/production/_ext/1264479574/mem.o

.text.pbuf_header_force%734
                0x0041ab20       0x24
 .text.pbuf_header_force
                0x0041ab20       0x24 build/default/production/_ext/1264479574/pbuf.o
                0x0041ab20                pbuf_header_force

.text.tcp_recv%735
                0x0041ab44       0x24
 .text.tcp_recv
                0x0041ab44       0x24 build/default/production/_ext/1264479574/tcp.o
                0x0041ab44                tcp_recv

.text.tcp_err%736
                0x0041ab68       0x24
 .text.tcp_err  0x0041ab68       0x24 build/default/production/_ext/1264479574/tcp.o
                0x0041ab68                tcp_err

.text.tcp_output_segment_busy%737
                0x0041ab8c       0x24
 .text.tcp_output_segment_busy
                0x0041ab8c       0x24 build/default/production/_ext/1264479574/tcp_out.o

.rodata._usbd_driver%738
                0x0041abb0       0x24
 .rodata._usbd_driver
                0x0041abb0       0x24 build/default/production/_ext/781065747/usbd.o

.text.tud_suspended%739
                0x0041abd4       0x24
 .text.tud_suspended
                0x0041abd4       0x24 build/default/production/_ext/781065747/usbd.o
                0x0041abd4                tud_suspended

.text.netif_set_link_callback%740
                0x0041abf8       0x22
 .text.netif_set_link_callback
                0x0041abf8       0x22 build/default/production/_ext/1264479574/netif.o
                0x0041abf8                netif_set_link_callback

.text.tcp_listen_with_backlog%741
                0x0041ac1a       0x22
 .text.tcp_listen_with_backlog
                0x0041ac1a       0x22 build/default/production/_ext/1264479574/tcp.o
                0x0041ac1a                tcp_listen_with_backlog

.text.tcp_arg%742
                0x0041ac3c       0x22
 .text.tcp_arg  0x0041ac3c       0x22 build/default/production/_ext/1264479574/tcp.o
                0x0041ac3c                tcp_arg

.text.tcp_rexmit_rto%743
                0x0041ac5e       0x22
 .text.tcp_rexmit_rto
                0x0041ac5e       0x22 build/default/production/_ext/1264479574/tcp_out.o
                0x0041ac5e                tcp_rexmit_rto

.text.memcmp%744
                0x0041ac80       0x22
 .text.memcmp   0x0041ac80       0x22 C:/Program Files/Microchip/xc32/v5.00/bin/bin/../../lib/gcc/pic32c/13.2.1/../../../../pic32c/lib/thumb/v7e-m+dp/hard\libc-size-musl.a(memcmp.o)
                0x0041ac80                memcmp

.rodata%745     0x0041aca4       0x21
 .rodata        0x0041aca4       0x21 build/default/production/_ext/1525186148/app_alive.o

.rodata.desc_bos%746
                0x0041acc8       0x21
 .rodata.desc_bos
                0x0041acc8       0x21 build/default/production/_ext/783082040/usb_descriptors.o
                0x0041acc8                desc_bos

.text.CLK_USBClockInitialize%747
                0x0041acec       0x20
 .text.CLK_USBClockInitialize
                0x0041acec       0x20 build/default/production/_ext/60165520/plib_clk.o

.text.osRegisterRootInit%748
                0x0041ad0c       0x20
 .text.osRegisterRootInit
                0x0041ad0c       0x20 build/default/production/_ext/1778509306/os.o
                0x0041ad0c                osRegisterRootInit

.text.Cli_Net_Register_Tx%749
                0x0041ad2c       0x20
 .text.Cli_Net_Register_Tx
                0x0041ad2c       0x20 build/default/production/_ext/818259185/cli_setup.o
                0x0041ad2c                Cli_Net_Register_Tx

.text.xTaskGetTickCount%750
                0x0041ad4c       0x20
 .text.xTaskGetTickCount
                0x0041ad4c       0x20 build/default/production/_ext/502845695/tasks.o
                0x0041ad4c                xTaskGetTickCount

.text.xTaskGetCurrentTaskHandle%751
                0x0041ad6c       0x20
 .text.xTaskGetCurrentTaskHandle
                0x0041ad6c       0x20 build/default/production/_ext/502845695/tasks.o
                0x0041ad6c                xTaskGetCurrentTaskHandle

.text.ip4_output_fn%752
                0x0041ad8c       0x20
 .text.ip4_output_fn
                0x0041ad8c       0x20 build/default/production/_ext/1389938436/app_network.o

.text.icmp_dest_unreach%753
                0x0041adac       0x20
 .text.icmp_dest_unreach
                0x0041adac       0x20 build/default/production/_ext/1349076522/icmp.o
                0x0041adac                icmp_dest_unreach

.text.icmp_time_exceeded%754
                0x0041adcc       0x20
 .text.icmp_time_exceeded
                0x0041adcc       0x20 build/default/production/_ext/1349076522/icmp.o
                0x0041adcc                icmp_time_exceeded

.text.netif_set_default%755
                0x0041adec       0x20
 .text.netif_set_default
                0x0041adec       0x20 build/default/production/_ext/1264479574/netif.o
                0x0041adec                netif_set_default

.text.tcp_accept_null%756
                0x0041ae0c       0x20
 .text.tcp_accept_null
                0x0041ae0c       0x20 build/default/production/_ext/1264479574/tcp.o

.text.tcp_trigger_input_pcb_close%757
                0x0041ae2c       0x20
 .text.tcp_trigger_input_pcb_close
                0x0041ae2c       0x20 build/default/production/_ext/1264479574/tcp_in.o
                0x0041ae2c                tcp_trigger_input_pcb_close

.text.tud_network_recv_renew_r%758
                0x0041ae4c       0x20
 .text.tud_network_recv_renew_r
                0x0041ae4c       0x20 build/default/production/_ext/1439055959/ncm_device.o

.text.tud_mounted%759
                0x0041ae6c       0x20
 .text.tud_mounted
                0x0041ae6c       0x20 build/default/production/_ext/781065747/usbd.o
                0x0041ae6c                tud_mounted

.text.tud_inited%760
                0x0041ae8c       0x20
 .text.tud_inited
                0x0041ae8c       0x20 build/default/production/_ext/781065747/usbd.o
                0x0041ae8c                tud_inited

.text.usbd_control_set_complete_callback%761
                0x0041aeac       0x20
 .text.usbd_control_set_complete_callback
                0x0041aeac       0x20 build/default/production/_ext/781065747/usbd_control.o
                0x0041aeac                usbd_control_set_complete_callback

.text.sys_mutex_lock%762
                0x0041aecc       0x20
 .text.sys_mutex_lock
                0x0041aecc       0x20 build/default/production/_ext/1017385999/sys_arch.o
                0x0041aecc                sys_mutex_lock

.rodata.str1.1%763
                0x0041aeec       0x1f
 .rodata.str1.1
                0x0041aeec       0x1f C:/Program Files/Microchip/xc32/v5.00/bin/bin/../../lib/gcc/pic32c/13.2.1/../../../../pic32c/lib/thumb/v7e-m+dp/hard\libc-musl.a(__printf_core.o)
                                  0x8 (size before relaxing)

.text.pbuf_add_header%764
                0x0041af0c       0x1e
 .text.pbuf_add_header
                0x0041af0c       0x1e build/default/production/_ext/1264479574/pbuf.o
                0x0041af0c                pbuf_add_header

.text.usbd_reset%765
                0x0041af2a       0x1e
 .text.usbd_reset
                0x0041af2a       0x1e build/default/production/_ext/781065747/usbd.o

.text.dcd_init%766
                0x0041af48       0x1e
 .text.dcd_init
                0x0041af48       0x1e build/default/production/_ext/2093936272/dcd_samx7x.o
                0x0041af48                dcd_init

.text.__dinit_copy%767
                0x0041af66       0x1e
 .text.__dinit_copy
                0x0041af66       0x1e C:/Program Files/Microchip/xc32/v5.00/bin/bin/../../lib/gcc/pic32c/13.2.1/../../../../pic32c/lib/thumb/v7e-m+dp/hard\libpic32c.a(pic32_data_init_copy.o)
                0x0041af66                __dinit_copy_needed
                0x0041af66                __dinit_copy

.rodata%768     0x0041af84       0x1d
 .rodata        0x0041af84       0x1d build/default/production/_ext/818259185/cli_setup.o

.text.EFC_Initialize%769
                0x0041afa4       0x1c
 .text.EFC_Initialize
                0x0041afa4       0x1c build/default/production/_ext/60167248/plib_efc.o
                0x0041afa4                EFC_Initialize

.text.vTaskSuspendAll%770
                0x0041afc0       0x1c
 .text.vTaskSuspendAll
                0x0041afc0       0x1c build/default/production/_ext/502845695/tasks.o
                0x0041afc0                vTaskSuspendAll

.text.Utils_GetEpoch%771
                0x0041afdc       0x1c
 .text.Utils_GetEpoch
                0x0041afdc       0x1c build/default/production/_ext/697864676/date_time.o
                0x0041afdc                Utils_GetEpoch

.text.TickTimer_IRQHandler%772
                0x0041aff8       0x1c
 .text.TickTimer_IRQHandler
                0x0041aff8       0x1c build/default/production/_ext/1226835810/tick.o
                0x0041aff8                TickTimer_IRQHandler

.text.netif_null_output_ip4%773
                0x0041b014       0x1c
 .text.netif_null_output_ip4
                0x0041b014       0x1c build/default/production/_ext/1264479574/netif.o

.rodata.ntb_parameters%774
                0x0041b030       0x1c
 .rodata.ntb_parameters
                0x0041b030       0x1c build/default/production/_ext/1439055959/ncm_device.o

.text.tud_event_hook_cb%775
                0x0041b04c       0x1c
 .text.tud_event_hook_cb
                0x0041b04c       0x1c build/default/production/_ext/781065747/usbd.o
                0x0041b04c                tud_event_hook_cb

.text.usbd_app_driver_get_cb%776
                0x0041b068       0x1c
 .text.usbd_app_driver_get_cb
                0x0041b068       0x1c build/default/production/_ext/781065747/usbd.o
                0x0041b068                usbd_app_driver_get_cb

.text.dcd_sof_enable%777
                0x0041b084       0x1c
 .text.dcd_sof_enable
                0x0041b084       0x1c build/default/production/_ext/2093936272/dcd_samx7x.o
                0x0041b084                dcd_sof_enable

.text.sys_mutex_unlock%778
                0x0041b0a0       0x1c
 .text.sys_mutex_unlock
                0x0041b0a0       0x1c build/default/production/_ext/1017385999/sys_arch.o
                0x0041b0a0                sys_mutex_unlock

.text.vfprintf%779
                0x0041b0bc       0x1c
 .text.vfprintf
                0x0041b0bc       0x1c C:/Program Files/Microchip/xc32/v5.00/bin/bin/../../lib/gcc/pic32c/13.2.1/../../../../pic32c/lib/thumb/v7e-m+dp/hard\libc-musl.a(vfprintf.o)
                0x0041b0bc                vfprintf

.text.Shield_GetState%780
                0x0041b0d8       0x1a
 .text.Shield_GetState
                0x0041b0d8       0x1a build/default/production/_ext/1134253236/simple_shield.o
                0x0041b0d8                Shield_GetState

.text.vListInitialiseItem%781
                0x0041b0f2       0x1a
 .text.vListInitialiseItem
                0x0041b0f2       0x1a build/default/production/_ext/502845695/list.o
                0x0041b0f2                vListInitialiseItem

.text.snprintf%782
                0x0041b10c       0x1a
 .text.snprintf
                0x0041b10c       0x1a C:/Program Files/Microchip/xc32/v5.00/bin/bin/../../lib/gcc/pic32c/13.2.1/../../../../pic32c/lib/thumb/v7e-m+dp/hard\libc-musl.a(snprintf.o)
                0x0041b10c                snprintf

.text.sprintf%783
                0x0041b126       0x1a
 .text.sprintf  0x0041b126       0x1a C:/Program Files/Microchip/xc32/v5.00/bin/bin/../../lib/gcc/pic32c/13.2.1/../../../../pic32c/lib/thumb/v7e-m+dp/hard\libc-musl.a(sprintf.o)
                0x0041b126                sprintf

.text.TC3_CH0_TimerStart%784
                0x0041b140       0x18
 .text.TC3_CH0_TimerStart
                0x0041b140       0x18 build/default/production/_ext/829342655/plib_tc3.o
                0x0041b140                TC3_CH0_TimerStart

.text.get_UART2_CliPointer%785
                0x0041b158       0x18
 .text.get_UART2_CliPointer
                0x0041b158       0x18 build/default/production/_ext/818259185/cli_setup.o
                0x0041b158                get_UART2_CliPointer

.text.get_Net_CliPointer%786
                0x0041b170       0x18
 .text.get_Net_CliPointer
                0x0041b170       0x18 build/default/production/_ext/818259185/cli_setup.o
                0x0041b170                get_Net_CliPointer

.text.vPortEnableVFP%787
                0x0041b188       0x18
 .text.vPortEnableVFP
                0x0041b188       0x18 build/default/production/_ext/1908456078/port.o

.text.uxTaskGetNumberOfTasks%788
                0x0041b1a0       0x18
 .text.uxTaskGetNumberOfTasks
                0x0041b1a0       0x18 build/default/production/_ext/502845695/tasks.o
                0x0041b1a0                uxTaskGetNumberOfTasks

.text.vTaskMissedYield%789
                0x0041b1b8       0x18
 .text.vTaskMissedYield
                0x0041b1b8       0x18 build/default/production/_ext/502845695/tasks.o
                0x0041b1b8                vTaskMissedYield

.text.Utils_GetTick%790
                0x0041b1d0       0x18
 .text.Utils_GetTick
                0x0041b1d0       0x18 build/default/production/_ext/1226835810/tick.o
                0x0041b1d0                Utils_GetTick

.text.App_Start%791
                0x0041b1e8       0x18
 .text.App_Start
                0x0041b1e8       0x18 build/default/production/_ext/1026660007/app_root.o
                0x0041b1e8                App_Start

.text.ip_frag_free_pbuf_custom_ref%792
                0x0041b200       0x18
 .text.ip_frag_free_pbuf_custom_ref
                0x0041b200       0x18 build/default/production/_ext/1349076522/ip4_frag.o

.text.tcp_free%793
                0x0041b218       0x18
 .text.tcp_free
                0x0041b218       0x18 build/default/production/_ext/1264479574/tcp.o
                0x0041b218                tcp_free

.text.tcp_free_listen%794
                0x0041b230       0x18
 .text.tcp_free_listen
                0x0041b230       0x18 build/default/production/_ext/1264479574/tcp.o

.text.tcp_abort%795
                0x0041b248       0x18
 .text.tcp_abort
                0x0041b248       0x18 build/default/production/_ext/1264479574/tcp.o
                0x0041b248                tcp_abort

.rodata.lwip_cyclic_timers%796
                0x0041b260       0x18
 .rodata.lwip_cyclic_timers
                0x0041b260       0x18 build/default/production/_ext/1264479574/timeouts.o
                0x0041b260                lwip_cyclic_timers

.text.tud_descriptor_other_speed_configuration_cb%797
                0x0041b278       0x18
 .text.tud_descriptor_other_speed_configuration_cb
                0x0041b278       0x18 build/default/production/_ext/781065747/usbd.o
                0x0041b278                tud_descriptor_other_speed_configuration_cb

.text.tud_speed_get%798
                0x0041b290       0x18
 .text.tud_speed_get
                0x0041b290       0x18 build/default/production/_ext/781065747/usbd.o
                0x0041b290                tud_speed_get

.text.usbd_control_reset%799
                0x0041b2a8       0x18
 .text.usbd_control_reset
                0x0041b2a8       0x18 build/default/production/_ext/781065747/usbd_control.o
                0x0041b2a8                usbd_control_reset

.text.dcd_int_enable%800
                0x0041b2c0       0x18
 .text.dcd_int_enable
                0x0041b2c0       0x18 build/default/production/_ext/2093936272/dcd_samx7x.o
                0x0041b2c0                dcd_int_enable

.text.dcd_int_disable%801
                0x0041b2d8       0x18
 .text.dcd_int_disable
                0x0041b2d8       0x18 build/default/production/_ext/2093936272/dcd_samx7x.o
                0x0041b2d8                dcd_int_disable

.text.memcpy%802
                0x0041b2f0       0x18
 .text.memcpy   0x0041b2f0       0x18 C:/Program Files/Microchip/xc32/v5.00/bin/bin/../../lib/gcc/pic32c/13.2.1/../../../../pic32c/lib/thumb/v7e-m+dp/hard\libc-size-musl.a(memcpy.o)
                0x0041b2f0                memcpy

.text.strlen%803
                0x0041b308       0x18
 .text.strlen   0x0041b308       0x18 C:/Program Files/Microchip/xc32/v5.00/bin/bin/../../lib/gcc/pic32c/13.2.1/../../../../pic32c/lib/thumb/v7e-m+dp/hard\libc-size-musl.a(strlen.o)
                0x0041b308                strlen

.text.__shlim%804
                0x0041b320       0x18
 .text.__shlim  0x0041b320       0x18 C:/Program Files/Microchip/xc32/v5.00/bin/bin/../../lib/gcc/pic32c/13.2.1/../../../../pic32c/lib/thumb/v7e-m+dp/hard\libc-musl.a(shgetc.o)
                0x0041b320                __shlim

.rodata%805     0x0041b338       0x17
 .rodata        0x0041b338       0x17 build/default/production/_ext/502845695/tasks.o

.text.osDelay%806
                0x0041b350       0x16
 .text.osDelay  0x0041b350       0x16 build/default/production/_ext/1778509306/os.o
                0x0041b350                osDelay

.text.netd_reset%807
                0x0041b366       0x16
 .text.netd_reset
                0x0041b366       0x16 build/default/production/_ext/1439055959/ncm_device.o
                0x0041b366                netd_reset

.text.tud_suspend_cb%808
                0x0041b37c       0x16
 .text.tud_suspend_cb
                0x0041b37c       0x16 build/default/production/_ext/781065747/usbd.o
                0x0041b37c                tud_suspend_cb

.text.dcd_edpt_close_all%809
                0x0041b392       0x16
 .text.dcd_edpt_close_all
                0x0041b392       0x16 build/default/production/_ext/2093936272/dcd_samx7x.o
                0x0041b392                dcd_edpt_close_all

.text.strcmp%810
                0x0041b3a8       0x16
 .text.strcmp   0x0041b3a8       0x16 C:/Program Files/Microchip/xc32/v5.00/bin/bin/../../lib/gcc/pic32c/13.2.1/../../../../pic32c/lib/thumb/v7e-m+dp/hard\libc-size-musl.a(strcmp.o)
                0x0041b3a8                strcmp

.rodata%811     0x0041b3be       0x16
 .rodata        0x0041b3be       0x16 C:/Program Files/Microchip/xc32/v5.00/bin/bin/../../lib/gcc/pic32c/13.2.1/../../../../pic32c/lib/thumb/v7e-m+dp/hard\libc-musl.a(__printf_core.o)

.rodata%812     0x0041b3d4       0x15
 .rodata        0x0041b3d4       0x15 build/default/production/_ext/216470852/uart_irq.o

.text.getCliStaticBindings%813
                0x0041b3ec       0x14
 .text.getCliStaticBindings
                0x0041b3ec       0x14 build/default/production/_ext/667517761/cli_command.o
                0x0041b3ec                getCliStaticBindings

.text.EX_Systick_Handler%814
                0x0041b400       0x14
 .text.EX_Systick_Handler
                0x0041b400       0x14 build/default/production/_ext/1360937237/ATSAMV71cm7_it.o

.text.EX_SysTick_HandlerRegister%815
                0x0041b414       0x14
 .text.EX_SysTick_HandlerRegister
                0x0041b414       0x14 build/default/production/_ext/1360937237/ATSAMV71cm7_it.o
                0x0041b414                EX_SysTick_HandlerRegister

.text.EX_TC3_CH0_HandlerRegister%816
                0x0041b428       0x14
 .text.EX_TC3_CH0_HandlerRegister
                0x0041b428       0x14 build/default/production/_ext/1360937237/ATSAMV71cm7_it.o
                0x0041b428                EX_TC3_CH0_HandlerRegister

.text.main%817  0x0041b43c       0x14
 .text.main     0x0041b43c       0x14 build/default/production/_ext/1360937237/main.o
                0x0041b43c                main

.rodata.cli_attr%818
                0x0041b450       0x14
 .rodata.cli_attr
                0x0041b450       0x14 build/default/production/_ext/30620426/app_cli.o
                0x0041b450                cli_attr

.rodata.alive_attr%819
                0x0041b464       0x14
 .rodata.alive_attr
                0x0041b464       0x14 build/default/production/_ext/1525186148/app_alive.o
                0x0041b464                alive_attr

.rodata.log_attr%820
                0x0041b478       0x14
 .rodata.log_attr
                0x0041b478       0x14 build/default/production/_ext/1918720202/app_logging.o
                0x0041b478                log_attr

.rodata.network_attr%821
                0x0041b48c       0x14
 .rodata.network_attr
                0x0041b48c       0x14 build/default/production/_ext/1389938436/app_network.o
                0x0041b48c                network_attr

.rodata.usb_attr%822
                0x0041b4a0       0x14
 .rodata.usb_attr
                0x0041b4a0       0x14 build/default/production/_ext/30602918/app_usb.o
                0x0041b4a0                usb_attr

.text.tud_descriptor_device_cb%823
                0x0041b4b4       0x14
 .text.tud_descriptor_device_cb
                0x0041b4b4       0x14 build/default/production/_ext/783082040/usb_descriptors.o
                0x0041b4b4                tud_descriptor_device_cb

.text.tud_descriptor_bos_cb%824
                0x0041b4c8       0x14
 .text.tud_descriptor_bos_cb
                0x0041b4c8       0x14 build/default/production/_ext/783082040/usb_descriptors.o
                0x0041b4c8                tud_descriptor_bos_cb

.text.pbuf_free_ooseq_callback%825
                0x0041b4dc       0x14
 .text.pbuf_free_ooseq_callback
                0x0041b4dc       0x14 build/default/production/_ext/1264479574/pbuf.o

.text.tud_sof_cb%826
                0x0041b4f0       0x14
 .text.tud_sof_cb
                0x0041b4f0       0x14 build/default/production/_ext/781065747/usbd.o
                0x0041b4f0                tud_sof_cb

.text.sys_arch_unprotect%827
                0x0041b504       0x14
 .text.sys_arch_unprotect
                0x0041b504       0x14 build/default/production/_ext/1017385999/sys_arch.o
                0x0041b504                sys_arch_unprotect

.rodata%828     0x0041b518       0x14
 .rodata        0x0041b518       0x14 C:/Program Files/Microchip/xc32/v5.00/bin/bin/../../lib/gcc/pic32c/13.2.1/../../../../pic32c/lib/thumb/v7e-m+dp/hard\libpic32c.a(data_init.o)

.text.memset%829
                0x0041b52c       0x14
 .text.memset   0x0041b52c       0x14 C:/Program Files/Microchip/xc32/v5.00/bin/bin/../../lib/gcc/pic32c/13.2.1/../../../../pic32c/lib/thumb/v7e-m+dp/hard\libc-size-musl.a(memset.o)
                0x0041b52c                memset

.text.strchr%830
                0x0041b540       0x14
 .text.strchr   0x0041b540       0x14 C:/Program Files/Microchip/xc32/v5.00/bin/bin/../../lib/gcc/pic32c/13.2.1/../../../../pic32c/lib/thumb/v7e-m+dp/hard\libc-size-musl.a(strchr.o)
                0x0041b540                strchr

.text.stpcpy%831
                0x0041b554       0x14
 .text.stpcpy   0x0041b554       0x14 C:/Program Files/Microchip/xc32/v5.00/bin/bin/../../lib/gcc/pic32c/13.2.1/../../../../pic32c/lib/thumb/v7e-m+dp/hard\libc-size-musl.a(stpcpy.o)
                0x0041b554                __stpcpy
                0x0041b554                stpcpy

.text.strtoul%832
                0x0041b568       0x14
 .text.strtoul  0x0041b568       0x14 C:/Program Files/Microchip/xc32/v5.00/bin/bin/../../lib/gcc/pic32c/13.2.1/../../../../pic32c/lib/thumb/v7e-m+dp/hard\libc-musl.a(strtol.o)
                0x0041b568                __strtoul_internal
                0x0041b568                strtoul

.rodata.desc_device%833
                0x0041b57c       0x12
 .rodata.desc_device
                0x0041b57c       0x12 build/default/production/_ext/783082040/usb_descriptors.o

.text.__dinit_clear%834
                0x0041b58e       0x12
 .text.__dinit_clear
                0x0041b58e       0x12 C:/Program Files/Microchip/xc32/v5.00/bin/bin/../../lib/gcc/pic32c/13.2.1/../../../../pic32c/lib/thumb/v7e-m+dp/hard\libpic32c.a(pic32_data_init_clear.o)
                0x0041b58e                __dinit_clear
                0x0041b58e                __dinit_clear_needed

.text.CMD_Reset%835
                0x0041b5a0       0x10
 .text.CMD_Reset
                0x0041b5a0       0x10 build/default/production/_ext/667517761/cli_command.o

.text.getCliStaticBindingCount%836
                0x0041b5b0       0x10
 .text.getCliStaticBindingCount
                0x0041b5b0       0x10 build/default/production/_ext/667517761/cli_command.o
                0x0041b5b0                getCliStaticBindingCount

.text.ip_frag_alloc_pbuf_custom_ref%837
                0x0041b5c0       0x10
 .text.ip_frag_alloc_pbuf_custom_ref
                0x0041b5c0       0x10 build/default/production/_ext/1349076522/ip4_frag.o

.rodata.memp_RAW_PCB%838
                0x0041b5d0       0x10
 .rodata.memp_RAW_PCB
                0x0041b5d0       0x10 build/default/production/_ext/1264479574/memp.o
                0x0041b5d0                memp_RAW_PCB

.rodata.memp_UDP_PCB%839
                0x0041b5e0       0x10
 .rodata.memp_UDP_PCB
                0x0041b5e0       0x10 build/default/production/_ext/1264479574/memp.o
                0x0041b5e0                memp_UDP_PCB

.rodata.memp_TCP_PCB%840
                0x0041b5f0       0x10
 .rodata.memp_TCP_PCB
                0x0041b5f0       0x10 build/default/production/_ext/1264479574/memp.o
                0x0041b5f0                memp_TCP_PCB

.rodata.memp_TCP_PCB_LISTEN%841
                0x0041b600       0x10
 .rodata.memp_TCP_PCB_LISTEN
                0x0041b600       0x10 build/default/production/_ext/1264479574/memp.o
                0x0041b600                memp_TCP_PCB_LISTEN

.rodata.memp_TCP_SEG%842
                0x0041b610       0x10
 .rodata.memp_TCP_SEG
                0x0041b610       0x10 build/default/production/_ext/1264479574/memp.o
                0x0041b610                memp_TCP_SEG

.rodata.memp_REASSDATA%843
                0x0041b620       0x10
 .rodata.memp_REASSDATA
                0x0041b620       0x10 build/default/production/_ext/1264479574/memp.o
                0x0041b620                memp_REASSDATA

.rodata.memp_FRAG_PBUF%844
                0x0041b630       0x10
 .rodata.memp_FRAG_PBUF
                0x0041b630       0x10 build/default/production/_ext/1264479574/memp.o
                0x0041b630                memp_FRAG_PBUF

.rodata.memp_TCPIP_MSG_API%845
                0x0041b640       0x10
 .rodata.memp_TCPIP_MSG_API
                0x0041b640       0x10 build/default/production/_ext/1264479574/memp.o
                0x0041b640                memp_TCPIP_MSG_API

.rodata.memp_TCPIP_MSG_INPKT%846
                0x0041b650       0x10
 .rodata.memp_TCPIP_MSG_INPKT
                0x0041b650       0x10 build/default/production/_ext/1264479574/memp.o
                0x0041b650                memp_TCPIP_MSG_INPKT

.rodata.memp_SYS_TIMEOUT%847
                0x0041b660       0x10
 .rodata.memp_SYS_TIMEOUT
                0x0041b660       0x10 build/default/production/_ext/1264479574/memp.o
                0x0041b660                memp_SYS_TIMEOUT

.rodata.memp_PBUF%848
                0x0041b670       0x10
 .rodata.memp_PBUF
                0x0041b670       0x10 build/default/production/_ext/1264479574/memp.o
                0x0041b670                memp_PBUF

.rodata.memp_PBUF_POOL%849
                0x0041b680       0x10
 .rodata.memp_PBUF_POOL
                0x0041b680       0x10 build/default/production/_ext/1264479574/memp.o
                0x0041b680                memp_PBUF_POOL

.rodata.tcp_pcb_lists%850
                0x0041b690       0x10
 .rodata.tcp_pcb_lists
                0x0041b690       0x10 build/default/production/_ext/1264479574/tcp.o
                0x0041b690                tcp_pcb_lists

.text.tcp_new%851
                0x0041b6a0       0x10
 .text.tcp_new  0x0041b6a0       0x10 build/default/production/_ext/1264479574/tcp.o
                0x0041b6a0                tcp_new

.text.netd_deinit%852
                0x0041b6b0       0x10
 .text.netd_deinit
                0x0041b6b0       0x10 build/default/production/_ext/1439055959/ncm_device.o
                0x0041b6b0                netd_deinit

.text.tud_descriptor_device_qualifier_cb%853
                0x0041b6c0       0x10
 .text.tud_descriptor_device_qualifier_cb
                0x0041b6c0       0x10 build/default/production/_ext/781065747/usbd.o
                0x0041b6c0                tud_descriptor_device_qualifier_cb

.rodata%854     0x0041b6d0        0xf
 .rodata        0x0041b6d0        0xf build/default/production/_ext/1264479574/tcp_in.o

.text.USBHS_Handler%855
                0x0041b6e0        0xe
 .text.USBHS_Handler
                0x0041b6e0        0xe build/default/production/_ext/1360937237/ATSAMV71cm7_it.o
                0x0041b6e0                USBHS_Handler

.text.AliveTimeoutCallback%856
                0x0041b6ee        0xe
 .text.AliveTimeoutCallback
                0x0041b6ee        0xe build/default/production/_ext/1026660007/app_root.o

.text.CLITimeoutCallback%857
                0x0041b6fc        0xe
 .text.CLITimeoutCallback
                0x0041b6fc        0xe build/default/production/_ext/1026660007/app_root.o

.rodata%858     0x0041b70c        0xe
 .rodata        0x0041b70c        0xe build/default/production/_ext/30602918/app_usb.o

.text.netif_init%859
                0x0041b71a        0xe
 .text.netif_init
                0x0041b71a        0xe build/default/production/_ext/1264479574/netif.o
                0x0041b71a                netif_init

.text.stats_init%860
                0x0041b728        0xe
 .text.stats_init
                0x0041b728        0xe build/default/production/_ext/1264479574/stats.o
                0x0041b728                stats_init

.text.tcp_init%861
                0x0041b736        0xe
 .text.tcp_init
                0x0041b736        0xe build/default/production/_ext/1264479574/tcp.o
                0x0041b736                tcp_init

.text.udp_init%862
                0x0041b744        0xe
 .text.udp_init
                0x0041b744        0xe build/default/production/_ext/1264479574/udp.o
                0x0041b744                udp_init

.text.tud_mount_cb%863
                0x0041b752        0xe
 .text.tud_mount_cb
                0x0041b752        0xe build/default/production/_ext/781065747/usbd.o
                0x0041b752                tud_mount_cb

.text.tud_umount_cb%864
                0x0041b760        0xe
 .text.tud_umount_cb
                0x0041b760        0xe build/default/production/_ext/781065747/usbd.o
                0x0041b760                tud_umount_cb

.text.tud_resume_cb%865
                0x0041b76e        0xe
 .text.tud_resume_cb
                0x0041b76e        0xe build/default/production/_ext/781065747/usbd.o
                0x0041b76e                tud_resume_cb

.text.sys_init%866
                0x0041b77c        0xe
 .text.sys_init
                0x0041b77c        0xe build/default/production/_ext/1017385999/sys_arch.o
                0x0041b77c                sys_init

.text.sys_now%867
                0x0041b78a        0xe
 .text.sys_now  0x0041b78a        0xe build/default/production/_ext/1017385999/sys_arch.o
                0x0041b78a                sys_now

.text.sys_arch_protect%868
                0x0041b798        0xe
 .text.sys_arch_protect
                0x0041b798        0xe build/default/production/_ext/1017385999/sys_arch.o
                0x0041b798                sys_arch_protect

.text.toupper%869
                0x0041b7a6        0xe
 .text.toupper  0x0041b7a6        0xe C:/Program Files/Microchip/xc32/v5.00/bin/bin/../../lib/gcc/pic32c/13.2.1/../../../../pic32c/lib/thumb/v7e-m+dp/hard\libc-musl.a(toupper.o)
                0x0041b7a6                toupper

.text.tolower%870
                0x0041b7b4        0xe
 .text.tolower  0x0041b7b4        0xe C:/Program Files/Microchip/xc32/v5.00/bin/bin/../../lib/gcc/pic32c/13.2.1/../../../../pic32c/lib/thumb/v7e-m+dp/hard\libc-musl.a(tolower.o)
                0x0041b7b4                tolower

.rodata%871     0x0041b7c4        0xd
 .rodata        0x0041b7c4        0xd build/default/production/_ext/502845695/timers.o

.rodata.tcp_backoff%872
                0x0041b7d4        0xd
 .rodata.tcp_backoff
                0x0041b7d4        0xd build/default/production/_ext/1264479574/tcp.o

.rodata.daysInMonth.0%873
                0x0041a8b4        0xc
 .rodata.daysInMonth.0
                0x0041a8b4        0xc build/default/production/_ext/697864676/date_time.o

.text.strcpy%874
                0x0041b7e2        0xc
 .text.strcpy   0x0041b7e2        0xc C:/Program Files/Microchip/xc32/v5.00/bin/bin/../../lib/gcc/pic32c/13.2.1/../../../../pic32c/lib/thumb/v7e-m+dp/hard\libc-size-musl.a(strcpy.o)
                0x0041b7e2                strcpy

.text.strncpy%875
                0x0041b7ee        0xc
 .text.strncpy  0x0041b7ee        0xc C:/Program Files/Microchip/xc32/v5.00/bin/bin/../../lib/gcc/pic32c/13.2.1/../../../../pic32c/lib/thumb/v7e-m+dp/hard\libc-size-musl.a(strncpy.o)
                0x0041b7ee                strncpy

.text.vsprintf%876
                0x0041b7fa        0xc
 .text.vsprintf
                0x0041b7fa        0xc C:/Program Files/Microchip/xc32/v5.00/bin/bin/../../lib/gcc/pic32c/13.2.1/../../../../pic32c/lib/thumb/v7e-m+dp/hard\libc-musl.a(vsprintf.o)
                0x0041b7fa                vsprintf

.rodata%877     0x0041b808        0xb
 .rodata        0x0041b808        0xb build/default/production/_ext/781065747/usbd.o

.rodata%878     0x0041b814        0x9
 .rodata        0x0041b814        0x9 build/default/production/_ext/1918720202/app_logging.o

.rodata%879     0x0041b820        0x8
 .rodata        0x0041b820        0x8 build/default/production/_ext/30620426/app_cli.o

.rodata.tcp_persist_backoff%880
                0x0041b828        0x7
 .rodata.tcp_persist_backoff
                0x0041b828        0x7 build/default/production/_ext/1264479574/tcp.o

.rodata.ep0_desc%881
                0x0041b830        0x7
 .rodata.ep0_desc
                0x0041b830        0x7 build/default/production/_ext/2093936272/dcd_samx7x.o

.text.NonMaskableInt_Handler%882
                0x0041b838        0x6
 .text.NonMaskableInt_Handler
                0x0041b838        0x6 build/default/production/_ext/1171490990/exceptions.o
                0x0041b838                NonMaskableInt_Handler

.text.HardFault_Handler%883
                0x0041b83e        0x6
 .text.HardFault_Handler
                0x0041b83e        0x6 build/default/production/_ext/1171490990/exceptions.o
                0x0041b83e                HardFault_Handler

.text.DebugMonitor_Handler%884
                0x0041b844        0x6
 .text.DebugMonitor_Handler
                0x0041b844        0x6 build/default/production/_ext/1171490990/exceptions.o
                0x0041b844                DebugMonitor_Handler

.text.MemoryManagement_Handler%885
                0x0041b84a        0x6
 .text.MemoryManagement_Handler
                0x0041b84a        0x6 build/default/production/_ext/1171490990/exceptions.o
                0x0041b84a                MemoryManagement_Handler

.text.BusFault_Handler%886
                0x0041b850        0x6
 .text.BusFault_Handler
                0x0041b850        0x6 build/default/production/_ext/1171490990/exceptions.o
                0x0041b850                BusFault_Handler

.text.UsageFault_Handler%887
                0x0041b856        0x6
 .text.UsageFault_Handler
                0x0041b856        0x6 build/default/production/_ext/1171490990/exceptions.o
                0x0041b856                UsageFault_Handler

.rodata.ethbroadcast%888
                0x0041b85c        0x6
 .rodata.ethbroadcast
                0x0041b85c        0x6 build/default/production/_ext/534298161/ethernet.o
                0x0041b85c                ethbroadcast

.rodata.ethzero%889
                0x0041b864        0x6
 .rodata.ethzero
                0x0041b864        0x6 build/default/production/_ext/534298161/ethernet.o
                0x0041b864                ethzero

.rodata.uxTopUsedPriority%890
                0x00405724        0x4
 .rodata.uxTopUsedPriority
                0x00405724        0x4 build/default/production/_ext/502845695/tasks.o

.rodata.ipaddr%891
                0x00412b8c        0x4
 .rodata.ipaddr
                0x00412b8c        0x4 build/default/production/_ext/1389938436/app_network.o

.rodata.netmask%892
                0x00416c8c        0x4
 .rodata.netmask
                0x00416c8c        0x4 build/default/production/_ext/1389938436/app_network.o

.rodata.gateway%893
                0x0041b86c        0x4
 .rodata.gateway
                0x0041b86c        0x4 build/default/production/_ext/1389938436/app_network.o

.rodata.ip_addr_any%894
                0x0041b870        0x4
 .rodata.ip_addr_any
                0x0041b870        0x4 build/default/production/_ext/1349076522/ip4_addr.o
                0x0041b870                ip_addr_any

.text.__dummy_decompress%895
                0x0041b874        0x4
 .text.__dummy_decompress
                0x0041b874        0x4 C:/Program Files/Microchip/xc32/v5.00/bin/bin/../../lib/gcc/pic32c/13.2.1/../../../../pic32c/lib/thumb/v7e-m+dp/hard\libpic32c.a(data_init.o)
                0x0041b874                __dinit_decompress
                0x0041b874                __dinit_copy_val_data
                0x0041b874                __dinit_copy_emb

.text%896       0x0041b878        0x4
 .text          0x0041b878        0x4 C:/Program Files/Microchip/xc32/v5.00/bin/bin/../../lib/gcc/pic32c/13.2.1/thumb/v7e-m+dp/hard\libgcc.a(_dvmd_tls.o)
                0x0041b878                __aeabi_idiv0
                0x0041b878                __aeabi_ldiv0

.rodata.__compound_literal.0%897
                0x0041b87c        0x2
 .rodata.__compound_literal.0
                0x0041b87c        0x2 build/default/production/_ext/783082040/usb_descriptors.o

.text.Dummy_Handler%898
                0x0040fb92        0x2
 .text.Dummy_Handler
                0x0040fb92        0x2 build/default/production/_ext/1171490990/interrupts.o
                0x0040fb92                DACC_Handler
                0x0040fb92                TC0_CH2_Handler
                0x0040fb92                TC3_CH1_Handler
                0x0040fb92                UART3_Handler
                0x0040fb92                TRNG_Handler
                0x0040fb92                AFEC1_Handler
                0x0040fb92                TC0_CH1_Handler
                0x0040fb92                QSPI_Handler
                0x0040fb92                ISI_Handler
                0x0040fb92                MCAN0_INT0_Handler
                0x0040fb92                RSWDT_Handler
                0x0040fb92                USART0_Handler
                0x0040fb92                TC1_CH2_Handler
                0x0040fb92                RTT_Handler
                0x0040fb92                IXC_Handler
                0x0040fb92                CCF_Handler
                0x0040fb92                PIOB_Handler
                0x0040fb92                RTC_Handler
                0x0040fb92                WDT_Handler
                0x0040fb92                MCAN1_INT1_Handler
                0x0040fb92                HSMCI_Handler
                0x0040fb92                UART1_Handler
                0x0040fb92                Dummy_Handler
                0x0040fb92                TWIHS1_Handler
                0x0040fb92                TC3_CH2_Handler
                0x0040fb92                XDMAC_Handler
                0x0040fb92                UART4_Handler
                0x0040fb92                TC2_CH0_Handler
                0x0040fb92                PWM1_Handler
                0x0040fb92                USART1_Handler
                0x0040fb92                PWM0_Handler
                0x0040fb92                PIOA_Handler
                0x0040fb92                AFEC0_Handler
                0x0040fb92                CCW_Handler
                0x0040fb92                SSC_Handler
                0x0040fb92                TC1_CH0_Handler
                0x0040fb92                ACC_Handler
                0x0040fb92                PMC_Handler
                0x0040fb92                GMAC_Handler
                0x0040fb92                TC2_CH2_Handler
                0x0040fb92                MCAN0_INT1_Handler
                0x0040fb92                GMAC_Q5_Handler
                0x0040fb92                SUPC_Handler
                0x0040fb92                TC2_CH1_Handler
                0x0040fb92                MCAN1_INT0_Handler
                0x0040fb92                EFC_Handler
                0x0040fb92                GMAC_Q1_Handler
                0x0040fb92                USART2_Handler
                0x0040fb92                GMAC_Q2_Handler
                0x0040fb92                PIOE_Handler
                0x0040fb92                SPI1_Handler
                0x0040fb92                TC1_CH1_Handler
                0x0040fb92                GMAC_Q3_Handler
                0x0040fb92                PIOD_Handler
                0x0040fb92                TWIHS2_Handler
                0x0040fb92                MLB_Handler
                0x0040fb92                I2SC0_Handler
                0x0040fb92                UART0_Handler
                0x0040fb92                I2SC1_Handler
                0x0040fb92                TC0_CH0_Handler
                0x0040fb92                PIOC_Handler
                0x0040fb92                GMAC_Q4_Handler
                0x0040fb92                FPU_Handler
                0x0040fb92                RSTC_Handler
                0x0040fb92                ICM_Handler
                0x0040fb92                AES_Handler
                0x0040fb92                TWIHS0_Handler
                0x0040fb92                SPI0_Handler

.text.Dummy_App_Func%899
                0x00411422        0x2
 .text.Dummy_App_Func
                0x00411422        0x2 build/default/production/_ext/1171490990/startup_xc32.o
                0x00411422                _on_reset
                0x00411422                _on_bootstrap
                0x00411422                __xc32_on_reset
                0x00411422                Dummy_App_Func
                0x00411422                __xc32_on_bootstrap

.text.__dummy_init_tls%900
                0x00412e7a        0x2
 .text.__dummy_init_tls
                0x00412e7a        0x2 C:/Program Files/Microchip/xc32/v5.00/bin/bin/../../lib/gcc/pic32c/13.2.1/../../../../pic32c/lib/thumb/v7e-m+dp/hard\libpic32c.a(data_init.o)
                0x00412e7a                xc32_init_tls

.text.__dummy%901
                0x00413f7e        0x2
 .text.__dummy  0x00413f7e        0x2 C:/Program Files/Microchip/xc32/v5.00/bin/bin/../../lib/gcc/pic32c/13.2.1/../../../../pic32c/lib/thumb/v7e-m+dp/hard\libc-musl.a(__libc_start_main.o)
                0x00413f7e                __init_stdio
                0x00413f7e                __init_host
